In archive libArduinoIO.a:

WireOutputStream.o:     file format elf32-avr

Sections:
Idx Name          Size      VMA       LMA       File off  Algn
  0 .text         00000000  00000000  00000000  00000034  2**0
                  CONTENTS, ALLOC, LOAD, READONLY, CODE
  1 .data         00000000  00000000  00000000  00000034  2**0
                  CONTENTS, ALLOC, LOAD, DATA
  2 .bss          00000000  00000000  00000000  00000034  2**0
                  ALLOC
  3 .comment      00000012  00000000  00000000  00000034  2**0
                  CONTENTS, READONLY

WireInputStream.o:     file format elf32-avr

Sections:
Idx Name          Size      VMA       LMA       File off  Algn
  0 .group        00000008  00000000  00000000  00000034  2**2
                  CONTENTS, READONLY, EXCLUDE, GROUP, LINK_ONCE_DISCARD
  1 .group        00000008  00000000  00000000  0000003c  2**2
                  CONTENTS, READONLY, EXCLUDE, GROUP, LINK_ONCE_DISCARD
  2 .text         00000000  00000000  00000000  00000044  2**0
                  CONTENTS, ALLOC, LOAD, READONLY, CODE
  3 .data         00000000  00000000  00000000  00000044  2**0
                  CONTENTS, ALLOC, LOAD, DATA
  4 .bss          00000000  00000000  00000000  00000044  2**0
                  ALLOC
  5 .text._ZN15WireInputStreamC2Eh 00000014  00000000  00000000  00000044  2**0
                  CONTENTS, ALLOC, LOAD, RELOC, READONLY, CODE
  6 .text._ZN15WireInputStream9availableEv 00000008  00000000  00000000  00000058  2**0
                  CONTENTS, ALLOC, LOAD, RELOC, READONLY, CODE
  7 .text._ZN15WireInputStream4readEv 00000046  00000000  00000000  00000060  2**0
                  CONTENTS, ALLOC, LOAD, RELOC, READONLY, CODE
  8 .text._ZN15WireInputStream4readEPhii 0000008e  00000000  00000000  000000a6  2**0
                  CONTENTS, ALLOC, LOAD, RELOC, READONLY, CODE
  9 .rodata._ZTV9Closeable 00000006  00000000  00000000  00000134  2**0
                  CONTENTS, ALLOC, LOAD, RELOC, READONLY, DATA
 10 .rodata._ZTV15WireInputStream 00000016  00000000  00000000  0000013a  2**0
                  CONTENTS, ALLOC, LOAD, RELOC, READONLY, DATA
 11 .comment      00000012  00000000  00000000  00000150  2**0
                  CONTENTS, READONLY

Disassembly of section .text._ZN15WireInputStreamC2Eh:

00000000 <_ZN15WireInputStreamC1Eh>:
   0:	20 e0       	ldi	r18, 0x00	; 0
   2:	30 e0       	ldi	r19, 0x00	; 0
   4:	fc 01       	movw	r30, r24
   6:	31 83       	std	Z+1, r19	; 0x01
   8:	20 83       	st	Z, r18
   a:	62 83       	std	Z+2, r22	; 0x02
   c:	80 e0       	ldi	r24, 0x00	; 0
   e:	90 e0       	ldi	r25, 0x00	; 0
  10:	0c 94 00 00 	jmp	0	; 0x0 <_ZN15WireInputStreamC1Eh>

Disassembly of section .text._ZN15WireInputStream9availableEv:

00000014 <_ZN15WireInputStream9availableEv>:
  14:	80 e0       	ldi	r24, 0x00	; 0
  16:	90 e0       	ldi	r25, 0x00	; 0
  18:	0c 94 00 00 	jmp	0	; 0x0 <__tmp_reg__>

Disassembly of section .text._ZN15WireInputStream4readEv:

00000030 <_ZN15WireInputStream4readEv>:
  30:	cf 93       	push	r28
  32:	df 93       	push	r29
  34:	ec 01       	movw	r28, r24
  36:	6a 81       	ldd	r22, Y+2	; 0x02
  38:	80 e0       	ldi	r24, 0x00	; 0
  3a:	90 e0       	ldi	r25, 0x00	; 0
  3c:	0e 94 00 00 	call	0	; 0x0 <__tmp_reg__>
  40:	6a 81       	ldd	r22, Y+2	; 0x02
  42:	80 e0       	ldi	r24, 0x00	; 0
  44:	90 e0       	ldi	r25, 0x00	; 0
  46:	0e 94 00 00 	call	0	; 0x0 <__tmp_reg__>
  4a:	80 e0       	ldi	r24, 0x00	; 0
  4c:	90 e0       	ldi	r25, 0x00	; 0
  4e:	0e 94 00 00 	call	0	; 0x0 <__tmp_reg__>
  52:	41 e0       	ldi	r20, 0x01	; 1
  54:	6a 81       	ldd	r22, Y+2	; 0x02
  56:	80 e0       	ldi	r24, 0x00	; 0
  58:	90 e0       	ldi	r25, 0x00	; 0
  5a:	0e 94 00 00 	call	0	; 0x0 <__tmp_reg__>
  5e:	80 e0       	ldi	r24, 0x00	; 0
  60:	90 e0       	ldi	r25, 0x00	; 0
  62:	0e 94 00 00 	call	0	; 0x0 <__tmp_reg__>
  66:	89 2b       	or	r24, r25
  68:	01 f0       	breq	.+0      	; 0x6a <_ZN15WireInputStream4readEv+0x3a>
  6a:	80 e0       	ldi	r24, 0x00	; 0
  6c:	90 e0       	ldi	r25, 0x00	; 0
  6e:	df 91       	pop	r29
  70:	cf 91       	pop	r28
  72:	0c 94 00 00 	jmp	0	; 0x0 <__tmp_reg__>

Disassembly of section .text._ZN15WireInputStream4readEPhii:

000000a6 <_ZN15WireInputStream4readEPhii>:
  a6:	cf 92       	push	r12
  a8:	df 92       	push	r13
  aa:	ef 92       	push	r14
  ac:	ff 92       	push	r15
  ae:	0f 93       	push	r16
  b0:	1f 93       	push	r17
  b2:	cf 93       	push	r28
  b4:	df 93       	push	r29
  b6:	7c 01       	movw	r14, r24
  b8:	eb 01       	movw	r28, r22
  ba:	6a 01       	movw	r12, r20
  bc:	89 01       	movw	r16, r18
  be:	fc 01       	movw	r30, r24
  c0:	62 81       	ldd	r22, Z+2	; 0x02
  c2:	80 e0       	ldi	r24, 0x00	; 0
  c4:	90 e0       	ldi	r25, 0x00	; 0
  c6:	0e 94 00 00 	call	0	; 0x0 <__tmp_reg__>
  ca:	f7 01       	movw	r30, r14
  cc:	62 81       	ldd	r22, Z+2	; 0x02
  ce:	80 e0       	ldi	r24, 0x00	; 0
  d0:	90 e0       	ldi	r25, 0x00	; 0
  d2:	0e 94 00 00 	call	0	; 0x0 <__tmp_reg__>
  d6:	80 e0       	ldi	r24, 0x00	; 0
  d8:	90 e0       	ldi	r25, 0x00	; 0
  da:	0e 94 00 00 	call	0	; 0x0 <__tmp_reg__>
  de:	f7 01       	movw	r30, r14
  e0:	62 81       	ldd	r22, Z+2	; 0x02
  e2:	70 e0       	ldi	r23, 0x00	; 0
  e4:	a8 01       	movw	r20, r16
  e6:	80 e0       	ldi	r24, 0x00	; 0
  e8:	90 e0       	ldi	r25, 0x00	; 0
  ea:	0e 94 00 00 	call	0	; 0x0 <__tmp_reg__>
  ee:	cc 0d       	add	r28, r12
  f0:	dd 1d       	adc	r29, r13
  f2:	7e 01       	movw	r14, r28
  f4:	ce 01       	movw	r24, r28
  f6:	8e 19       	sub	r24, r14
  f8:	9f 09       	sbc	r25, r15
  fa:	80 17       	cp	r24, r16
  fc:	91 07       	cpc	r25, r17
  fe:	04 f4       	brge	.+0      	; 0x100 <_ZN15WireInputStream4readEPhii+0x5a>
 100:	80 e0       	ldi	r24, 0x00	; 0
 102:	90 e0       	ldi	r25, 0x00	; 0
 104:	0e 94 00 00 	call	0	; 0x0 <__tmp_reg__>
 108:	89 2b       	or	r24, r25
 10a:	01 f0       	breq	.+0      	; 0x10c <_ZN15WireInputStream4readEPhii+0x66>
 10c:	80 e0       	ldi	r24, 0x00	; 0
 10e:	90 e0       	ldi	r25, 0x00	; 0
 110:	0e 94 00 00 	call	0	; 0x0 <__tmp_reg__>
 114:	89 93       	st	Y+, r24
 116:	00 c0       	rjmp	.+0      	; 0x118 <_ZN15WireInputStream4readEPhii+0x72>
 118:	c8 01       	movw	r24, r16
 11a:	17 ff       	sbrs	r17, 7
 11c:	00 c0       	rjmp	.+0      	; 0x11e <_ZN15WireInputStream4readEPhii+0x78>
 11e:	80 e0       	ldi	r24, 0x00	; 0
 120:	90 e0       	ldi	r25, 0x00	; 0
 122:	df 91       	pop	r29
 124:	cf 91       	pop	r28
 126:	1f 91       	pop	r17
 128:	0f 91       	pop	r16
 12a:	ff 90       	pop	r15
 12c:	ef 90       	pop	r14
 12e:	df 90       	pop	r13
 130:	cf 90       	pop	r12
 132:	08 95       	ret

SoftwareSerialOutputStream.o:     file format elf32-avr

Sections:
Idx Name          Size      VMA       LMA       File off  Algn
  0 .group        00000008  00000000  00000000  00000034  2**2
                  CONTENTS, READONLY, EXCLUDE, GROUP, LINK_ONCE_DISCARD
  1 .group        00000008  00000000  00000000  0000003c  2**2
                  CONTENTS, READONLY, EXCLUDE, GROUP, LINK_ONCE_DISCARD
  2 .group        00000008  00000000  00000000  00000044  2**2
                  CONTENTS, READONLY, EXCLUDE, GROUP, LINK_ONCE_DISCARD
  3 .text         00000000  00000000  00000000  0000004c  2**0
                  CONTENTS, ALLOC, LOAD, READONLY, CODE
  4 .data         00000000  00000000  00000000  0000004c  2**0
                  CONTENTS, ALLOC, LOAD, DATA
  5 .bss          00000000  00000000  00000000  0000004c  2**0
                  ALLOC
  6 .text._ZN26SoftwareSerialOutputStream5writeEh 00000018  00000000  00000000  0000004c  2**0
                  CONTENTS, ALLOC, LOAD, READONLY, CODE
  7 .text._ZN26SoftwareSerialOutputStreamC2EP14SoftwareSerialj 00000018  00000000  00000000  00000064  2**0
                  CONTENTS, ALLOC, LOAD, RELOC, READONLY, CODE
  8 .rodata._ZTV9Closeable 00000006  00000000  00000000  0000007c  2**0
                  CONTENTS, ALLOC, LOAD, RELOC, READONLY, DATA
  9 .rodata._ZTV18SerialOutputStream 0000000e  00000000  00000000  00000082  2**0
                  CONTENTS, ALLOC, LOAD, RELOC, READONLY, DATA
 10 .rodata._ZTV26SoftwareSerialOutputStream 0000000e  00000000  00000000  00000090  2**0
                  CONTENTS, ALLOC, LOAD, RELOC, READONLY, DATA
 11 .comment      00000012  00000000  00000000  0000009e  2**0
                  CONTENTS, READONLY

Disassembly of section .text._ZN26SoftwareSerialOutputStream5writeEh:

00000000 <_ZN26SoftwareSerialOutputStream5writeEh>:
   0:	dc 01       	movw	r26, r24
   2:	12 96       	adiw	r26, 0x02	; 2
   4:	8d 91       	ld	r24, X+
   6:	9c 91       	ld	r25, X
   8:	13 97       	sbiw	r26, 0x03	; 3
   a:	dc 01       	movw	r26, r24
   c:	ed 91       	ld	r30, X+
   e:	fc 91       	ld	r31, X
  10:	01 90       	ld	r0, Z+
  12:	f0 81       	ld	r31, Z
  14:	e0 2d       	mov	r30, r0
  16:	09 94       	ijmp

Disassembly of section .text._ZN26SoftwareSerialOutputStreamC2EP14SoftwareSerialj:

00000018 <_ZN26SoftwareSerialOutputStreamC1EP14SoftwareSerialj>:
  18:	fc 01       	movw	r30, r24
  1a:	cb 01       	movw	r24, r22
  1c:	20 e0       	ldi	r18, 0x00	; 0
  1e:	30 e0       	ldi	r19, 0x00	; 0
  20:	31 83       	std	Z+1, r19	; 0x01
  22:	20 83       	st	Z, r18
  24:	73 83       	std	Z+3, r23	; 0x03
  26:	62 83       	std	Z+2, r22	; 0x02
  28:	60 e0       	ldi	r22, 0x00	; 0
  2a:	70 e0       	ldi	r23, 0x00	; 0
  2c:	0c 94 00 00 	jmp	0	; 0x0 <__tmp_reg__>

SoftwareSerialInputStream.o:     file format elf32-avr

Sections:
Idx Name          Size      VMA       LMA       File off  Algn
  0 .group        00000008  00000000  00000000  00000034  2**2
                  CONTENTS, READONLY, EXCLUDE, GROUP, LINK_ONCE_DISCARD
  1 .group        00000008  00000000  00000000  0000003c  2**2
                  CONTENTS, READONLY, EXCLUDE, GROUP, LINK_ONCE_DISCARD
  2 .group        00000008  00000000  00000000  00000044  2**2
                  CONTENTS, READONLY, EXCLUDE, GROUP, LINK_ONCE_DISCARD
  3 .text         00000000  00000000  00000000  0000004c  2**0
                  CONTENTS, ALLOC, LOAD, READONLY, CODE
  4 .data         00000000  00000000  00000000  0000004c  2**0
                  CONTENTS, ALLOC, LOAD, DATA
  5 .bss          00000000  00000000  00000000  0000004c  2**0
                  ALLOC
  6 .text._ZN25SoftwareSerialInputStream9availableEv 00000018  00000000  00000000  0000004c  2**0
                  CONTENTS, ALLOC, LOAD, READONLY, CODE
  7 .text._ZN25SoftwareSerialInputStream4readEv 00000018  00000000  00000000  00000064  2**0
                  CONTENTS, ALLOC, LOAD, READONLY, CODE
  8 .text._ZN25SoftwareSerialInputStreamC2EP14SoftwareSerialj 00000018  00000000  00000000  0000007c  2**0
                  CONTENTS, ALLOC, LOAD, RELOC, READONLY, CODE
  9 .rodata._ZTV9Closeable 00000006  00000000  00000000  00000094  2**0
                  CONTENTS, ALLOC, LOAD, RELOC, READONLY, DATA
 10 .rodata._ZTV17SerialInputStream 00000016  00000000  00000000  0000009a  2**0
                  CONTENTS, ALLOC, LOAD, RELOC, READONLY, DATA
 11 .rodata._ZTV25SoftwareSerialInputStream 00000016  00000000  00000000  000000b0  2**0
                  CONTENTS, ALLOC, LOAD, RELOC, READONLY, DATA
 12 .comment      00000012  00000000  00000000  000000c6  2**0
                  CONTENTS, READONLY

Disassembly of section .text._ZN25SoftwareSerialInputStream9availableEv:

00000000 <_ZN25SoftwareSerialInputStream9availableEv>:
   0:	dc 01       	movw	r26, r24
   2:	12 96       	adiw	r26, 0x02	; 2
   4:	8d 91       	ld	r24, X+
   6:	9c 91       	ld	r25, X
   8:	13 97       	sbiw	r26, 0x03	; 3
   a:	dc 01       	movw	r26, r24
   c:	ed 91       	ld	r30, X+
   e:	fc 91       	ld	r31, X
  10:	04 80       	ldd	r0, Z+4	; 0x04
  12:	f5 81       	ldd	r31, Z+5	; 0x05
  14:	e0 2d       	mov	r30, r0
  16:	09 94       	ijmp

Disassembly of section .text._ZN25SoftwareSerialInputStream4readEv:

00000018 <_ZN25SoftwareSerialInputStream4readEv>:
  18:	dc 01       	movw	r26, r24
  1a:	12 96       	adiw	r26, 0x02	; 2
  1c:	8d 91       	ld	r24, X+
  1e:	9c 91       	ld	r25, X
  20:	13 97       	sbiw	r26, 0x03	; 3
  22:	dc 01       	movw	r26, r24
  24:	ed 91       	ld	r30, X+
  26:	fc 91       	ld	r31, X
  28:	06 80       	ldd	r0, Z+6	; 0x06
  2a:	f7 81       	ldd	r31, Z+7	; 0x07
  2c:	e0 2d       	mov	r30, r0
  2e:	09 94       	ijmp

Disassembly of section .text._ZN25SoftwareSerialInputStreamC2EP14SoftwareSerialj:

00000048 <_ZN25SoftwareSerialInputStreamC1EP14SoftwareSerialj>:
  48:	fc 01       	movw	r30, r24
  4a:	cb 01       	movw	r24, r22
  4c:	20 e0       	ldi	r18, 0x00	; 0
  4e:	30 e0       	ldi	r19, 0x00	; 0
  50:	31 83       	std	Z+1, r19	; 0x01
  52:	20 83       	st	Z, r18
  54:	73 83       	std	Z+3, r23	; 0x03
  56:	62 83       	std	Z+2, r22	; 0x02
  58:	60 e0       	ldi	r22, 0x00	; 0
  5a:	70 e0       	ldi	r23, 0x00	; 0
  5c:	0c 94 00 00 	jmp	0	; 0x0 <__tmp_reg__>

SerialOutputStream.o:     file format elf32-avr

Sections:
Idx Name          Size      VMA       LMA       File off  Algn
  0 .text         00000000  00000000  00000000  00000034  2**0
                  CONTENTS, ALLOC, LOAD, READONLY, CODE
  1 .data         00000000  00000000  00000000  00000034  2**0
                  CONTENTS, ALLOC, LOAD, DATA
  2 .bss          00000000  00000000  00000000  00000034  2**0
                  ALLOC
  3 .comment      00000012  00000000  00000000  00000034  2**0
                  CONTENTS, READONLY

SerialInputStream.o:     file format elf32-avr

Sections:
Idx Name          Size      VMA       LMA       File off  Algn
  0 .text         00000000  00000000  00000000  00000034  2**0
                  CONTENTS, ALLOC, LOAD, READONLY, CODE
  1 .data         00000000  00000000  00000000  00000034  2**0
                  CONTENTS, ALLOC, LOAD, DATA
  2 .bss          00000000  00000000  00000000  00000034  2**0
                  ALLOC
  3 .comment      00000012  00000000  00000000  00000034  2**0
                  CONTENTS, READONLY

SeekableInputStream.o:     file format elf32-avr

Sections:
Idx Name          Size      VMA       LMA       File off  Algn
  0 .text         00000000  00000000  00000000  00000034  2**0
                  CONTENTS, ALLOC, LOAD, READONLY, CODE
  1 .data         00000000  00000000  00000000  00000034  2**0
                  CONTENTS, ALLOC, LOAD, DATA
  2 .bss          00000000  00000000  00000000  00000034  2**0
                  ALLOC
  3 .comment      00000012  00000000  00000000  00000034  2**0
                  CONTENTS, READONLY

Seekable.o:     file format elf32-avr

Sections:
Idx Name          Size      VMA       LMA       File off  Algn
  0 .text         00000000  00000000  00000000  00000034  2**0
                  CONTENTS, ALLOC, LOAD, READONLY, CODE
  1 .data         00000000  00000000  00000000  00000034  2**0
                  CONTENTS, ALLOC, LOAD, DATA
  2 .bss          00000000  00000000  00000000  00000034  2**0
                  ALLOC
  3 .comment      00000012  00000000  00000000  00000034  2**0
                  CONTENTS, READONLY

ResourceSeekableInputStream.o:     file format elf32-avr

Sections:
Idx Name          Size      VMA       LMA       File off  Algn
  0 .text         00000000  00000000  00000000  00000034  2**0
                  CONTENTS, ALLOC, LOAD, READONLY, CODE
  1 .data         00000000  00000000  00000000  00000034  2**0
                  CONTENTS, ALLOC, LOAD, DATA
  2 .bss          00000000  00000000  00000000  00000034  2**0
                  ALLOC
  3 .comment      00000012  00000000  00000000  00000034  2**0
                  CONTENTS, READONLY

ResourceOutputStream.o:     file format elf32-avr

Sections:
Idx Name          Size      VMA       LMA       File off  Algn
  0 .text         00000000  00000000  00000000  00000034  2**0
                  CONTENTS, ALLOC, LOAD, READONLY, CODE
  1 .data         00000000  00000000  00000000  00000034  2**0
                  CONTENTS, ALLOC, LOAD, DATA
  2 .bss          00000000  00000000  00000000  00000034  2**0
                  ALLOC
  3 .comment      00000012  00000000  00000000  00000034  2**0
                  CONTENTS, READONLY

ResourceInputStream.o:     file format elf32-avr

Sections:
Idx Name          Size      VMA       LMA       File off  Algn
  0 .text         00000000  00000000  00000000  00000034  2**0
                  CONTENTS, ALLOC, LOAD, READONLY, CODE
  1 .data         00000000  00000000  00000000  00000034  2**0
                  CONTENTS, ALLOC, LOAD, DATA
  2 .bss          00000000  00000000  00000000  00000034  2**0
                  ALLOC
  3 .comment      00000012  00000000  00000000  00000034  2**0
                  CONTENTS, READONLY

RandomAccessResource.o:     file format elf32-avr

Sections:
Idx Name          Size      VMA       LMA       File off  Algn
  0 .text         00000000  00000000  00000000  00000034  2**0
                  CONTENTS, ALLOC, LOAD, READONLY, CODE
  1 .data         00000000  00000000  00000000  00000034  2**0
                  CONTENTS, ALLOC, LOAD, DATA
  2 .bss          00000000  00000000  00000000  00000034  2**0
                  ALLOC
  3 .comment      00000012  00000000  00000000  00000034  2**0
                  CONTENTS, READONLY

RandomAccessExternalEeprom.o:     file format elf32-avr

Sections:
Idx Name          Size      VMA       LMA       File off  Algn
  0 .group        00000008  00000000  00000000  00000034  2**2
                  CONTENTS, READONLY, EXCLUDE, GROUP, LINK_ONCE_DISCARD
  1 .group        00000008  00000000  00000000  0000003c  2**2
                  CONTENTS, READONLY, EXCLUDE, GROUP, LINK_ONCE_DISCARD
  2 .group        00000008  00000000  00000000  00000044  2**2
                  CONTENTS, READONLY, EXCLUDE, GROUP, LINK_ONCE_DISCARD
  3 .group        00000008  00000000  00000000  0000004c  2**2
                  CONTENTS, READONLY, EXCLUDE, GROUP, LINK_ONCE_DISCARD
  4 .group        00000008  00000000  00000000  00000054  2**2
                  CONTENTS, READONLY, EXCLUDE, GROUP, LINK_ONCE_DISCARD
  5 .group        00000010  00000000  00000000  0000005c  2**2
                  CONTENTS, READONLY, EXCLUDE, GROUP, LINK_ONCE_DISCARD
  6 .text         00000000  00000000  00000000  0000006c  2**0
                  CONTENTS, ALLOC, LOAD, READONLY, CODE
  7 .data         00000000  00000000  00000000  0000006c  2**0
                  CONTENTS, ALLOC, LOAD, DATA
  8 .bss          00000000  00000000  00000000  0000006c  2**0
                  ALLOC
  9 .text._ZN26RandomAccessExternalEeprom4seekEj 00000008  00000000  00000000  0000006c  2**0
                  CONTENTS, ALLOC, LOAD, READONLY, CODE
 10 .text._ZN26RandomAccessExternalEeprom5closeEv 00000002  00000000  00000000  00000074  2**0
                  CONTENTS, ALLOC, LOAD, READONLY, CODE
 11 .text._ZN26RandomAccessExternalEeprom5writeEPhi 0000000e  00000000  00000000  00000076  2**0
                  CONTENTS, ALLOC, LOAD, READONLY, CODE
 12 .text._ZN26RandomAccessExternalEeprom5writeEh 0000000e  00000000  00000000  00000084  2**0
                  CONTENTS, ALLOC, LOAD, READONLY, CODE
 13 .text._ZN26RandomAccessExternalEeprom9writeByteEh 00000036  00000000  00000000  00000092  2**0
                  CONTENTS, ALLOC, LOAD, READONLY, CODE
 14 .text._ZN26RandomAccessExternalEeprom10writeBytesEPhi 0000005e  00000000  00000000  000000c8  2**0
                  CONTENTS, ALLOC, LOAD, RELOC, READONLY, CODE
 15 .text._ZN26RandomAccessExternalEeprom12writeBooleanEb 00000036  00000000  00000000  00000126  2**0
                  CONTENTS, ALLOC, LOAD, READONLY, CODE
 16 .text._ZN26RandomAccessExternalEeprom9writeCharEc 00000036  00000000  00000000  0000015c  2**0
                  CONTENTS, ALLOC, LOAD, READONLY, CODE
 17 .text._ZN26RandomAccessExternalEeprom17writeUnsignedCharEh 00000036  00000000  00000000  00000192  2**0
                  CONTENTS, ALLOC, LOAD, READONLY, CODE
 18 .text._ZN26RandomAccessExternalEeprom8writeIntEi 00000050  00000000  00000000  000001c8  2**0
                  CONTENTS, ALLOC, LOAD, READONLY, CODE
 19 .text._ZN26RandomAccessExternalEeprom16writeUnsignedIntEj 0000000e  00000000  00000000  00000218  2**0
                  CONTENTS, ALLOC, LOAD, READONLY, CODE
 20 .text._ZN26RandomAccessExternalEeprom9writeWordEj 0000000e  00000000  00000000  00000226  2**0
                  CONTENTS, ALLOC, LOAD, READONLY, CODE
 21 .text._ZN26RandomAccessExternalEeprom9writeLongEl 000000c4  00000000  00000000  00000234  2**0
                  CONTENTS, ALLOC, LOAD, READONLY, CODE
 22 .text._ZN26RandomAccessExternalEeprom17writeUnsignedLongEm 0000000e  00000000  00000000  000002f8  2**0
                  CONTENTS, ALLOC, LOAD, READONLY, CODE
 23 .text._ZN26RandomAccessExternalEeprom10writeFloatEf 00000030  00000000  00000000  00000306  2**0
                  CONTENTS, ALLOC, LOAD, RELOC, READONLY, CODE
 24 .text._ZN26RandomAccessExternalEeprom11writeDoubleEd 00000030  00000000  00000000  00000336  2**0
                  CONTENTS, ALLOC, LOAD, RELOC, READONLY, CODE
 25 .text._ZN26RandomAccessExternalEeprom8readByteEv 00000038  00000000  00000000  00000366  2**0
                  CONTENTS, ALLOC, LOAD, READONLY, CODE
 26 .text._ZN26RandomAccessExternalEeprom11readBooleanEv 00000042  00000000  00000000  0000039e  2**0
                  CONTENTS, ALLOC, LOAD, RELOC, READONLY, CODE
 27 .text._ZN26RandomAccessExternalEeprom8readCharEv 00000038  00000000  00000000  000003e0  2**0
                  CONTENTS, ALLOC, LOAD, READONLY, CODE
 28 .text._ZN26RandomAccessExternalEeprom16readUnsignedCharEv 00000038  00000000  00000000  00000418  2**0
                  CONTENTS, ALLOC, LOAD, READONLY, CODE
 29 .text._ZN26RandomAccessExternalEeprom7readIntEv 00000060  00000000  00000000  00000450  2**0
                  CONTENTS, ALLOC, LOAD, READONLY, CODE
 30 .text._ZN26RandomAccessExternalEeprom15readUnsignedIntEv 0000000e  00000000  00000000  000004b0  2**0
                  CONTENTS, ALLOC, LOAD, READONLY, CODE
 31 .text._ZN26RandomAccessExternalEeprom8readWordEv 0000000e  00000000  00000000  000004be  2**0
                  CONTENTS, ALLOC, LOAD, READONLY, CODE
 32 .text._ZN26RandomAccessExternalEeprom8readLongEv 000000fa  00000000  00000000  000004cc  2**0
                  CONTENTS, ALLOC, LOAD, READONLY, CODE
 33 .text._ZN26RandomAccessExternalEeprom16readUnsignedLongEv 0000000e  00000000  00000000  000005c6  2**0
                  CONTENTS, ALLOC, LOAD, READONLY, CODE
 34 .text._ZN26RandomAccessExternalEeprom9readFloatEv 00000014  00000000  00000000  000005d4  2**0
                  CONTENTS, ALLOC, LOAD, RELOC, READONLY, CODE
 35 .text._ZN26RandomAccessExternalEeprom10readDoubleEv 00000014  00000000  00000000  000005e8  2**0
                  CONTENTS, ALLOC, LOAD, RELOC, READONLY, CODE
 36 .text._ZN26RandomAccessExternalEeprom9readFullyEPhi 0000005e  00000000  00000000  000005fc  2**0
                  CONTENTS, ALLOC, LOAD, RELOC, READONLY, CODE
 37 .text._ZN26RandomAccessExternalEeprom9skipBytesEj 0000002c  00000000  00000000  0000065a  2**0
                  CONTENTS, ALLOC, LOAD, RELOC, READONLY, CODE
 38 .text._ZN12RandomAccessC2Ev 0000006c  00000000  00000000  00000686  2**0
                  CONTENTS, ALLOC, LOAD, READONLY, CODE
 39 .text._ZN26RandomAccessExternalEepromC2EP14ExternalEeprom 0000009c  00000000  00000000  000006f2  2**0
                  CONTENTS, ALLOC, LOAD, RELOC, READONLY, CODE
 40 .text._ZN26RandomAccessExternalEepromC1EP14ExternalEeprom 00000068  00000000  00000000  0000078e  2**0
                  CONTENTS, ALLOC, LOAD, RELOC, READONLY, CODE
 41 .text._ZN26RandomAccessExternalEeprom6lengthEv 00000010  00000000  00000000  000007f6  2**0
                  CONTENTS, ALLOC, LOAD, READONLY, CODE
 42 .text._ZTv0_n6_N26RandomAccessExternalEeprom4seekEj 00000014  00000000  00000000  00000806  2**0
                  CONTENTS, ALLOC, LOAD, RELOC, READONLY, CODE
 43 .text._ZTv0_n6_N26RandomAccessExternalEeprom5closeEv 00000002  00000000  00000000  0000081a  2**0
                  CONTENTS, ALLOC, LOAD, READONLY, CODE
 44 .text._ZTv0_n6_N26RandomAccessExternalEeprom5writeEPhi 00000014  00000000  00000000  0000081c  2**0
                  CONTENTS, ALLOC, LOAD, RELOC, READONLY, CODE
 45 .text._ZTv0_n8_N26RandomAccessExternalEeprom5writeEh 00000014  00000000  00000000  00000830  2**0
                  CONTENTS, ALLOC, LOAD, RELOC, READONLY, CODE
 46 .text._ZTv0_n10_N26RandomAccessExternalEeprom9writeByteEh 00000014  00000000  00000000  00000844  2**0
                  CONTENTS, ALLOC, LOAD, RELOC, READONLY, CODE
 47 .text._ZTv0_n12_N26RandomAccessExternalEeprom10writeBytesEPhi 00000014  00000000  00000000  00000858  2**0
                  CONTENTS, ALLOC, LOAD, RELOC, READONLY, CODE
 48 .text._ZTv0_n14_N26RandomAccessExternalEeprom12writeBooleanEb 00000014  00000000  00000000  0000086c  2**0
                  CONTENTS, ALLOC, LOAD, RELOC, READONLY, CODE
 49 .text._ZTv0_n16_N26RandomAccessExternalEeprom9writeCharEc 00000014  00000000  00000000  00000880  2**0
                  CONTENTS, ALLOC, LOAD, RELOC, READONLY, CODE
 50 .text._ZTv0_n18_N26RandomAccessExternalEeprom17writeUnsignedCharEh 00000014  00000000  00000000  00000894  2**0
                  CONTENTS, ALLOC, LOAD, RELOC, READONLY, CODE
 51 .text._ZTv0_n20_N26RandomAccessExternalEeprom8writeIntEi 00000014  00000000  00000000  000008a8  2**0
                  CONTENTS, ALLOC, LOAD, RELOC, READONLY, CODE
 52 .text._ZTv0_n22_N26RandomAccessExternalEeprom16writeUnsignedIntEj 00000014  00000000  00000000  000008bc  2**0
                  CONTENTS, ALLOC, LOAD, RELOC, READONLY, CODE
 53 .text._ZTv0_n24_N26RandomAccessExternalEeprom9writeWordEj 00000014  00000000  00000000  000008d0  2**0
                  CONTENTS, ALLOC, LOAD, RELOC, READONLY, CODE
 54 .text._ZTv0_n26_N26RandomAccessExternalEeprom9writeLongEl 00000014  00000000  00000000  000008e4  2**0
                  CONTENTS, ALLOC, LOAD, RELOC, READONLY, CODE
 55 .text._ZTv0_n28_N26RandomAccessExternalEeprom17writeUnsignedLongEm 00000014  00000000  00000000  000008f8  2**0
                  CONTENTS, ALLOC, LOAD, RELOC, READONLY, CODE
 56 .text._ZTv0_n30_N26RandomAccessExternalEeprom10writeFloatEf 00000014  00000000  00000000  0000090c  2**0
                  CONTENTS, ALLOC, LOAD, RELOC, READONLY, CODE
 57 .text._ZTv0_n32_N26RandomAccessExternalEeprom11writeDoubleEd 00000014  00000000  00000000  00000920  2**0
                  CONTENTS, ALLOC, LOAD, RELOC, READONLY, CODE
 58 .text._ZTv0_n6_N26RandomAccessExternalEeprom8readByteEv 00000014  00000000  00000000  00000934  2**0
                  CONTENTS, ALLOC, LOAD, RELOC, READONLY, CODE
 59 .text._ZTv0_n8_N26RandomAccessExternalEeprom11readBooleanEv 00000014  00000000  00000000  00000948  2**0
                  CONTENTS, ALLOC, LOAD, RELOC, READONLY, CODE
 60 .text._ZTv0_n10_N26RandomAccessExternalEeprom8readCharEv 00000014  00000000  00000000  0000095c  2**0
                  CONTENTS, ALLOC, LOAD, RELOC, READONLY, CODE
 61 .text._ZTv0_n12_N26RandomAccessExternalEeprom16readUnsignedCharEv 00000014  00000000  00000000  00000970  2**0
                  CONTENTS, ALLOC, LOAD, RELOC, READONLY, CODE
 62 .text._ZTv0_n14_N26RandomAccessExternalEeprom7readIntEv 00000014  00000000  00000000  00000984  2**0
                  CONTENTS, ALLOC, LOAD, RELOC, READONLY, CODE
 63 .text._ZTv0_n16_N26RandomAccessExternalEeprom15readUnsignedIntEv 00000014  00000000  00000000  00000998  2**0
                  CONTENTS, ALLOC, LOAD, RELOC, READONLY, CODE
 64 .text._ZTv0_n18_N26RandomAccessExternalEeprom8readWordEv 00000014  00000000  00000000  000009ac  2**0
                  CONTENTS, ALLOC, LOAD, RELOC, READONLY, CODE
 65 .text._ZTv0_n20_N26RandomAccessExternalEeprom8readLongEv 00000014  00000000  00000000  000009c0  2**0
                  CONTENTS, ALLOC, LOAD, RELOC, READONLY, CODE
 66 .text._ZTv0_n22_N26RandomAccessExternalEeprom16readUnsignedLongEv 00000014  00000000  00000000  000009d4  2**0
                  CONTENTS, ALLOC, LOAD, RELOC, READONLY, CODE
 67 .text._ZTv0_n24_N26RandomAccessExternalEeprom9readFloatEv 00000014  00000000  00000000  000009e8  2**0
                  CONTENTS, ALLOC, LOAD, RELOC, READONLY, CODE
 68 .text._ZTv0_n26_N26RandomAccessExternalEeprom10readDoubleEv 00000014  00000000  00000000  000009fc  2**0
                  CONTENTS, ALLOC, LOAD, RELOC, READONLY, CODE
 69 .text._ZTv0_n28_N26RandomAccessExternalEeprom9readFullyEPhi 00000014  00000000  00000000  00000a10  2**0
                  CONTENTS, ALLOC, LOAD, RELOC, READONLY, CODE
 70 .text._ZTv0_n30_N26RandomAccessExternalEeprom9skipBytesEj 00000014  00000000  00000000  00000a24  2**0
                  CONTENTS, ALLOC, LOAD, RELOC, READONLY, CODE
 71 .rodata._ZTV10DataOutput 00000020  00000000  00000000  00000a38  2**0
                  CONTENTS, ALLOC, LOAD, RELOC, READONLY, DATA
 72 .rodata._ZTV9DataInput 0000001e  00000000  00000000  00000a58  2**0
                  CONTENTS, ALLOC, LOAD, RELOC, READONLY, DATA
 73 .rodata._ZTV9Closeable 00000006  00000000  00000000  00000a76  2**0
                  CONTENTS, ALLOC, LOAD, RELOC, READONLY, DATA
 74 .rodata._ZTV8Seekable 00000006  00000000  00000000  00000a7c  2**0
                  CONTENTS, ALLOC, LOAD, RELOC, READONLY, DATA
 75 .rodata._ZTC26RandomAccessExternalEeprom0_12RandomAccess 0000008c  00000000  00000000  00000a82  2**0
                  CONTENTS, ALLOC, LOAD, RELOC, READONLY, DATA
 76 .rodata._ZTT26RandomAccessExternalEeprom 00000014  00000000  00000000  00000b0e  2**0
                  CONTENTS, ALLOC, LOAD, RELOC, READONLY, DATA
 77 .rodata._ZTV26RandomAccessExternalEeprom 000000aa  00000000  00000000  00000b22  2**0
                  CONTENTS, ALLOC, LOAD, RELOC, READONLY, DATA
 78 .comment      00000012  00000000  00000000  00000bcc  2**0
                  CONTENTS, READONLY

Disassembly of section .text._ZN26RandomAccessExternalEeprom4seekEj:

00000000 <_ZN26RandomAccessExternalEeprom4seekEj>:
   0:	fc 01       	movw	r30, r24
   2:	75 83       	std	Z+5, r23	; 0x05
   4:	64 83       	std	Z+4, r22	; 0x04
   6:	08 95       	ret

Disassembly of section .text._ZN26RandomAccessExternalEeprom5closeEv:

00000008 <_ZN26RandomAccessExternalEeprom5closeEv>:
   8:	08 95       	ret

Disassembly of section .text._ZN26RandomAccessExternalEeprom5writeEPhi:

00000012 <_ZN26RandomAccessExternalEeprom5writeEPhi>:
  12:	dc 01       	movw	r26, r24
  14:	ed 91       	ld	r30, X+
  16:	fc 91       	ld	r31, X
  18:	06 80       	ldd	r0, Z+6	; 0x06
  1a:	f7 81       	ldd	r31, Z+7	; 0x07
  1c:	e0 2d       	mov	r30, r0
  1e:	09 94       	ijmp

Disassembly of section .text._ZN26RandomAccessExternalEeprom5writeEh:

00000032 <_ZN26RandomAccessExternalEeprom5writeEh>:
  32:	dc 01       	movw	r26, r24
  34:	ed 91       	ld	r30, X+
  36:	fc 91       	ld	r31, X
  38:	04 80       	ldd	r0, Z+4	; 0x04
  3a:	f5 81       	ldd	r31, Z+5	; 0x05
  3c:	e0 2d       	mov	r30, r0
  3e:	09 94       	ijmp

Disassembly of section .text._ZN26RandomAccessExternalEeprom9writeByteEh:

00000072 <_ZN26RandomAccessExternalEeprom9writeByteEh>:
  72:	cf 93       	push	r28
  74:	df 93       	push	r29
  76:	dc 01       	movw	r26, r24
  78:	46 2f       	mov	r20, r22
  7a:	12 96       	adiw	r26, 0x02	; 2
  7c:	8d 91       	ld	r24, X+
  7e:	9c 91       	ld	r25, X
  80:	13 97       	sbiw	r26, 0x03	; 3
  82:	ec 01       	movw	r28, r24
  84:	e8 81       	ld	r30, Y
  86:	f9 81       	ldd	r31, Y+1	; 0x01
  88:	01 90       	ld	r0, Z+
  8a:	f0 81       	ld	r31, Z
  8c:	e0 2d       	mov	r30, r0
  8e:	14 96       	adiw	r26, 0x04	; 4
  90:	6d 91       	ld	r22, X+
  92:	7c 91       	ld	r23, X
  94:	15 97       	sbiw	r26, 0x05	; 5
  96:	eb 01       	movw	r28, r22
  98:	21 96       	adiw	r28, 0x01	; 1
  9a:	15 96       	adiw	r26, 0x05	; 5
  9c:	dc 93       	st	X, r29
  9e:	ce 93       	st	-X, r28
  a0:	14 97       	sbiw	r26, 0x04	; 4
  a2:	df 91       	pop	r29
  a4:	cf 91       	pop	r28
  a6:	09 94       	ijmp

Disassembly of section .text._ZN26RandomAccessExternalEeprom10writeBytesEPhi:

0000011a <_ZN26RandomAccessExternalEeprom10writeBytesEPhi>:
 11a:	cf 92       	push	r12
 11c:	df 92       	push	r13
 11e:	ef 92       	push	r14
 120:	ff 92       	push	r15
 122:	0f 93       	push	r16
 124:	1f 93       	push	r17
 126:	cf 93       	push	r28
 128:	df 93       	push	r29
 12a:	ec 01       	movw	r28, r24
 12c:	7b 01       	movw	r14, r22
 12e:	6a 01       	movw	r12, r20
 130:	8b 01       	movw	r16, r22
 132:	c8 01       	movw	r24, r16
 134:	8e 19       	sub	r24, r14
 136:	9f 09       	sbc	r25, r15
 138:	8c 15       	cp	r24, r12
 13a:	9d 05       	cpc	r25, r13
 13c:	04 f4       	brge	.+0      	; 0x13e <_ZN26RandomAccessExternalEeprom10writeBytesEPhi+0x24>
 13e:	8a 81       	ldd	r24, Y+2	; 0x02
 140:	9b 81       	ldd	r25, Y+3	; 0x03
 142:	dc 01       	movw	r26, r24
 144:	ed 91       	ld	r30, X+
 146:	fc 91       	ld	r31, X
 148:	01 90       	ld	r0, Z+
 14a:	f0 81       	ld	r31, Z
 14c:	e0 2d       	mov	r30, r0
 14e:	d8 01       	movw	r26, r16
 150:	4d 91       	ld	r20, X+
 152:	8d 01       	movw	r16, r26
 154:	6c 81       	ldd	r22, Y+4	; 0x04
 156:	7d 81       	ldd	r23, Y+5	; 0x05
 158:	9b 01       	movw	r18, r22
 15a:	2f 5f       	subi	r18, 0xFF	; 255
 15c:	3f 4f       	sbci	r19, 0xFF	; 255
 15e:	3d 83       	std	Y+5, r19	; 0x05
 160:	2c 83       	std	Y+4, r18	; 0x04
 162:	09 95       	icall
 164:	00 c0       	rjmp	.+0      	; 0x166 <_ZN26RandomAccessExternalEeprom10writeBytesEPhi+0x4c>
 166:	df 91       	pop	r29
 168:	cf 91       	pop	r28
 16a:	1f 91       	pop	r17
 16c:	0f 91       	pop	r16
 16e:	ff 90       	pop	r15
 170:	ef 90       	pop	r14
 172:	df 90       	pop	r13
 174:	cf 90       	pop	r12
 176:	08 95       	ret

Disassembly of section .text._ZN26RandomAccessExternalEeprom12writeBooleanEb:

00000292 <_ZN26RandomAccessExternalEeprom12writeBooleanEb>:
 292:	cf 93       	push	r28
 294:	df 93       	push	r29
 296:	dc 01       	movw	r26, r24
 298:	46 2f       	mov	r20, r22
 29a:	12 96       	adiw	r26, 0x02	; 2
 29c:	8d 91       	ld	r24, X+
 29e:	9c 91       	ld	r25, X
 2a0:	13 97       	sbiw	r26, 0x03	; 3
 2a2:	ec 01       	movw	r28, r24
 2a4:	e8 81       	ld	r30, Y
 2a6:	f9 81       	ldd	r31, Y+1	; 0x01
 2a8:	01 90       	ld	r0, Z+
 2aa:	f0 81       	ld	r31, Z
 2ac:	e0 2d       	mov	r30, r0
 2ae:	14 96       	adiw	r26, 0x04	; 4
 2b0:	6d 91       	ld	r22, X+
 2b2:	7c 91       	ld	r23, X
 2b4:	15 97       	sbiw	r26, 0x05	; 5
 2b6:	eb 01       	movw	r28, r22
 2b8:	21 96       	adiw	r28, 0x01	; 1
 2ba:	15 96       	adiw	r26, 0x05	; 5
 2bc:	dc 93       	st	X, r29
 2be:	ce 93       	st	-X, r28
 2c0:	14 97       	sbiw	r26, 0x04	; 4
 2c2:	df 91       	pop	r29
 2c4:	cf 91       	pop	r28
 2c6:	09 94       	ijmp

Disassembly of section .text._ZN26RandomAccessExternalEeprom9writeCharEc:

0000055a <_ZN26RandomAccessExternalEeprom9writeCharEc>:
 55a:	cf 93       	push	r28
 55c:	df 93       	push	r29
 55e:	dc 01       	movw	r26, r24
 560:	46 2f       	mov	r20, r22
 562:	12 96       	adiw	r26, 0x02	; 2
 564:	8d 91       	ld	r24, X+
 566:	9c 91       	ld	r25, X
 568:	13 97       	sbiw	r26, 0x03	; 3
 56a:	ec 01       	movw	r28, r24
 56c:	e8 81       	ld	r30, Y
 56e:	f9 81       	ldd	r31, Y+1	; 0x01
 570:	01 90       	ld	r0, Z+
 572:	f0 81       	ld	r31, Z
 574:	e0 2d       	mov	r30, r0
 576:	14 96       	adiw	r26, 0x04	; 4
 578:	6d 91       	ld	r22, X+
 57a:	7c 91       	ld	r23, X
 57c:	15 97       	sbiw	r26, 0x05	; 5
 57e:	eb 01       	movw	r28, r22
 580:	21 96       	adiw	r28, 0x01	; 1
 582:	15 96       	adiw	r26, 0x05	; 5
 584:	dc 93       	st	X, r29
 586:	ce 93       	st	-X, r28
 588:	14 97       	sbiw	r26, 0x04	; 4
 58a:	df 91       	pop	r29
 58c:	cf 91       	pop	r28
 58e:	09 94       	ijmp

Disassembly of section .text._ZN26RandomAccessExternalEeprom17writeUnsignedCharEh:

00000aea <_ZN26RandomAccessExternalEeprom17writeUnsignedCharEh>:
 aea:	cf 93       	push	r28
 aec:	df 93       	push	r29
 aee:	dc 01       	movw	r26, r24
 af0:	46 2f       	mov	r20, r22
 af2:	12 96       	adiw	r26, 0x02	; 2
 af4:	8d 91       	ld	r24, X+
 af6:	9c 91       	ld	r25, X
 af8:	13 97       	sbiw	r26, 0x03	; 3
 afa:	ec 01       	movw	r28, r24
 afc:	e8 81       	ld	r30, Y
 afe:	f9 81       	ldd	r31, Y+1	; 0x01
 b00:	01 90       	ld	r0, Z+
 b02:	f0 81       	ld	r31, Z
 b04:	e0 2d       	mov	r30, r0
 b06:	14 96       	adiw	r26, 0x04	; 4
 b08:	6d 91       	ld	r22, X+
 b0a:	7c 91       	ld	r23, X
 b0c:	15 97       	sbiw	r26, 0x05	; 5
 b0e:	eb 01       	movw	r28, r22
 b10:	21 96       	adiw	r28, 0x01	; 1
 b12:	15 96       	adiw	r26, 0x05	; 5
 b14:	dc 93       	st	X, r29
 b16:	ce 93       	st	-X, r28
 b18:	14 97       	sbiw	r26, 0x04	; 4
 b1a:	df 91       	pop	r29
 b1c:	cf 91       	pop	r28
 b1e:	09 94       	ijmp

Disassembly of section .text._ZN26RandomAccessExternalEeprom8writeIntEi:

0000160a <_ZN26RandomAccessExternalEeprom8writeIntEi>:
    160a:	1f 93       	push	r17
    160c:	cf 93       	push	r28
    160e:	df 93       	push	r29
    1610:	ec 01       	movw	r28, r24
    1612:	16 2f       	mov	r17, r22
    1614:	47 2f       	mov	r20, r23
    1616:	8a 81       	ldd	r24, Y+2	; 0x02
    1618:	9b 81       	ldd	r25, Y+3	; 0x03
    161a:	dc 01       	movw	r26, r24
    161c:	ed 91       	ld	r30, X+
    161e:	fc 91       	ld	r31, X
    1620:	01 90       	ld	r0, Z+
    1622:	f0 81       	ld	r31, Z
    1624:	e0 2d       	mov	r30, r0
    1626:	6c 81       	ldd	r22, Y+4	; 0x04
    1628:	7d 81       	ldd	r23, Y+5	; 0x05
    162a:	db 01       	movw	r26, r22
    162c:	11 96       	adiw	r26, 0x01	; 1
    162e:	bd 83       	std	Y+5, r27	; 0x05
    1630:	ac 83       	std	Y+4, r26	; 0x04
    1632:	09 95       	icall
    1634:	8a 81       	ldd	r24, Y+2	; 0x02
    1636:	9b 81       	ldd	r25, Y+3	; 0x03
    1638:	dc 01       	movw	r26, r24
    163a:	ed 91       	ld	r30, X+
    163c:	fc 91       	ld	r31, X
    163e:	01 90       	ld	r0, Z+
    1640:	f0 81       	ld	r31, Z
    1642:	e0 2d       	mov	r30, r0
    1644:	6c 81       	ldd	r22, Y+4	; 0x04
    1646:	7d 81       	ldd	r23, Y+5	; 0x05
    1648:	db 01       	movw	r26, r22
    164a:	11 96       	adiw	r26, 0x01	; 1
    164c:	bd 83       	std	Y+5, r27	; 0x05
    164e:	ac 83       	std	Y+4, r26	; 0x04
    1650:	41 2f       	mov	r20, r17
    1652:	df 91       	pop	r29
    1654:	cf 91       	pop	r28
    1656:	1f 91       	pop	r17
    1658:	09 94       	ijmp

Disassembly of section .text._ZN26RandomAccessExternalEeprom16writeUnsignedIntEj:

00002c64 <_ZN26RandomAccessExternalEeprom16writeUnsignedIntEj>:
    2c64:	dc 01       	movw	r26, r24
    2c66:	ed 91       	ld	r30, X+
    2c68:	fc 91       	ld	r31, X
    2c6a:	06 84       	ldd	r0, Z+14	; 0x0e
    2c6c:	f7 85       	ldd	r31, Z+15	; 0x0f
    2c6e:	e0 2d       	mov	r30, r0
    2c70:	09 94       	ijmp

Disassembly of section .text._ZN26RandomAccessExternalEeprom9writeWordEj:

000058d6 <_ZN26RandomAccessExternalEeprom9writeWordEj>:
    58d6:	dc 01       	movw	r26, r24
    58d8:	ed 91       	ld	r30, X+
    58da:	fc 91       	ld	r31, X
    58dc:	06 84       	ldd	r0, Z+14	; 0x0e
    58de:	f7 85       	ldd	r31, Z+15	; 0x0f
    58e0:	e0 2d       	mov	r30, r0
    58e2:	09 94       	ijmp

Disassembly of section .text._ZN26RandomAccessExternalEeprom9writeLongEl:

0000b1ba <_ZN26RandomAccessExternalEeprom9writeLongEl>:
    b1ba:	cf 92       	push	r12
    b1bc:	df 92       	push	r13
    b1be:	ef 92       	push	r14
    b1c0:	ff 92       	push	r15
    b1c2:	cf 93       	push	r28
    b1c4:	df 93       	push	r29
    b1c6:	ec 01       	movw	r28, r24
    b1c8:	6a 01       	movw	r12, r20
    b1ca:	7b 01       	movw	r14, r22
    b1cc:	8a 81       	ldd	r24, Y+2	; 0x02
    b1ce:	9b 81       	ldd	r25, Y+3	; 0x03
    b1d0:	dc 01       	movw	r26, r24
    b1d2:	ed 91       	ld	r30, X+
    b1d4:	fc 91       	ld	r31, X
    b1d6:	01 90       	ld	r0, Z+
    b1d8:	f0 81       	ld	r31, Z
    b1da:	e0 2d       	mov	r30, r0
    b1dc:	2c 81       	ldd	r18, Y+4	; 0x04
    b1de:	3d 81       	ldd	r19, Y+5	; 0x05
    b1e0:	a9 01       	movw	r20, r18
    b1e2:	4f 5f       	subi	r20, 0xFF	; 255
    b1e4:	5f 4f       	sbci	r21, 0xFF	; 255
    b1e6:	5d 83       	std	Y+5, r21	; 0x05
    b1e8:	4c 83       	std	Y+4, r20	; 0x04
    b1ea:	4f 2d       	mov	r20, r15
    b1ec:	55 27       	eor	r21, r21
    b1ee:	66 27       	eor	r22, r22
    b1f0:	77 27       	eor	r23, r23
    b1f2:	b9 01       	movw	r22, r18
    b1f4:	09 95       	icall
    b1f6:	8a 81       	ldd	r24, Y+2	; 0x02
    b1f8:	9b 81       	ldd	r25, Y+3	; 0x03
    b1fa:	dc 01       	movw	r26, r24
    b1fc:	ed 91       	ld	r30, X+
    b1fe:	fc 91       	ld	r31, X
    b200:	01 90       	ld	r0, Z+
    b202:	f0 81       	ld	r31, Z
    b204:	e0 2d       	mov	r30, r0
    b206:	2c 81       	ldd	r18, Y+4	; 0x04
    b208:	3d 81       	ldd	r19, Y+5	; 0x05
    b20a:	a9 01       	movw	r20, r18
    b20c:	4f 5f       	subi	r20, 0xFF	; 255
    b20e:	5f 4f       	sbci	r21, 0xFF	; 255
    b210:	5d 83       	std	Y+5, r21	; 0x05
    b212:	4c 83       	std	Y+4, r20	; 0x04
    b214:	a7 01       	movw	r20, r14
    b216:	77 27       	eor	r23, r23
    b218:	57 fd       	sbrc	r21, 7
    b21a:	70 95       	com	r23
    b21c:	67 2f       	mov	r22, r23
    b21e:	b9 01       	movw	r22, r18
    b220:	09 95       	icall
    b222:	8a 81       	ldd	r24, Y+2	; 0x02
    b224:	9b 81       	ldd	r25, Y+3	; 0x03
    b226:	dc 01       	movw	r26, r24
    b228:	ed 91       	ld	r30, X+
    b22a:	fc 91       	ld	r31, X
    b22c:	01 90       	ld	r0, Z+
    b22e:	f0 81       	ld	r31, Z
    b230:	e0 2d       	mov	r30, r0
    b232:	2c 81       	ldd	r18, Y+4	; 0x04
    b234:	3d 81       	ldd	r19, Y+5	; 0x05
    b236:	a9 01       	movw	r20, r18
    b238:	4f 5f       	subi	r20, 0xFF	; 255
    b23a:	5f 4f       	sbci	r21, 0xFF	; 255
    b23c:	5d 83       	std	Y+5, r21	; 0x05
    b23e:	4c 83       	std	Y+4, r20	; 0x04
    b240:	77 27       	eor	r23, r23
    b242:	f7 fc       	sbrc	r15, 7
    b244:	7a 95       	dec	r23
    b246:	6f 2d       	mov	r22, r15
    b248:	5e 2d       	mov	r21, r14
    b24a:	4d 2d       	mov	r20, r13
    b24c:	b9 01       	movw	r22, r18
    b24e:	09 95       	icall
    b250:	8a 81       	ldd	r24, Y+2	; 0x02
    b252:	9b 81       	ldd	r25, Y+3	; 0x03
    b254:	dc 01       	movw	r26, r24
    b256:	ed 91       	ld	r30, X+
    b258:	fc 91       	ld	r31, X
    b25a:	01 90       	ld	r0, Z+
    b25c:	f0 81       	ld	r31, Z
    b25e:	e0 2d       	mov	r30, r0
    b260:	6c 81       	ldd	r22, Y+4	; 0x04
    b262:	7d 81       	ldd	r23, Y+5	; 0x05
    b264:	9b 01       	movw	r18, r22
    b266:	2f 5f       	subi	r18, 0xFF	; 255
    b268:	3f 4f       	sbci	r19, 0xFF	; 255
    b26a:	3d 83       	std	Y+5, r19	; 0x05
    b26c:	2c 83       	std	Y+4, r18	; 0x04
    b26e:	4c 2d       	mov	r20, r12
    b270:	df 91       	pop	r29
    b272:	cf 91       	pop	r28
    b274:	ff 90       	pop	r15
    b276:	ef 90       	pop	r14
    b278:	df 90       	pop	r13
    b27a:	cf 90       	pop	r12
    b27c:	09 94       	ijmp

Disassembly of section .text._ZN26RandomAccessExternalEeprom17writeUnsignedLongEm:

00016438 <_ZN26RandomAccessExternalEeprom17writeUnsignedLongEm>:
   16438:	dc 01       	movw	r26, r24
   1643a:	ed 91       	ld	r30, X+
   1643c:	fc 91       	ld	r31, X
   1643e:	04 88       	ldd	r0, Z+20	; 0x14
   16440:	f5 89       	ldd	r31, Z+21	; 0x15
   16442:	e0 2d       	mov	r30, r0
   16444:	09 94       	ijmp

Disassembly of section .text._ZN26RandomAccessExternalEeprom10writeFloatEf:

0002c87e <_ZN26RandomAccessExternalEeprom10writeFloatEf>:
   2c87e:	0f 93       	push	r16
   2c880:	1f 93       	push	r17
   2c882:	cf 93       	push	r28
   2c884:	df 93       	push	r29
   2c886:	ec 01       	movw	r28, r24
   2c888:	08 81       	ld	r16, Y
   2c88a:	19 81       	ldd	r17, Y+1	; 0x01
   2c88c:	cb 01       	movw	r24, r22
   2c88e:	ba 01       	movw	r22, r20
   2c890:	0e 94 00 00 	call	0	; 0x0 <__tmp_reg__>
   2c894:	ab 01       	movw	r20, r22
   2c896:	bc 01       	movw	r22, r24
   2c898:	d8 01       	movw	r26, r16
   2c89a:	54 96       	adiw	r26, 0x14	; 20
   2c89c:	ed 91       	ld	r30, X+
   2c89e:	fc 91       	ld	r31, X
   2c8a0:	55 97       	sbiw	r26, 0x15	; 21
   2c8a2:	ce 01       	movw	r24, r28
   2c8a4:	df 91       	pop	r29
   2c8a6:	cf 91       	pop	r28
   2c8a8:	1f 91       	pop	r17
   2c8aa:	0f 91       	pop	r16
   2c8ac:	09 94       	ijmp

Disassembly of section .text._ZN26RandomAccessExternalEeprom11writeDoubleEd:

0005912c <_ZN26RandomAccessExternalEeprom11writeDoubleEd>:
   5912c:	0f 93       	push	r16
   5912e:	1f 93       	push	r17
   59130:	cf 93       	push	r28
   59132:	df 93       	push	r29
   59134:	ec 01       	movw	r28, r24
   59136:	08 81       	ld	r16, Y
   59138:	19 81       	ldd	r17, Y+1	; 0x01
   5913a:	cb 01       	movw	r24, r22
   5913c:	ba 01       	movw	r22, r20
   5913e:	0e 94 00 00 	call	0	; 0x0 <__tmp_reg__>
   59142:	ab 01       	movw	r20, r22
   59144:	bc 01       	movw	r22, r24
   59146:	d8 01       	movw	r26, r16
   59148:	54 96       	adiw	r26, 0x14	; 20
   5914a:	ed 91       	ld	r30, X+
   5914c:	fc 91       	ld	r31, X
   5914e:	55 97       	sbiw	r26, 0x15	; 21
   59150:	ce 01       	movw	r24, r28
   59152:	df 91       	pop	r29
   59154:	cf 91       	pop	r28
   59156:	1f 91       	pop	r17
   59158:	0f 91       	pop	r16
   5915a:	09 94       	ijmp

Disassembly of section .text._ZN26RandomAccessExternalEeprom8readByteEv:

000b2288 <_ZN26RandomAccessExternalEeprom8readByteEv>:
   b2288:	cf 93       	push	r28
   b228a:	df 93       	push	r29
   b228c:	dc 01       	movw	r26, r24
   b228e:	12 96       	adiw	r26, 0x02	; 2
   b2290:	8d 91       	ld	r24, X+
   b2292:	9c 91       	ld	r25, X
   b2294:	13 97       	sbiw	r26, 0x03	; 3
   b2296:	ec 01       	movw	r28, r24
   b2298:	e8 81       	ld	r30, Y
   b229a:	f9 81       	ldd	r31, Y+1	; 0x01
   b229c:	04 80       	ldd	r0, Z+4	; 0x04
   b229e:	f5 81       	ldd	r31, Z+5	; 0x05
   b22a0:	e0 2d       	mov	r30, r0
   b22a2:	14 96       	adiw	r26, 0x04	; 4
   b22a4:	6d 91       	ld	r22, X+
   b22a6:	7c 91       	ld	r23, X
   b22a8:	15 97       	sbiw	r26, 0x05	; 5
   b22aa:	9b 01       	movw	r18, r22
   b22ac:	2f 5f       	subi	r18, 0xFF	; 255
   b22ae:	3f 4f       	sbci	r19, 0xFF	; 255
   b22b0:	15 96       	adiw	r26, 0x05	; 5
   b22b2:	3c 93       	st	X, r19
   b22b4:	2e 93       	st	-X, r18
   b22b6:	14 97       	sbiw	r26, 0x04	; 4
   b22b8:	09 95       	icall
   b22ba:	df 91       	pop	r29
   b22bc:	cf 91       	pop	r28
   b22be:	08 95       	ret

Disassembly of section .text._ZN26RandomAccessExternalEeprom11readBooleanEv:

00164548 <_ZN26RandomAccessExternalEeprom11readBooleanEv>:
  164548:	cf 93       	push	r28
  16454a:	df 93       	push	r29
  16454c:	dc 01       	movw	r26, r24
  16454e:	12 96       	adiw	r26, 0x02	; 2
  164550:	8d 91       	ld	r24, X+
  164552:	9c 91       	ld	r25, X
  164554:	13 97       	sbiw	r26, 0x03	; 3
  164556:	ec 01       	movw	r28, r24
  164558:	e8 81       	ld	r30, Y
  16455a:	f9 81       	ldd	r31, Y+1	; 0x01
  16455c:	04 80       	ldd	r0, Z+4	; 0x04
  16455e:	f5 81       	ldd	r31, Z+5	; 0x05
  164560:	e0 2d       	mov	r30, r0
  164562:	14 96       	adiw	r26, 0x04	; 4
  164564:	6d 91       	ld	r22, X+
  164566:	7c 91       	ld	r23, X
  164568:	15 97       	sbiw	r26, 0x05	; 5
  16456a:	9b 01       	movw	r18, r22
  16456c:	2f 5f       	subi	r18, 0xFF	; 255
  16456e:	3f 4f       	sbci	r19, 0xFF	; 255
  164570:	15 96       	adiw	r26, 0x05	; 5
  164572:	3c 93       	st	X, r19
  164574:	2e 93       	st	-X, r18
  164576:	14 97       	sbiw	r26, 0x04	; 4
  164578:	09 95       	icall
  16457a:	21 e0       	ldi	r18, 0x01	; 1
  16457c:	89 2b       	or	r24, r25
  16457e:	01 f4       	brne	.+0      	; 0x164580 <_ZN26RandomAccessExternalEeprom11readBooleanEv+0x38>
  164580:	20 e0       	ldi	r18, 0x00	; 0
  164582:	82 2f       	mov	r24, r18
  164584:	df 91       	pop	r29
  164586:	cf 91       	pop	r28
  164588:	08 95       	ret

Disassembly of section .text._ZN26RandomAccessExternalEeprom8readCharEv:

002c8ad2 <_ZN26RandomAccessExternalEeprom8readCharEv>:
  2c8ad2:	cf 93       	push	r28
  2c8ad4:	df 93       	push	r29
  2c8ad6:	dc 01       	movw	r26, r24
  2c8ad8:	12 96       	adiw	r26, 0x02	; 2
  2c8ada:	8d 91       	ld	r24, X+
  2c8adc:	9c 91       	ld	r25, X
  2c8ade:	13 97       	sbiw	r26, 0x03	; 3
  2c8ae0:	ec 01       	movw	r28, r24
  2c8ae2:	e8 81       	ld	r30, Y
  2c8ae4:	f9 81       	ldd	r31, Y+1	; 0x01
  2c8ae6:	04 80       	ldd	r0, Z+4	; 0x04
  2c8ae8:	f5 81       	ldd	r31, Z+5	; 0x05
  2c8aea:	e0 2d       	mov	r30, r0
  2c8aec:	14 96       	adiw	r26, 0x04	; 4
  2c8aee:	6d 91       	ld	r22, X+
  2c8af0:	7c 91       	ld	r23, X
  2c8af2:	15 97       	sbiw	r26, 0x05	; 5
  2c8af4:	9b 01       	movw	r18, r22
  2c8af6:	2f 5f       	subi	r18, 0xFF	; 255
  2c8af8:	3f 4f       	sbci	r19, 0xFF	; 255
  2c8afa:	15 96       	adiw	r26, 0x05	; 5
  2c8afc:	3c 93       	st	X, r19
  2c8afe:	2e 93       	st	-X, r18
  2c8b00:	14 97       	sbiw	r26, 0x04	; 4
  2c8b02:	09 95       	icall
  2c8b04:	df 91       	pop	r29
  2c8b06:	cf 91       	pop	r28
  2c8b08:	08 95       	ret

Disassembly of section .text._ZN26RandomAccessExternalEeprom16readUnsignedCharEv:

005915dc <_ZN26RandomAccessExternalEeprom16readUnsignedCharEv>:
  5915dc:	cf 93       	push	r28
  5915de:	df 93       	push	r29
  5915e0:	dc 01       	movw	r26, r24
  5915e2:	12 96       	adiw	r26, 0x02	; 2
  5915e4:	8d 91       	ld	r24, X+
  5915e6:	9c 91       	ld	r25, X
  5915e8:	13 97       	sbiw	r26, 0x03	; 3
  5915ea:	ec 01       	movw	r28, r24
  5915ec:	e8 81       	ld	r30, Y
  5915ee:	f9 81       	ldd	r31, Y+1	; 0x01
  5915f0:	04 80       	ldd	r0, Z+4	; 0x04
  5915f2:	f5 81       	ldd	r31, Z+5	; 0x05
  5915f4:	e0 2d       	mov	r30, r0
  5915f6:	14 96       	adiw	r26, 0x04	; 4
  5915f8:	6d 91       	ld	r22, X+
  5915fa:	7c 91       	ld	r23, X
  5915fc:	15 97       	sbiw	r26, 0x05	; 5
  5915fe:	9b 01       	movw	r18, r22
  591600:	2f 5f       	subi	r18, 0xFF	; 255
  591602:	3f 4f       	sbci	r19, 0xFF	; 255
  591604:	15 96       	adiw	r26, 0x05	; 5
  591606:	3c 93       	st	X, r19
  591608:	2e 93       	st	-X, r18
  59160a:	14 97       	sbiw	r26, 0x04	; 4
  59160c:	09 95       	icall
  59160e:	df 91       	pop	r29
  591610:	cf 91       	pop	r28
  591612:	08 95       	ret

Disassembly of section .text._ZN26RandomAccessExternalEeprom7readIntEv:

00b22bf0 <_ZN26RandomAccessExternalEeprom7readIntEv>:
  b22bf0:	0f 93       	push	r16
  b22bf2:	1f 93       	push	r17
  b22bf4:	cf 93       	push	r28
  b22bf6:	df 93       	push	r29
  b22bf8:	ec 01       	movw	r28, r24
  b22bfa:	8a 81       	ldd	r24, Y+2	; 0x02
  b22bfc:	9b 81       	ldd	r25, Y+3	; 0x03
  b22bfe:	dc 01       	movw	r26, r24
  b22c00:	ed 91       	ld	r30, X+
  b22c02:	fc 91       	ld	r31, X
  b22c04:	04 80       	ldd	r0, Z+4	; 0x04
  b22c06:	f5 81       	ldd	r31, Z+5	; 0x05
  b22c08:	e0 2d       	mov	r30, r0
  b22c0a:	6c 81       	ldd	r22, Y+4	; 0x04
  b22c0c:	7d 81       	ldd	r23, Y+5	; 0x05
  b22c0e:	9b 01       	movw	r18, r22
  b22c10:	2f 5f       	subi	r18, 0xFF	; 255
  b22c12:	3f 4f       	sbci	r19, 0xFF	; 255
  b22c14:	3d 83       	std	Y+5, r19	; 0x05
  b22c16:	2c 83       	std	Y+4, r18	; 0x04
  b22c18:	09 95       	icall
  b22c1a:	00 e0       	ldi	r16, 0x00	; 0
  b22c1c:	10 e0       	ldi	r17, 0x00	; 0
  b22c1e:	18 2f       	mov	r17, r24
  b22c20:	8a 81       	ldd	r24, Y+2	; 0x02
  b22c22:	9b 81       	ldd	r25, Y+3	; 0x03
  b22c24:	dc 01       	movw	r26, r24
  b22c26:	ed 91       	ld	r30, X+
  b22c28:	fc 91       	ld	r31, X
  b22c2a:	04 80       	ldd	r0, Z+4	; 0x04
  b22c2c:	f5 81       	ldd	r31, Z+5	; 0x05
  b22c2e:	e0 2d       	mov	r30, r0
  b22c30:	6c 81       	ldd	r22, Y+4	; 0x04
  b22c32:	7d 81       	ldd	r23, Y+5	; 0x05
  b22c34:	9b 01       	movw	r18, r22
  b22c36:	2f 5f       	subi	r18, 0xFF	; 255
  b22c38:	3f 4f       	sbci	r19, 0xFF	; 255
  b22c3a:	3d 83       	std	Y+5, r19	; 0x05
  b22c3c:	2c 83       	std	Y+4, r18	; 0x04
  b22c3e:	09 95       	icall
  b22c40:	98 01       	movw	r18, r16
  b22c42:	28 2b       	or	r18, r24
  b22c44:	c9 01       	movw	r24, r18
  b22c46:	df 91       	pop	r29
  b22c48:	cf 91       	pop	r28
  b22c4a:	1f 91       	pop	r17
  b22c4c:	0f 91       	pop	r16
  b22c4e:	08 95       	ret

Disassembly of section .text._ZN26RandomAccessExternalEeprom15readUnsignedIntEv:

01645840 <_ZN26RandomAccessExternalEeprom15readUnsignedIntEv>:
 1645840:	dc 01       	movw	r26, r24
 1645842:	ed 91       	ld	r30, X+
 1645844:	fc 91       	ld	r31, X
 1645846:	00 a4       	ldd	r0, Z+40	; 0x28
 1645848:	f1 a5       	ldd	r31, Z+41	; 0x29
 164584a:	e0 2d       	mov	r30, r0
 164584c:	09 94       	ijmp

Disassembly of section .text._ZN26RandomAccessExternalEeprom8readWordEv:

02c8b08e <_ZN26RandomAccessExternalEeprom8readWordEv>:
 2c8b08e:	dc 01       	movw	r26, r24
 2c8b090:	ed 91       	ld	r30, X+
 2c8b092:	fc 91       	ld	r31, X
 2c8b094:	00 a4       	ldd	r0, Z+40	; 0x28
 2c8b096:	f1 a5       	ldd	r31, Z+41	; 0x29
 2c8b098:	e0 2d       	mov	r30, r0
 2c8b09a:	09 94       	ijmp

Disassembly of section .text._ZN26RandomAccessExternalEeprom8readLongEv:

0591612a <_ZN26RandomAccessExternalEeprom8readLongEv>:
 591612a:	cf 92       	push	r12
 591612c:	df 92       	push	r13
 591612e:	ef 92       	push	r14
 5916130:	ff 92       	push	r15
 5916132:	cf 93       	push	r28
 5916134:	df 93       	push	r29
 5916136:	ec 01       	movw	r28, r24
 5916138:	8a 81       	ldd	r24, Y+2	; 0x02
 591613a:	9b 81       	ldd	r25, Y+3	; 0x03
 591613c:	dc 01       	movw	r26, r24
 591613e:	ed 91       	ld	r30, X+
 5916140:	fc 91       	ld	r31, X
 5916142:	04 80       	ldd	r0, Z+4	; 0x04
 5916144:	f5 81       	ldd	r31, Z+5	; 0x05
 5916146:	e0 2d       	mov	r30, r0
 5916148:	6c 81       	ldd	r22, Y+4	; 0x04
 591614a:	7d 81       	ldd	r23, Y+5	; 0x05
 591614c:	9b 01       	movw	r18, r22
 591614e:	2f 5f       	subi	r18, 0xFF	; 255
 5916150:	3f 4f       	sbci	r19, 0xFF	; 255
 5916152:	3d 83       	std	Y+5, r19	; 0x05
 5916154:	2c 83       	std	Y+4, r18	; 0x04
 5916156:	09 95       	icall
 5916158:	6c 01       	movw	r12, r24
 591615a:	ee 24       	eor	r14, r14
 591615c:	d7 fc       	sbrc	r13, 7
 591615e:	e0 94       	com	r14
 5916160:	fe 2c       	mov	r15, r14
 5916162:	fe 2c       	mov	r15, r14
 5916164:	ed 2c       	mov	r14, r13
 5916166:	dc 2c       	mov	r13, r12
 5916168:	cc 24       	eor	r12, r12
 591616a:	8a 81       	ldd	r24, Y+2	; 0x02
 591616c:	9b 81       	ldd	r25, Y+3	; 0x03
 591616e:	dc 01       	movw	r26, r24
 5916170:	ed 91       	ld	r30, X+
 5916172:	fc 91       	ld	r31, X
 5916174:	04 80       	ldd	r0, Z+4	; 0x04
 5916176:	f5 81       	ldd	r31, Z+5	; 0x05
 5916178:	e0 2d       	mov	r30, r0
 591617a:	6c 81       	ldd	r22, Y+4	; 0x04
 591617c:	7d 81       	ldd	r23, Y+5	; 0x05
 591617e:	9b 01       	movw	r18, r22
 5916180:	2f 5f       	subi	r18, 0xFF	; 255
 5916182:	3f 4f       	sbci	r19, 0xFF	; 255
 5916184:	3d 83       	std	Y+5, r19	; 0x05
 5916186:	2c 83       	std	Y+4, r18	; 0x04
 5916188:	09 95       	icall
 591618a:	99 27       	eor	r25, r25
 591618c:	ac 01       	movw	r20, r24
 591618e:	66 27       	eor	r22, r22
 5916190:	57 fd       	sbrc	r21, 7
 5916192:	60 95       	com	r22
 5916194:	76 2f       	mov	r23, r22
 5916196:	4c 29       	or	r20, r12
 5916198:	5d 29       	or	r21, r13
 591619a:	6e 29       	or	r22, r14
 591619c:	7f 29       	or	r23, r15
 591619e:	cc 24       	eor	r12, r12
 59161a0:	d4 2e       	mov	r13, r20
 59161a2:	e5 2e       	mov	r14, r21
 59161a4:	f6 2e       	mov	r15, r22
 59161a6:	8a 81       	ldd	r24, Y+2	; 0x02
 59161a8:	9b 81       	ldd	r25, Y+3	; 0x03
 59161aa:	dc 01       	movw	r26, r24
 59161ac:	ed 91       	ld	r30, X+
 59161ae:	fc 91       	ld	r31, X
 59161b0:	04 80       	ldd	r0, Z+4	; 0x04
 59161b2:	f5 81       	ldd	r31, Z+5	; 0x05
 59161b4:	e0 2d       	mov	r30, r0
 59161b6:	6c 81       	ldd	r22, Y+4	; 0x04
 59161b8:	7d 81       	ldd	r23, Y+5	; 0x05
 59161ba:	9b 01       	movw	r18, r22
 59161bc:	2f 5f       	subi	r18, 0xFF	; 255
 59161be:	3f 4f       	sbci	r19, 0xFF	; 255
 59161c0:	3d 83       	std	Y+5, r19	; 0x05
 59161c2:	2c 83       	std	Y+4, r18	; 0x04
 59161c4:	09 95       	icall
 59161c6:	99 27       	eor	r25, r25
 59161c8:	ac 01       	movw	r20, r24
 59161ca:	66 27       	eor	r22, r22
 59161cc:	57 fd       	sbrc	r21, 7
 59161ce:	60 95       	com	r22
 59161d0:	76 2f       	mov	r23, r22
 59161d2:	4c 29       	or	r20, r12
 59161d4:	5d 29       	or	r21, r13
 59161d6:	6e 29       	or	r22, r14
 59161d8:	7f 29       	or	r23, r15
 59161da:	cc 24       	eor	r12, r12
 59161dc:	d4 2e       	mov	r13, r20
 59161de:	e5 2e       	mov	r14, r21
 59161e0:	f6 2e       	mov	r15, r22
 59161e2:	8a 81       	ldd	r24, Y+2	; 0x02
 59161e4:	9b 81       	ldd	r25, Y+3	; 0x03
 59161e6:	dc 01       	movw	r26, r24
 59161e8:	ed 91       	ld	r30, X+
 59161ea:	fc 91       	ld	r31, X
 59161ec:	04 80       	ldd	r0, Z+4	; 0x04
 59161ee:	f5 81       	ldd	r31, Z+5	; 0x05
 59161f0:	e0 2d       	mov	r30, r0
 59161f2:	6c 81       	ldd	r22, Y+4	; 0x04
 59161f4:	7d 81       	ldd	r23, Y+5	; 0x05
 59161f6:	9b 01       	movw	r18, r22
 59161f8:	2f 5f       	subi	r18, 0xFF	; 255
 59161fa:	3f 4f       	sbci	r19, 0xFF	; 255
 59161fc:	3d 83       	std	Y+5, r19	; 0x05
 59161fe:	2c 83       	std	Y+4, r18	; 0x04
 5916200:	09 95       	icall
 5916202:	99 27       	eor	r25, r25
 5916204:	bc 01       	movw	r22, r24
 5916206:	88 27       	eor	r24, r24
 5916208:	77 fd       	sbrc	r23, 7
 591620a:	80 95       	com	r24
 591620c:	98 2f       	mov	r25, r24
 591620e:	6c 29       	or	r22, r12
 5916210:	7d 29       	or	r23, r13
 5916212:	8e 29       	or	r24, r14
 5916214:	9f 29       	or	r25, r15
 5916216:	df 91       	pop	r29
 5916218:	cf 91       	pop	r28
 591621a:	ff 90       	pop	r15
 591621c:	ef 90       	pop	r14
 591621e:	df 90       	pop	r13
 5916220:	cf 90       	pop	r12
 5916222:	08 95       	ret

Disassembly of section .text._ZN26RandomAccessExternalEeprom16readUnsignedLongEv:

0b22c34e <_ZN26RandomAccessExternalEeprom16readUnsignedLongEv>:
 b22c34e:	dc 01       	movw	r26, r24
 b22c350:	ed 91       	ld	r30, X+
 b22c352:	fc 91       	ld	r31, X
 b22c354:	06 a4       	ldd	r0, Z+46	; 0x2e
 b22c356:	f7 a5       	ldd	r31, Z+47	; 0x2f
 b22c358:	e0 2d       	mov	r30, r0
 b22c35a:	09 94       	ijmp

Disassembly of section .text._ZN26RandomAccessExternalEeprom9readFloatEv:

164586aa <_ZN26RandomAccessExternalEeprom9readFloatEv>:
164586aa:	dc 01       	movw	r26, r24
164586ac:	ed 91       	ld	r30, X+
164586ae:	fc 91       	ld	r31, X
164586b0:	06 a4       	ldd	r0, Z+46	; 0x2e
164586b2:	f7 a5       	ldd	r31, Z+47	; 0x2f
164586b4:	e0 2d       	mov	r30, r0
164586b6:	09 95       	icall
164586b8:	0e 94 00 00 	call	0	; 0x0 <__tmp_reg__>
164586bc:	08 95       	ret

Disassembly of section .text._ZN26RandomAccessExternalEeprom10readDoubleEv:

2c8b0d68 <_ZN26RandomAccessExternalEeprom10readDoubleEv>:
2c8b0d68:	dc 01       	movw	r26, r24
2c8b0d6a:	ed 91       	ld	r30, X+
2c8b0d6c:	fc 91       	ld	r31, X
2c8b0d6e:	06 a4       	ldd	r0, Z+46	; 0x2e
2c8b0d70:	f7 a5       	ldd	r31, Z+47	; 0x2f
2c8b0d72:	e0 2d       	mov	r30, r0
2c8b0d74:	09 95       	icall
2c8b0d76:	0e 94 00 00 	call	0	; 0x0 <__tmp_reg__>
2c8b0d7a:	08 95       	ret

Disassembly of section .text._ZN26RandomAccessExternalEeprom9readFullyEPhi:

59161ae4 <_ZN26RandomAccessExternalEeprom9readFullyEPhi>:
59161ae4:	cf 92       	push	r12
59161ae6:	df 92       	push	r13
59161ae8:	ef 92       	push	r14
59161aea:	ff 92       	push	r15
59161aec:	0f 93       	push	r16
59161aee:	1f 93       	push	r17
59161af0:	cf 93       	push	r28
59161af2:	df 93       	push	r29
59161af4:	ec 01       	movw	r28, r24
59161af6:	7b 01       	movw	r14, r22
59161af8:	6a 01       	movw	r12, r20
59161afa:	8b 01       	movw	r16, r22
59161afc:	c8 01       	movw	r24, r16
59161afe:	8e 19       	sub	r24, r14
59161b00:	9f 09       	sbc	r25, r15
59161b02:	8c 15       	cp	r24, r12
59161b04:	9d 05       	cpc	r25, r13
59161b06:	04 f4       	brge	.+0      	; 0x59161b08 <_ZN26RandomAccessExternalEeprom9readFullyEPhi+0x24>
59161b08:	8a 81       	ldd	r24, Y+2	; 0x02
59161b0a:	9b 81       	ldd	r25, Y+3	; 0x03
59161b0c:	dc 01       	movw	r26, r24
59161b0e:	ed 91       	ld	r30, X+
59161b10:	fc 91       	ld	r31, X
59161b12:	04 80       	ldd	r0, Z+4	; 0x04
59161b14:	f5 81       	ldd	r31, Z+5	; 0x05
59161b16:	e0 2d       	mov	r30, r0
59161b18:	6c 81       	ldd	r22, Y+4	; 0x04
59161b1a:	7d 81       	ldd	r23, Y+5	; 0x05
59161b1c:	9b 01       	movw	r18, r22
59161b1e:	2f 5f       	subi	r18, 0xFF	; 255
59161b20:	3f 4f       	sbci	r19, 0xFF	; 255
59161b22:	3d 83       	std	Y+5, r19	; 0x05
59161b24:	2c 83       	std	Y+4, r18	; 0x04
59161b26:	09 95       	icall
59161b28:	f8 01       	movw	r30, r16
59161b2a:	81 93       	st	Z+, r24
59161b2c:	8f 01       	movw	r16, r30
59161b2e:	00 c0       	rjmp	.+0      	; 0x59161b30 <_ZN26RandomAccessExternalEeprom9readFullyEPhi+0x4c>
59161b30:	df 91       	pop	r29
59161b32:	cf 91       	pop	r28
59161b34:	1f 91       	pop	r17
59161b36:	0f 91       	pop	r16
59161b38:	ff 90       	pop	r15
59161b3a:	ef 90       	pop	r14
59161b3c:	df 90       	pop	r13
59161b3e:	cf 90       	pop	r12
59161b40:	08 95       	ret

Disassembly of section .text._ZN26RandomAccessExternalEeprom9skipBytesEj:

b22c3626 <_ZN26RandomAccessExternalEeprom9skipBytesEj>:
b22c3626:	fc 01       	movw	r30, r24
b22c3628:	84 81       	ldd	r24, Z+4	; 0x04
b22c362a:	95 81       	ldd	r25, Z+5	; 0x05
b22c362c:	a2 81       	ldd	r26, Z+2	; 0x02
b22c362e:	b3 81       	ldd	r27, Z+3	; 0x03
b22c3630:	12 96       	adiw	r26, 0x02	; 2
b22c3632:	2d 91       	ld	r18, X+
b22c3634:	3c 91       	ld	r19, X
b22c3636:	13 97       	sbiw	r26, 0x03	; 3
b22c3638:	68 0f       	add	r22, r24
b22c363a:	79 1f       	adc	r23, r25
b22c363c:	26 17       	cp	r18, r22
b22c363e:	37 07       	cpc	r19, r23
b22c3640:	00 f4       	brcc	.+0      	; 0xb22c3642 <_ZN26RandomAccessExternalEeprom9skipBytesEj+0x1c>
b22c3642:	b9 01       	movw	r22, r18
b22c3644:	75 83       	std	Z+5, r23	; 0x05
b22c3646:	64 83       	std	Z+4, r22	; 0x04
b22c3648:	9b 01       	movw	r18, r22
b22c364a:	28 1b       	sub	r18, r24
b22c364c:	39 0b       	sbc	r19, r25
b22c364e:	c9 01       	movw	r24, r18
b22c3650:	08 95       	ret

Disassembly of section .text._ZN12RandomAccessC2Ev:

64586c78 <_ZN12RandomAccessC2Ev>:
64586c78:	fb 01       	movw	r30, r22
64586c7a:	20 81       	ld	r18, Z
64586c7c:	31 81       	ldd	r19, Z+1	; 0x01
64586c7e:	dc 01       	movw	r26, r24
64586c80:	2d 93       	st	X+, r18
64586c82:	3c 93       	st	X, r19
64586c84:	42 81       	ldd	r20, Z+2	; 0x02
64586c86:	53 81       	ldd	r21, Z+3	; 0x03
64586c88:	d9 01       	movw	r26, r18
64586c8a:	92 97       	sbiw	r26, 0x22	; 34
64586c8c:	0d 90       	ld	r0, X+
64586c8e:	bc 91       	ld	r27, X
64586c90:	a0 2d       	mov	r26, r0
64586c92:	a8 0f       	add	r26, r24
64586c94:	b9 1f       	adc	r27, r25
64586c96:	4d 93       	st	X+, r20
64586c98:	5c 93       	st	X, r21
64586c9a:	dc 01       	movw	r26, r24
64586c9c:	2d 91       	ld	r18, X+
64586c9e:	3c 91       	ld	r19, X
64586ca0:	44 81       	ldd	r20, Z+4	; 0x04
64586ca2:	55 81       	ldd	r21, Z+5	; 0x05
64586ca4:	d9 01       	movw	r26, r18
64586ca6:	94 97       	sbiw	r26, 0x24	; 36
64586ca8:	0d 90       	ld	r0, X+
64586caa:	bc 91       	ld	r27, X
64586cac:	a0 2d       	mov	r26, r0
64586cae:	a8 0f       	add	r26, r24
64586cb0:	b9 1f       	adc	r27, r25
64586cb2:	4d 93       	st	X+, r20
64586cb4:	5c 93       	st	X, r21
64586cb6:	46 81       	ldd	r20, Z+6	; 0x06
64586cb8:	57 81       	ldd	r21, Z+7	; 0x07
64586cba:	d9 01       	movw	r26, r18
64586cbc:	96 97       	sbiw	r26, 0x26	; 38
64586cbe:	0d 90       	ld	r0, X+
64586cc0:	bc 91       	ld	r27, X
64586cc2:	a0 2d       	mov	r26, r0
64586cc4:	a8 0f       	add	r26, r24
64586cc6:	b9 1f       	adc	r27, r25
64586cc8:	4d 93       	st	X+, r20
64586cca:	5c 93       	st	X, r21
64586ccc:	40 85       	ldd	r20, Z+8	; 0x08
64586cce:	51 85       	ldd	r21, Z+9	; 0x09
64586cd0:	f9 01       	movw	r30, r18
64586cd2:	b8 97       	sbiw	r30, 0x28	; 40
64586cd4:	01 90       	ld	r0, Z+
64586cd6:	f0 81       	ld	r31, Z
64586cd8:	e0 2d       	mov	r30, r0
64586cda:	e8 0f       	add	r30, r24
64586cdc:	f9 1f       	adc	r31, r25
64586cde:	51 83       	std	Z+1, r21	; 0x01
64586ce0:	40 83       	st	Z, r20
64586ce2:	08 95       	ret

Disassembly of section .text._ZN26RandomAccessExternalEepromC2EP14ExternalEeprom:

c8b0d95c <_ZN26RandomAccessExternalEepromC2EP14ExternalEeprom>:
c8b0d95c:	ef 92       	push	r14
c8b0d95e:	ff 92       	push	r15
c8b0d960:	0f 93       	push	r16
c8b0d962:	1f 93       	push	r17
c8b0d964:	cf 93       	push	r28
c8b0d966:	df 93       	push	r29
c8b0d968:	ec 01       	movw	r28, r24
c8b0d96a:	8b 01       	movw	r16, r22
c8b0d96c:	7a 01       	movw	r14, r20
c8b0d96e:	6e 5f       	subi	r22, 0xFE	; 254
c8b0d970:	7f 4f       	sbci	r23, 0xFF	; 255
c8b0d972:	0e 94 00 00 	call	0	; 0x0 <__tmp_reg__>
c8b0d976:	f8 01       	movw	r30, r16
c8b0d978:	80 81       	ld	r24, Z
c8b0d97a:	91 81       	ldd	r25, Z+1	; 0x01
c8b0d97c:	99 83       	std	Y+1, r25	; 0x01
c8b0d97e:	88 83       	st	Y, r24
c8b0d980:	24 85       	ldd	r18, Z+12	; 0x0c
c8b0d982:	35 85       	ldd	r19, Z+13	; 0x0d
c8b0d984:	fc 01       	movw	r30, r24
c8b0d986:	b2 97       	sbiw	r30, 0x22	; 34
c8b0d988:	01 90       	ld	r0, Z+
c8b0d98a:	f0 81       	ld	r31, Z
c8b0d98c:	e0 2d       	mov	r30, r0
c8b0d98e:	ec 0f       	add	r30, r28
c8b0d990:	fd 1f       	adc	r31, r29
c8b0d992:	31 83       	std	Z+1, r19	; 0x01
c8b0d994:	20 83       	st	Z, r18
c8b0d996:	88 81       	ld	r24, Y
c8b0d998:	99 81       	ldd	r25, Y+1	; 0x01
c8b0d99a:	f8 01       	movw	r30, r16
c8b0d99c:	26 85       	ldd	r18, Z+14	; 0x0e
c8b0d99e:	37 85       	ldd	r19, Z+15	; 0x0f
c8b0d9a0:	fc 01       	movw	r30, r24
c8b0d9a2:	b4 97       	sbiw	r30, 0x24	; 36
c8b0d9a4:	01 90       	ld	r0, Z+
c8b0d9a6:	f0 81       	ld	r31, Z
c8b0d9a8:	e0 2d       	mov	r30, r0
c8b0d9aa:	ec 0f       	add	r30, r28
c8b0d9ac:	fd 1f       	adc	r31, r29
c8b0d9ae:	31 83       	std	Z+1, r19	; 0x01
c8b0d9b0:	20 83       	st	Z, r18
c8b0d9b2:	f8 01       	movw	r30, r16
c8b0d9b4:	20 89       	ldd	r18, Z+16	; 0x10
c8b0d9b6:	31 89       	ldd	r19, Z+17	; 0x11
c8b0d9b8:	fc 01       	movw	r30, r24
c8b0d9ba:	b6 97       	sbiw	r30, 0x26	; 38
c8b0d9bc:	01 90       	ld	r0, Z+
c8b0d9be:	f0 81       	ld	r31, Z
c8b0d9c0:	e0 2d       	mov	r30, r0
c8b0d9c2:	ec 0f       	add	r30, r28
c8b0d9c4:	fd 1f       	adc	r31, r29
c8b0d9c6:	31 83       	std	Z+1, r19	; 0x01
c8b0d9c8:	20 83       	st	Z, r18
c8b0d9ca:	f8 01       	movw	r30, r16
c8b0d9cc:	22 89       	ldd	r18, Z+18	; 0x12
c8b0d9ce:	33 89       	ldd	r19, Z+19	; 0x13
c8b0d9d0:	fc 01       	movw	r30, r24
c8b0d9d2:	b8 97       	sbiw	r30, 0x28	; 40
c8b0d9d4:	01 90       	ld	r0, Z+
c8b0d9d6:	f0 81       	ld	r31, Z
c8b0d9d8:	e0 2d       	mov	r30, r0
c8b0d9da:	ec 0f       	add	r30, r28
c8b0d9dc:	fd 1f       	adc	r31, r29
c8b0d9de:	31 83       	std	Z+1, r19	; 0x01
c8b0d9e0:	20 83       	st	Z, r18
c8b0d9e2:	fb 82       	std	Y+3, r15	; 0x03
c8b0d9e4:	ea 82       	std	Y+2, r14	; 0x02
c8b0d9e6:	1d 82       	std	Y+5, r1	; 0x05
c8b0d9e8:	1c 82       	std	Y+4, r1	; 0x04
c8b0d9ea:	df 91       	pop	r29
c8b0d9ec:	cf 91       	pop	r28
c8b0d9ee:	1f 91       	pop	r17
c8b0d9f0:	0f 91       	pop	r16
c8b0d9f2:	ff 90       	pop	r15
c8b0d9f4:	ef 90       	pop	r14
c8b0d9f6:	08 95       	ret

Disassembly of section .text._ZN26RandomAccessExternalEepromC1EP14ExternalEeprom:

9161b354 <_ZN26RandomAccessExternalEepromC1EP14ExternalEeprom>:
9161b354:	0f 93       	push	r16
9161b356:	1f 93       	push	r17
9161b358:	cf 93       	push	r28
9161b35a:	df 93       	push	r29
9161b35c:	ec 01       	movw	r28, r24
9161b35e:	8b 01       	movw	r16, r22
9161b360:	80 e0       	ldi	r24, 0x00	; 0
9161b362:	90 e0       	ldi	r25, 0x00	; 0
9161b364:	99 83       	std	Y+1, r25	; 0x01
9161b366:	88 83       	st	Y, r24
9161b368:	80 e0       	ldi	r24, 0x00	; 0
9161b36a:	90 e0       	ldi	r25, 0x00	; 0
9161b36c:	9f 83       	std	Y+7, r25	; 0x07
9161b36e:	8e 83       	std	Y+6, r24	; 0x06
9161b370:	80 e0       	ldi	r24, 0x00	; 0
9161b372:	90 e0       	ldi	r25, 0x00	; 0
9161b374:	99 87       	std	Y+9, r25	; 0x09
9161b376:	88 87       	std	Y+8, r24	; 0x08
9161b378:	80 e0       	ldi	r24, 0x00	; 0
9161b37a:	90 e0       	ldi	r25, 0x00	; 0
9161b37c:	9b 87       	std	Y+11, r25	; 0x0b
9161b37e:	8a 87       	std	Y+10, r24	; 0x0a
9161b380:	60 e0       	ldi	r22, 0x00	; 0
9161b382:	70 e0       	ldi	r23, 0x00	; 0
9161b384:	ce 01       	movw	r24, r28
9161b386:	0e 94 00 00 	call	0	; 0x0 <__tmp_reg__>
9161b38a:	80 e0       	ldi	r24, 0x00	; 0
9161b38c:	90 e0       	ldi	r25, 0x00	; 0
9161b38e:	99 83       	std	Y+1, r25	; 0x01
9161b390:	88 83       	st	Y, r24
9161b392:	80 e0       	ldi	r24, 0x00	; 0
9161b394:	90 e0       	ldi	r25, 0x00	; 0
9161b396:	9f 83       	std	Y+7, r25	; 0x07
9161b398:	8e 83       	std	Y+6, r24	; 0x06
9161b39a:	80 e0       	ldi	r24, 0x00	; 0
9161b39c:	90 e0       	ldi	r25, 0x00	; 0
9161b39e:	99 87       	std	Y+9, r25	; 0x09
9161b3a0:	88 87       	std	Y+8, r24	; 0x08
9161b3a2:	80 e0       	ldi	r24, 0x00	; 0
9161b3a4:	90 e0       	ldi	r25, 0x00	; 0
9161b3a6:	9b 87       	std	Y+11, r25	; 0x0b
9161b3a8:	8a 87       	std	Y+10, r24	; 0x0a
9161b3aa:	1b 83       	std	Y+3, r17	; 0x03
9161b3ac:	0a 83       	std	Y+2, r16	; 0x02
9161b3ae:	1d 82       	std	Y+5, r1	; 0x05
9161b3b0:	1c 82       	std	Y+4, r1	; 0x04
9161b3b2:	df 91       	pop	r29
9161b3b4:	cf 91       	pop	r28
9161b3b6:	1f 91       	pop	r17
9161b3b8:	0f 91       	pop	r16
9161b3ba:	08 95       	ret

Disassembly of section .text._ZN26RandomAccessExternalEeprom6lengthEv:

22c36710 <_ZN26RandomAccessExternalEeprom6lengthEv>:
22c36710:	dc 01       	movw	r26, r24
22c36712:	12 96       	adiw	r26, 0x02	; 2
22c36714:	ed 91       	ld	r30, X+
22c36716:	fc 91       	ld	r31, X
22c36718:	13 97       	sbiw	r26, 0x03	; 3
22c3671a:	82 81       	ldd	r24, Z+2	; 0x02
22c3671c:	93 81       	ldd	r25, Z+3	; 0x03
22c3671e:	08 95       	ret

Disassembly of section .text._ZTv0_n6_N26RandomAccessExternalEeprom4seekEj:

4586ce30 <_ZTv0_n6_N26RandomAccessExternalEeprom4seekEj>:
4586ce30:	dc 01       	movw	r26, r24
4586ce32:	ed 91       	ld	r30, X+
4586ce34:	fc 91       	ld	r31, X
4586ce36:	36 97       	sbiw	r30, 0x06	; 6
4586ce38:	20 81       	ld	r18, Z
4586ce3a:	31 81       	ldd	r19, Z+1	; 0x01
4586ce3c:	82 0f       	add	r24, r18
4586ce3e:	93 1f       	adc	r25, r19
4586ce40:	0c 94 00 00 	jmp	0	; 0x0 <__tmp_reg__>

Disassembly of section .text._ZTv0_n6_N26RandomAccessExternalEeprom5closeEv:

8b0d9c74 <_ZTv0_n6_N26RandomAccessExternalEeprom5closeEv>:
8b0d9c74:	08 95       	ret

Disassembly of section .text._ZTv0_n6_N26RandomAccessExternalEeprom5writeEPhi:

161b38ea <_ZTv0_n6_N26RandomAccessExternalEeprom5writeEPhi>:
161b38ea:	dc 01       	movw	r26, r24
161b38ec:	ed 91       	ld	r30, X+
161b38ee:	fc 91       	ld	r31, X
161b38f0:	36 97       	sbiw	r30, 0x06	; 6
161b38f2:	20 81       	ld	r18, Z
161b38f4:	31 81       	ldd	r19, Z+1	; 0x01
161b38f6:	82 0f       	add	r24, r18
161b38f8:	93 1f       	adc	r25, r19
161b38fa:	0c 94 00 00 	jmp	0	; 0x0 <__tmp_reg__>

Disassembly of section .text._ZTv0_n8_N26RandomAccessExternalEeprom5writeEh:

2c3671e8 <_ZTv0_n8_N26RandomAccessExternalEeprom5writeEh>:
2c3671e8:	dc 01       	movw	r26, r24
2c3671ea:	ed 91       	ld	r30, X+
2c3671ec:	fc 91       	ld	r31, X
2c3671ee:	38 97       	sbiw	r30, 0x08	; 8
2c3671f0:	20 81       	ld	r18, Z
2c3671f2:	31 81       	ldd	r19, Z+1	; 0x01
2c3671f4:	82 0f       	add	r24, r18
2c3671f6:	93 1f       	adc	r25, r19
2c3671f8:	0c 94 00 00 	jmp	0	; 0x0 <__tmp_reg__>

Disassembly of section .text._ZTv0_n10_N26RandomAccessExternalEeprom9writeByteEh:

586ce3e4 <_ZTv0_n10_N26RandomAccessExternalEeprom9writeByteEh>:
586ce3e4:	dc 01       	movw	r26, r24
586ce3e6:	ed 91       	ld	r30, X+
586ce3e8:	fc 91       	ld	r31, X
586ce3ea:	3a 97       	sbiw	r30, 0x0a	; 10
586ce3ec:	20 81       	ld	r18, Z
586ce3ee:	31 81       	ldd	r19, Z+1	; 0x01
586ce3f0:	82 0f       	add	r24, r18
586ce3f2:	93 1f       	adc	r25, r19
586ce3f4:	0c 94 00 00 	jmp	0	; 0x0 <__tmp_reg__>

Disassembly of section .text._ZTv0_n12_N26RandomAccessExternalEeprom10writeBytesEPhi:

b0d9c7dc <_ZTv0_n12_N26RandomAccessExternalEeprom10writeBytesEPhi>:
b0d9c7dc:	dc 01       	movw	r26, r24
b0d9c7de:	ed 91       	ld	r30, X+
b0d9c7e0:	fc 91       	ld	r31, X
b0d9c7e2:	3c 97       	sbiw	r30, 0x0c	; 12
b0d9c7e4:	20 81       	ld	r18, Z
b0d9c7e6:	31 81       	ldd	r19, Z+1	; 0x01
b0d9c7e8:	82 0f       	add	r24, r18
b0d9c7ea:	93 1f       	adc	r25, r19
b0d9c7ec:	0c 94 00 00 	jmp	0	; 0x0 <__tmp_reg__>

Disassembly of section .text._ZTv0_n14_N26RandomAccessExternalEeprom12writeBooleanEb:

61b38fcc <_ZTv0_n14_N26RandomAccessExternalEeprom12writeBooleanEb>:
61b38fcc:	dc 01       	movw	r26, r24
61b38fce:	ed 91       	ld	r30, X+
61b38fd0:	fc 91       	ld	r31, X
61b38fd2:	3e 97       	sbiw	r30, 0x0e	; 14
61b38fd4:	20 81       	ld	r18, Z
61b38fd6:	31 81       	ldd	r19, Z+1	; 0x01
61b38fd8:	82 0f       	add	r24, r18
61b38fda:	93 1f       	adc	r25, r19
61b38fdc:	0c 94 00 00 	jmp	0	; 0x0 <__tmp_reg__>

Disassembly of section .text._ZTv0_n16_N26RandomAccessExternalEeprom9writeCharEc:

c3671fac <_ZTv0_n16_N26RandomAccessExternalEeprom9writeCharEc>:
c3671fac:	dc 01       	movw	r26, r24
c3671fae:	ed 91       	ld	r30, X+
c3671fb0:	fc 91       	ld	r31, X
c3671fb2:	70 97       	sbiw	r30, 0x10	; 16
c3671fb4:	20 81       	ld	r18, Z
c3671fb6:	31 81       	ldd	r19, Z+1	; 0x01
c3671fb8:	82 0f       	add	r24, r18
c3671fba:	93 1f       	adc	r25, r19
c3671fbc:	0c 94 00 00 	jmp	0	; 0x0 <__tmp_reg__>

Disassembly of section .text._ZTv0_n18_N26RandomAccessExternalEeprom17writeUnsignedCharEh:

86ce3f6c <_ZTv0_n18_N26RandomAccessExternalEeprom17writeUnsignedCharEh>:
86ce3f6c:	dc 01       	movw	r26, r24
86ce3f6e:	ed 91       	ld	r30, X+
86ce3f70:	fc 91       	ld	r31, X
86ce3f72:	72 97       	sbiw	r30, 0x12	; 18
86ce3f74:	20 81       	ld	r18, Z
86ce3f76:	31 81       	ldd	r19, Z+1	; 0x01
86ce3f78:	82 0f       	add	r24, r18
86ce3f7a:	93 1f       	adc	r25, r19
86ce3f7c:	0c 94 00 00 	jmp	0	; 0x0 <__tmp_reg__>

Disassembly of section .text._ZTv0_n20_N26RandomAccessExternalEeprom8writeIntEi:

0d9c7eec <_ZTv0_n20_N26RandomAccessExternalEeprom8writeIntEi>:
 d9c7eec:	dc 01       	movw	r26, r24
 d9c7eee:	ed 91       	ld	r30, X+
 d9c7ef0:	fc 91       	ld	r31, X
 d9c7ef2:	74 97       	sbiw	r30, 0x14	; 20
 d9c7ef4:	20 81       	ld	r18, Z
 d9c7ef6:	31 81       	ldd	r19, Z+1	; 0x01
 d9c7ef8:	82 0f       	add	r24, r18
 d9c7efa:	93 1f       	adc	r25, r19
 d9c7efc:	0c 94 00 00 	jmp	0	; 0x0 <__tmp_reg__>

Disassembly of section .text._ZTv0_n22_N26RandomAccessExternalEeprom16writeUnsignedIntEj:

1b38fdec <_ZTv0_n22_N26RandomAccessExternalEeprom16writeUnsignedIntEj>:
1b38fdec:	dc 01       	movw	r26, r24
1b38fdee:	ed 91       	ld	r30, X+
1b38fdf0:	fc 91       	ld	r31, X
1b38fdf2:	76 97       	sbiw	r30, 0x16	; 22
1b38fdf4:	20 81       	ld	r18, Z
1b38fdf6:	31 81       	ldd	r19, Z+1	; 0x01
1b38fdf8:	82 0f       	add	r24, r18
1b38fdfa:	93 1f       	adc	r25, r19
1b38fdfc:	0c 94 00 00 	jmp	0	; 0x0 <__tmp_reg__>

Disassembly of section .text._ZTv0_n24_N26RandomAccessExternalEeprom9writeWordEj:

3671fbec <_ZTv0_n24_N26RandomAccessExternalEeprom9writeWordEj>:
3671fbec:	dc 01       	movw	r26, r24
3671fbee:	ed 91       	ld	r30, X+
3671fbf0:	fc 91       	ld	r31, X
3671fbf2:	78 97       	sbiw	r30, 0x18	; 24
3671fbf4:	20 81       	ld	r18, Z
3671fbf6:	31 81       	ldd	r19, Z+1	; 0x01
3671fbf8:	82 0f       	add	r24, r18
3671fbfa:	93 1f       	adc	r25, r19
3671fbfc:	0c 94 00 00 	jmp	0	; 0x0 <__tmp_reg__>

Disassembly of section .text._ZTv0_n26_N26RandomAccessExternalEeprom9writeLongEl:

6ce3f7ec <_ZTv0_n26_N26RandomAccessExternalEeprom9writeLongEl>:
6ce3f7ec:	dc 01       	movw	r26, r24
6ce3f7ee:	ed 91       	ld	r30, X+
6ce3f7f0:	fc 91       	ld	r31, X
6ce3f7f2:	7a 97       	sbiw	r30, 0x1a	; 26
6ce3f7f4:	20 81       	ld	r18, Z
6ce3f7f6:	31 81       	ldd	r19, Z+1	; 0x01
6ce3f7f8:	82 0f       	add	r24, r18
6ce3f7fa:	93 1f       	adc	r25, r19
6ce3f7fc:	0c 94 00 00 	jmp	0	; 0x0 <__tmp_reg__>

Disassembly of section .text._ZTv0_n28_N26RandomAccessExternalEeprom17writeUnsignedLongEm:

d9c7efec <_ZTv0_n28_N26RandomAccessExternalEeprom17writeUnsignedLongEm>:
d9c7efec:	dc 01       	movw	r26, r24
d9c7efee:	ed 91       	ld	r30, X+
d9c7eff0:	fc 91       	ld	r31, X
d9c7eff2:	7c 97       	sbiw	r30, 0x1c	; 28
d9c7eff4:	20 81       	ld	r18, Z
d9c7eff6:	31 81       	ldd	r19, Z+1	; 0x01
d9c7eff8:	82 0f       	add	r24, r18
d9c7effa:	93 1f       	adc	r25, r19
d9c7effc:	0c 94 00 00 	jmp	0	; 0x0 <__tmp_reg__>

Disassembly of section .text._ZTv0_n30_N26RandomAccessExternalEeprom10writeFloatEf:

b38fdfec <_ZTv0_n30_N26RandomAccessExternalEeprom10writeFloatEf>:
b38fdfec:	dc 01       	movw	r26, r24
b38fdfee:	ed 91       	ld	r30, X+
b38fdff0:	fc 91       	ld	r31, X
b38fdff2:	7e 97       	sbiw	r30, 0x1e	; 30
b38fdff4:	20 81       	ld	r18, Z
b38fdff6:	31 81       	ldd	r19, Z+1	; 0x01
b38fdff8:	82 0f       	add	r24, r18
b38fdffa:	93 1f       	adc	r25, r19
b38fdffc:	0c 94 00 00 	jmp	0	; 0x0 <__tmp_reg__>

Disassembly of section .text._ZTv0_n32_N26RandomAccessExternalEeprom11writeDoubleEd:

671fbfec <_ZTv0_n32_N26RandomAccessExternalEeprom11writeDoubleEd>:
671fbfec:	dc 01       	movw	r26, r24
671fbfee:	ed 91       	ld	r30, X+
671fbff0:	fc 91       	ld	r31, X
671fbff2:	b0 97       	sbiw	r30, 0x20	; 32
671fbff4:	20 81       	ld	r18, Z
671fbff6:	31 81       	ldd	r19, Z+1	; 0x01
671fbff8:	82 0f       	add	r24, r18
671fbffa:	93 1f       	adc	r25, r19
671fbffc:	0c 94 00 00 	jmp	0	; 0x0 <__tmp_reg__>

Disassembly of section .text._ZTv0_n6_N26RandomAccessExternalEeprom8readByteEv:

ce3f7fec <_ZTv0_n6_N26RandomAccessExternalEeprom8readByteEv>:
ce3f7fec:	dc 01       	movw	r26, r24
ce3f7fee:	ed 91       	ld	r30, X+
ce3f7ff0:	fc 91       	ld	r31, X
ce3f7ff2:	36 97       	sbiw	r30, 0x06	; 6
ce3f7ff4:	20 81       	ld	r18, Z
ce3f7ff6:	31 81       	ldd	r19, Z+1	; 0x01
ce3f7ff8:	82 0f       	add	r24, r18
ce3f7ffa:	93 1f       	adc	r25, r19
ce3f7ffc:	0c 94 00 00 	jmp	0	; 0x0 <__tmp_reg__>

Disassembly of section .text._ZTv0_n8_N26RandomAccessExternalEeprom11readBooleanEv:

9c7effec <_ZTv0_n8_N26RandomAccessExternalEeprom11readBooleanEv>:
9c7effec:	dc 01       	movw	r26, r24
9c7effee:	ed 91       	ld	r30, X+
9c7efff0:	fc 91       	ld	r31, X
9c7efff2:	38 97       	sbiw	r30, 0x08	; 8
9c7efff4:	20 81       	ld	r18, Z
9c7efff6:	31 81       	ldd	r19, Z+1	; 0x01
9c7efff8:	82 0f       	add	r24, r18
9c7efffa:	93 1f       	adc	r25, r19
9c7efffc:	0c 94 00 00 	jmp	0	; 0x0 <__tmp_reg__>

Disassembly of section .text._ZTv0_n10_N26RandomAccessExternalEeprom8readCharEv:

38fdffec <_ZTv0_n10_N26RandomAccessExternalEeprom8readCharEv>:
38fdffec:	dc 01       	movw	r26, r24
38fdffee:	ed 91       	ld	r30, X+
38fdfff0:	fc 91       	ld	r31, X
38fdfff2:	3a 97       	sbiw	r30, 0x0a	; 10
38fdfff4:	20 81       	ld	r18, Z
38fdfff6:	31 81       	ldd	r19, Z+1	; 0x01
38fdfff8:	82 0f       	add	r24, r18
38fdfffa:	93 1f       	adc	r25, r19
38fdfffc:	0c 94 00 00 	jmp	0	; 0x0 <__tmp_reg__>

Disassembly of section .text._ZTv0_n12_N26RandomAccessExternalEeprom16readUnsignedCharEv:

71fbffec <_ZTv0_n12_N26RandomAccessExternalEeprom16readUnsignedCharEv>:
71fbffec:	dc 01       	movw	r26, r24
71fbffee:	ed 91       	ld	r30, X+
71fbfff0:	fc 91       	ld	r31, X
71fbfff2:	3c 97       	sbiw	r30, 0x0c	; 12
71fbfff4:	20 81       	ld	r18, Z
71fbfff6:	31 81       	ldd	r19, Z+1	; 0x01
71fbfff8:	82 0f       	add	r24, r18
71fbfffa:	93 1f       	adc	r25, r19
71fbfffc:	0c 94 00 00 	jmp	0	; 0x0 <__tmp_reg__>

Disassembly of section .text._ZTv0_n14_N26RandomAccessExternalEeprom7readIntEv:

e3f7ffec <_ZTv0_n14_N26RandomAccessExternalEeprom7readIntEv>:
e3f7ffec:	dc 01       	movw	r26, r24
e3f7ffee:	ed 91       	ld	r30, X+
e3f7fff0:	fc 91       	ld	r31, X
e3f7fff2:	3e 97       	sbiw	r30, 0x0e	; 14
e3f7fff4:	20 81       	ld	r18, Z
e3f7fff6:	31 81       	ldd	r19, Z+1	; 0x01
e3f7fff8:	82 0f       	add	r24, r18
e3f7fffa:	93 1f       	adc	r25, r19
e3f7fffc:	0c 94 00 00 	jmp	0	; 0x0 <__tmp_reg__>

Disassembly of section .text._ZTv0_n16_N26RandomAccessExternalEeprom15readUnsignedIntEv:

c7efffec <_ZTv0_n16_N26RandomAccessExternalEeprom15readUnsignedIntEv>:
c7efffec:	dc 01       	movw	r26, r24
c7efffee:	ed 91       	ld	r30, X+
c7effff0:	fc 91       	ld	r31, X
c7effff2:	70 97       	sbiw	r30, 0x10	; 16
c7effff4:	20 81       	ld	r18, Z
c7effff6:	31 81       	ldd	r19, Z+1	; 0x01
c7effff8:	82 0f       	add	r24, r18
c7effffa:	93 1f       	adc	r25, r19
c7effffc:	0c 94 00 00 	jmp	0	; 0x0 <__tmp_reg__>

Disassembly of section .text._ZTv0_n18_N26RandomAccessExternalEeprom8readWordEv:

8fdfffec <_ZTv0_n18_N26RandomAccessExternalEeprom8readWordEv>:
8fdfffec:	dc 01       	movw	r26, r24
8fdfffee:	ed 91       	ld	r30, X+
8fdffff0:	fc 91       	ld	r31, X
8fdffff2:	72 97       	sbiw	r30, 0x12	; 18
8fdffff4:	20 81       	ld	r18, Z
8fdffff6:	31 81       	ldd	r19, Z+1	; 0x01
8fdffff8:	82 0f       	add	r24, r18
8fdffffa:	93 1f       	adc	r25, r19
8fdffffc:	0c 94 00 00 	jmp	0	; 0x0 <__tmp_reg__>

Disassembly of section .text._ZTv0_n20_N26RandomAccessExternalEeprom8readLongEv:

1fbfffec <_ZTv0_n20_N26RandomAccessExternalEeprom8readLongEv>:
1fbfffec:	dc 01       	movw	r26, r24
1fbfffee:	ed 91       	ld	r30, X+
1fbffff0:	fc 91       	ld	r31, X
1fbffff2:	74 97       	sbiw	r30, 0x14	; 20
1fbffff4:	20 81       	ld	r18, Z
1fbffff6:	31 81       	ldd	r19, Z+1	; 0x01
1fbffff8:	82 0f       	add	r24, r18
1fbffffa:	93 1f       	adc	r25, r19
1fbffffc:	0c 94 00 00 	jmp	0	; 0x0 <__tmp_reg__>

Disassembly of section .text._ZTv0_n22_N26RandomAccessExternalEeprom16readUnsignedLongEv:

3f7fffec <_ZTv0_n22_N26RandomAccessExternalEeprom16readUnsignedLongEv>:
3f7fffec:	dc 01       	movw	r26, r24
3f7fffee:	ed 91       	ld	r30, X+
3f7ffff0:	fc 91       	ld	r31, X
3f7ffff2:	76 97       	sbiw	r30, 0x16	; 22
3f7ffff4:	20 81       	ld	r18, Z
3f7ffff6:	31 81       	ldd	r19, Z+1	; 0x01
3f7ffff8:	82 0f       	add	r24, r18
3f7ffffa:	93 1f       	adc	r25, r19
3f7ffffc:	0c 94 00 00 	jmp	0	; 0x0 <__tmp_reg__>

Disassembly of section .text._ZTv0_n24_N26RandomAccessExternalEeprom9readFloatEv:

7effffec <_ZTv0_n24_N26RandomAccessExternalEeprom9readFloatEv>:
7effffec:	dc 01       	movw	r26, r24
7effffee:	ed 91       	ld	r30, X+
7efffff0:	fc 91       	ld	r31, X
7efffff2:	78 97       	sbiw	r30, 0x18	; 24
7efffff4:	20 81       	ld	r18, Z
7efffff6:	31 81       	ldd	r19, Z+1	; 0x01
7efffff8:	82 0f       	add	r24, r18
7efffffa:	93 1f       	adc	r25, r19
7efffffc:	0c 94 00 00 	jmp	0	; 0x0 <__tmp_reg__>

Disassembly of section .text._ZTv0_n26_N26RandomAccessExternalEeprom10readDoubleEv:

fdffffec <_ZTv0_n26_N26RandomAccessExternalEeprom10readDoubleEv>:
fdffffec:	dc 01       	movw	r26, r24
fdffffee:	ed 91       	ld	r30, X+
fdfffff0:	fc 91       	ld	r31, X
fdfffff2:	7a 97       	sbiw	r30, 0x1a	; 26
fdfffff4:	20 81       	ld	r18, Z
fdfffff6:	31 81       	ldd	r19, Z+1	; 0x01
fdfffff8:	82 0f       	add	r24, r18
fdfffffa:	93 1f       	adc	r25, r19
fdfffffc:	0c 94 00 00 	jmp	0	; 0x0 <__tmp_reg__>

Disassembly of section .text._ZTv0_n28_N26RandomAccessExternalEeprom9readFullyEPhi:

fbffffec <_ZTv0_n28_N26RandomAccessExternalEeprom9readFullyEPhi>:
fbffffec:	dc 01       	movw	r26, r24
fbffffee:	ed 91       	ld	r30, X+
fbfffff0:	fc 91       	ld	r31, X
fbfffff2:	7c 97       	sbiw	r30, 0x1c	; 28
fbfffff4:	20 81       	ld	r18, Z
fbfffff6:	31 81       	ldd	r19, Z+1	; 0x01
fbfffff8:	82 0f       	add	r24, r18
fbfffffa:	93 1f       	adc	r25, r19
fbfffffc:	0c 94 00 00 	jmp	0	; 0x0 <__tmp_reg__>

Disassembly of section .text._ZTv0_n30_N26RandomAccessExternalEeprom9skipBytesEj:

f7ffffec <_ZTv0_n30_N26RandomAccessExternalEeprom9skipBytesEj>:
f7ffffec:	dc 01       	movw	r26, r24
f7ffffee:	ed 91       	ld	r30, X+
f7fffff0:	fc 91       	ld	r31, X
f7fffff2:	7e 97       	sbiw	r30, 0x1e	; 30
f7fffff4:	20 81       	ld	r18, Z
f7fffff6:	31 81       	ldd	r19, Z+1	; 0x01
f7fffff8:	82 0f       	add	r24, r18
f7fffffa:	93 1f       	adc	r25, r19
f7fffffc:	0c 94 00 00 	jmp	0	; 0x0 <__tmp_reg__>

RandomAccessByteArray.o:     file format elf32-avr

Sections:
Idx Name          Size      VMA       LMA       File off  Algn
  0 .group        00000008  00000000  00000000  00000034  2**2
                  CONTENTS, READONLY, EXCLUDE, GROUP, LINK_ONCE_DISCARD
  1 .group        00000008  00000000  00000000  0000003c  2**2
                  CONTENTS, READONLY, EXCLUDE, GROUP, LINK_ONCE_DISCARD
  2 .group        00000008  00000000  00000000  00000044  2**2
                  CONTENTS, READONLY, EXCLUDE, GROUP, LINK_ONCE_DISCARD
  3 .group        00000008  00000000  00000000  0000004c  2**2
                  CONTENTS, READONLY, EXCLUDE, GROUP, LINK_ONCE_DISCARD
  4 .group        00000008  00000000  00000000  00000054  2**2
                  CONTENTS, READONLY, EXCLUDE, GROUP, LINK_ONCE_DISCARD
  5 .group        00000010  00000000  00000000  0000005c  2**2
                  CONTENTS, READONLY, EXCLUDE, GROUP, LINK_ONCE_DISCARD
  6 .text         00000000  00000000  00000000  0000006c  2**0
                  CONTENTS, ALLOC, LOAD, READONLY, CODE
  7 .data         00000000  00000000  00000000  0000006c  2**0
                  CONTENTS, ALLOC, LOAD, DATA
  8 .bss          00000000  00000000  00000000  0000006c  2**0
                  ALLOC
  9 .text._ZN21RandomAccessByteArray4seekEj 00000008  00000000  00000000  0000006c  2**0
                  CONTENTS, ALLOC, LOAD, READONLY, CODE
 10 .text._ZN21RandomAccessByteArray5closeEv 00000002  00000000  00000000  00000074  2**0
                  CONTENTS, ALLOC, LOAD, READONLY, CODE
 11 .text._ZN21RandomAccessByteArray5writeEPhi 0000000e  00000000  00000000  00000076  2**0
                  CONTENTS, ALLOC, LOAD, READONLY, CODE
 12 .text._ZN21RandomAccessByteArray5writeEh 0000001c  00000000  00000000  00000084  2**0
                  CONTENTS, ALLOC, LOAD, READONLY, CODE
 13 .text._ZN21RandomAccessByteArray9writeByteEh 0000001c  00000000  00000000  000000a0  2**0
                  CONTENTS, ALLOC, LOAD, READONLY, CODE
 14 .text._ZN21RandomAccessByteArray10writeBytesEPhi 00000036  00000000  00000000  000000bc  2**0
                  CONTENTS, ALLOC, LOAD, RELOC, READONLY, CODE
 15 .text._ZN21RandomAccessByteArray12writeBooleanEb 0000001c  00000000  00000000  000000f2  2**0
                  CONTENTS, ALLOC, LOAD, READONLY, CODE
 16 .text._ZN21RandomAccessByteArray9writeCharEc 0000001c  00000000  00000000  0000010e  2**0
                  CONTENTS, ALLOC, LOAD, READONLY, CODE
 17 .text._ZN21RandomAccessByteArray17writeUnsignedCharEh 0000001c  00000000  00000000  0000012a  2**0
                  CONTENTS, ALLOC, LOAD, READONLY, CODE
 18 .text._ZN21RandomAccessByteArray8writeIntEi 00000034  00000000  00000000  00000146  2**0
                  CONTENTS, ALLOC, LOAD, READONLY, CODE
 19 .text._ZN21RandomAccessByteArray16writeUnsignedIntEj 0000000e  00000000  00000000  0000017a  2**0
                  CONTENTS, ALLOC, LOAD, READONLY, CODE
 20 .text._ZN21RandomAccessByteArray9writeWordEj 0000000e  00000000  00000000  00000188  2**0
                  CONTENTS, ALLOC, LOAD, READONLY, CODE
 21 .text._ZN21RandomAccessByteArray9writeLongEl 00000064  00000000  00000000  00000196  2**0
                  CONTENTS, ALLOC, LOAD, READONLY, CODE
 22 .text._ZN21RandomAccessByteArray17writeUnsignedLongEm 0000000e  00000000  00000000  000001fa  2**0
                  CONTENTS, ALLOC, LOAD, READONLY, CODE
 23 .text._ZN21RandomAccessByteArray10writeFloatEf 00000030  00000000  00000000  00000208  2**0
                  CONTENTS, ALLOC, LOAD, RELOC, READONLY, CODE
 24 .text._ZN21RandomAccessByteArray11writeDoubleEd 00000030  00000000  00000000  00000238  2**0
                  CONTENTS, ALLOC, LOAD, RELOC, READONLY, CODE
 25 .text._ZN21RandomAccessByteArray8readByteEv 00000028  00000000  00000000  00000268  2**0
                  CONTENTS, ALLOC, LOAD, READONLY, CODE
 26 .text._ZN21RandomAccessByteArray11readBooleanEv 00000030  00000000  00000000  00000290  2**0
                  CONTENTS, ALLOC, LOAD, RELOC, READONLY, CODE
 27 .text._ZN21RandomAccessByteArray8readCharEv 00000028  00000000  00000000  000002c0  2**0
                  CONTENTS, ALLOC, LOAD, READONLY, CODE
 28 .text._ZN21RandomAccessByteArray16readUnsignedCharEv 00000028  00000000  00000000  000002e8  2**0
                  CONTENTS, ALLOC, LOAD, READONLY, CODE
 29 .text._ZN21RandomAccessByteArray7readIntEv 00000036  00000000  00000000  00000310  2**0
                  CONTENTS, ALLOC, LOAD, READONLY, CODE
 30 .text._ZN21RandomAccessByteArray15readUnsignedIntEv 0000000e  00000000  00000000  00000346  2**0
                  CONTENTS, ALLOC, LOAD, READONLY, CODE
 31 .text._ZN21RandomAccessByteArray8readWordEv 0000000e  00000000  00000000  00000354  2**0
                  CONTENTS, ALLOC, LOAD, READONLY, CODE
 32 .text._ZN21RandomAccessByteArray8readLongEv 00000084  00000000  00000000  00000362  2**0
                  CONTENTS, ALLOC, LOAD, READONLY, CODE
 33 .text._ZN21RandomAccessByteArray16readUnsignedLongEv 0000000e  00000000  00000000  000003e6  2**0
                  CONTENTS, ALLOC, LOAD, READONLY, CODE
 34 .text._ZN21RandomAccessByteArray9readFloatEv 00000014  00000000  00000000  000003f4  2**0
                  CONTENTS, ALLOC, LOAD, RELOC, READONLY, CODE
 35 .text._ZN21RandomAccessByteArray10readDoubleEv 00000014  00000000  00000000  00000408  2**0
                  CONTENTS, ALLOC, LOAD, RELOC, READONLY, CODE
 36 .text._ZN21RandomAccessByteArray9readFullyEPhi 00000036  00000000  00000000  0000041c  2**0
                  CONTENTS, ALLOC, LOAD, RELOC, READONLY, CODE
 37 .text._ZN21RandomAccessByteArray9skipBytesEj 00000024  00000000  00000000  00000452  2**0
                  CONTENTS, ALLOC, LOAD, RELOC, READONLY, CODE
 38 .text._ZN12RandomAccessC2Ev 0000006c  00000000  00000000  00000476  2**0
                  CONTENTS, ALLOC, LOAD, READONLY, CODE
 39 .text._ZN21RandomAccessByteArrayC2EPhj 000000aa  00000000  00000000  000004e2  2**0
                  CONTENTS, ALLOC, LOAD, RELOC, READONLY, CODE
 40 .text._ZN21RandomAccessByteArrayC1EPhj 00000076  00000000  00000000  0000058c  2**0
                  CONTENTS, ALLOC, LOAD, RELOC, READONLY, CODE
 41 .text._ZN21RandomAccessByteArray6lengthEv 00000008  00000000  00000000  00000602  2**0
                  CONTENTS, ALLOC, LOAD, READONLY, CODE
 42 .text._ZTv0_n6_N21RandomAccessByteArray4seekEj 00000014  00000000  00000000  0000060a  2**0
                  CONTENTS, ALLOC, LOAD, RELOC, READONLY, CODE
 43 .text._ZTv0_n6_N21RandomAccessByteArray5closeEv 00000002  00000000  00000000  0000061e  2**0
                  CONTENTS, ALLOC, LOAD, READONLY, CODE
 44 .text._ZTv0_n6_N21RandomAccessByteArray5writeEPhi 00000014  00000000  00000000  00000620  2**0
                  CONTENTS, ALLOC, LOAD, RELOC, READONLY, CODE
 45 .text._ZTv0_n8_N21RandomAccessByteArray5writeEh 00000014  00000000  00000000  00000634  2**0
                  CONTENTS, ALLOC, LOAD, RELOC, READONLY, CODE
 46 .text._ZTv0_n10_N21RandomAccessByteArray9writeByteEh 00000014  00000000  00000000  00000648  2**0
                  CONTENTS, ALLOC, LOAD, RELOC, READONLY, CODE
 47 .text._ZTv0_n12_N21RandomAccessByteArray10writeBytesEPhi 00000014  00000000  00000000  0000065c  2**0
                  CONTENTS, ALLOC, LOAD, RELOC, READONLY, CODE
 48 .text._ZTv0_n14_N21RandomAccessByteArray12writeBooleanEb 00000014  00000000  00000000  00000670  2**0
                  CONTENTS, ALLOC, LOAD, RELOC, READONLY, CODE
 49 .text._ZTv0_n16_N21RandomAccessByteArray9writeCharEc 00000014  00000000  00000000  00000684  2**0
                  CONTENTS, ALLOC, LOAD, RELOC, READONLY, CODE
 50 .text._ZTv0_n18_N21RandomAccessByteArray17writeUnsignedCharEh 00000014  00000000  00000000  00000698  2**0
                  CONTENTS, ALLOC, LOAD, RELOC, READONLY, CODE
 51 .text._ZTv0_n20_N21RandomAccessByteArray8writeIntEi 00000014  00000000  00000000  000006ac  2**0
                  CONTENTS, ALLOC, LOAD, RELOC, READONLY, CODE
 52 .text._ZTv0_n22_N21RandomAccessByteArray16writeUnsignedIntEj 00000014  00000000  00000000  000006c0  2**0
                  CONTENTS, ALLOC, LOAD, RELOC, READONLY, CODE
 53 .text._ZTv0_n24_N21RandomAccessByteArray9writeWordEj 00000014  00000000  00000000  000006d4  2**0
                  CONTENTS, ALLOC, LOAD, RELOC, READONLY, CODE
 54 .text._ZTv0_n26_N21RandomAccessByteArray9writeLongEl 00000014  00000000  00000000  000006e8  2**0
                  CONTENTS, ALLOC, LOAD, RELOC, READONLY, CODE
 55 .text._ZTv0_n28_N21RandomAccessByteArray17writeUnsignedLongEm 00000014  00000000  00000000  000006fc  2**0
                  CONTENTS, ALLOC, LOAD, RELOC, READONLY, CODE
 56 .text._ZTv0_n30_N21RandomAccessByteArray10writeFloatEf 00000014  00000000  00000000  00000710  2**0
                  CONTENTS, ALLOC, LOAD, RELOC, READONLY, CODE
 57 .text._ZTv0_n32_N21RandomAccessByteArray11writeDoubleEd 00000014  00000000  00000000  00000724  2**0
                  CONTENTS, ALLOC, LOAD, RELOC, READONLY, CODE
 58 .text._ZTv0_n6_N21RandomAccessByteArray8readByteEv 00000014  00000000  00000000  00000738  2**0
                  CONTENTS, ALLOC, LOAD, RELOC, READONLY, CODE
 59 .text._ZTv0_n8_N21RandomAccessByteArray11readBooleanEv 00000014  00000000  00000000  0000074c  2**0
                  CONTENTS, ALLOC, LOAD, RELOC, READONLY, CODE
 60 .text._ZTv0_n10_N21RandomAccessByteArray8readCharEv 00000014  00000000  00000000  00000760  2**0
                  CONTENTS, ALLOC, LOAD, RELOC, READONLY, CODE
 61 .text._ZTv0_n12_N21RandomAccessByteArray16readUnsignedCharEv 00000014  00000000  00000000  00000774  2**0
                  CONTENTS, ALLOC, LOAD, RELOC, READONLY, CODE
 62 .text._ZTv0_n14_N21RandomAccessByteArray7readIntEv 00000014  00000000  00000000  00000788  2**0
                  CONTENTS, ALLOC, LOAD, RELOC, READONLY, CODE
 63 .text._ZTv0_n16_N21RandomAccessByteArray15readUnsignedIntEv 00000014  00000000  00000000  0000079c  2**0
                  CONTENTS, ALLOC, LOAD, RELOC, READONLY, CODE
 64 .text._ZTv0_n18_N21RandomAccessByteArray8readWordEv 00000014  00000000  00000000  000007b0  2**0
                  CONTENTS, ALLOC, LOAD, RELOC, READONLY, CODE
 65 .text._ZTv0_n20_N21RandomAccessByteArray8readLongEv 00000014  00000000  00000000  000007c4  2**0
                  CONTENTS, ALLOC, LOAD, RELOC, READONLY, CODE
 66 .text._ZTv0_n22_N21RandomAccessByteArray16readUnsignedLongEv 00000014  00000000  00000000  000007d8  2**0
                  CONTENTS, ALLOC, LOAD, RELOC, READONLY, CODE
 67 .text._ZTv0_n24_N21RandomAccessByteArray9readFloatEv 00000014  00000000  00000000  000007ec  2**0
                  CONTENTS, ALLOC, LOAD, RELOC, READONLY, CODE
 68 .text._ZTv0_n26_N21RandomAccessByteArray10readDoubleEv 00000014  00000000  00000000  00000800  2**0
                  CONTENTS, ALLOC, LOAD, RELOC, READONLY, CODE
 69 .text._ZTv0_n28_N21RandomAccessByteArray9readFullyEPhi 00000014  00000000  00000000  00000814  2**0
                  CONTENTS, ALLOC, LOAD, RELOC, READONLY, CODE
 70 .text._ZTv0_n30_N21RandomAccessByteArray9skipBytesEj 00000014  00000000  00000000  00000828  2**0
                  CONTENTS, ALLOC, LOAD, RELOC, READONLY, CODE
 71 .rodata._ZTV10DataOutput 00000020  00000000  00000000  0000083c  2**0
                  CONTENTS, ALLOC, LOAD, RELOC, READONLY, DATA
 72 .rodata._ZTV9DataInput 0000001e  00000000  00000000  0000085c  2**0
                  CONTENTS, ALLOC, LOAD, RELOC, READONLY, DATA
 73 .rodata._ZTV9Closeable 00000006  00000000  00000000  0000087a  2**0
                  CONTENTS, ALLOC, LOAD, RELOC, READONLY, DATA
 74 .rodata._ZTV8Seekable 00000006  00000000  00000000  00000880  2**0
                  CONTENTS, ALLOC, LOAD, RELOC, READONLY, DATA
 75 .rodata._ZTC21RandomAccessByteArray0_12RandomAccess 0000008c  00000000  00000000  00000886  2**0
                  CONTENTS, ALLOC, LOAD, RELOC, READONLY, DATA
 76 .rodata._ZTT21RandomAccessByteArray 00000014  00000000  00000000  00000912  2**0
                  CONTENTS, ALLOC, LOAD, RELOC, READONLY, DATA
 77 .rodata._ZTV21RandomAccessByteArray 000000aa  00000000  00000000  00000926  2**0
                  CONTENTS, ALLOC, LOAD, RELOC, READONLY, DATA
 78 .comment      00000012  00000000  00000000  000009d0  2**0
                  CONTENTS, READONLY

Disassembly of section .text._ZN21RandomAccessByteArray4seekEj:

00000000 <_ZN21RandomAccessByteArray4seekEj>:
   0:	fc 01       	movw	r30, r24
   2:	77 83       	std	Z+7, r23	; 0x07
   4:	66 83       	std	Z+6, r22	; 0x06
   6:	08 95       	ret

Disassembly of section .text._ZN21RandomAccessByteArray5closeEv:

00000008 <_ZN21RandomAccessByteArray5closeEv>:
   8:	08 95       	ret

Disassembly of section .text._ZN21RandomAccessByteArray5writeEPhi:

00000012 <_ZN21RandomAccessByteArray5writeEPhi>:
  12:	dc 01       	movw	r26, r24
  14:	ed 91       	ld	r30, X+
  16:	fc 91       	ld	r31, X
  18:	06 80       	ldd	r0, Z+6	; 0x06
  1a:	f7 81       	ldd	r31, Z+7	; 0x07
  1c:	e0 2d       	mov	r30, r0
  1e:	09 94       	ijmp

Disassembly of section .text._ZN21RandomAccessByteArray5writeEh:

00000032 <_ZN21RandomAccessByteArray5writeEh>:
  32:	fc 01       	movw	r30, r24
  34:	a2 81       	ldd	r26, Z+2	; 0x02
  36:	b3 81       	ldd	r27, Z+3	; 0x03
  38:	86 81       	ldd	r24, Z+6	; 0x06
  3a:	97 81       	ldd	r25, Z+7	; 0x07
  3c:	9c 01       	movw	r18, r24
  3e:	2f 5f       	subi	r18, 0xFF	; 255
  40:	3f 4f       	sbci	r19, 0xFF	; 255
  42:	37 83       	std	Z+7, r19	; 0x07
  44:	26 83       	std	Z+6, r18	; 0x06
  46:	a8 0f       	add	r26, r24
  48:	b9 1f       	adc	r27, r25
  4a:	6c 93       	st	X, r22
  4c:	08 95       	ret

Disassembly of section .text._ZN21RandomAccessByteArray9writeByteEh:

00000080 <_ZN21RandomAccessByteArray9writeByteEh>:
  80:	fc 01       	movw	r30, r24
  82:	a2 81       	ldd	r26, Z+2	; 0x02
  84:	b3 81       	ldd	r27, Z+3	; 0x03
  86:	86 81       	ldd	r24, Z+6	; 0x06
  88:	97 81       	ldd	r25, Z+7	; 0x07
  8a:	9c 01       	movw	r18, r24
  8c:	2f 5f       	subi	r18, 0xFF	; 255
  8e:	3f 4f       	sbci	r19, 0xFF	; 255
  90:	37 83       	std	Z+7, r19	; 0x07
  92:	26 83       	std	Z+6, r18	; 0x06
  94:	a8 0f       	add	r26, r24
  96:	b9 1f       	adc	r27, r25
  98:	6c 93       	st	X, r22
  9a:	08 95       	ret

Disassembly of section .text._ZN21RandomAccessByteArray10writeBytesEPhi:

0000011c <_ZN21RandomAccessByteArray10writeBytesEPhi>:
 11c:	cf 93       	push	r28
 11e:	df 93       	push	r29
 120:	fc 01       	movw	r30, r24
 122:	db 01       	movw	r26, r22
 124:	cd 01       	movw	r24, r26
 126:	86 1b       	sub	r24, r22
 128:	97 0b       	sbc	r25, r23
 12a:	84 17       	cp	r24, r20
 12c:	95 07       	cpc	r25, r21
 12e:	04 f4       	brge	.+0      	; 0x130 <_ZN21RandomAccessByteArray10writeBytesEPhi+0x14>
 130:	c2 81       	ldd	r28, Z+2	; 0x02
 132:	d3 81       	ldd	r29, Z+3	; 0x03
 134:	86 81       	ldd	r24, Z+6	; 0x06
 136:	97 81       	ldd	r25, Z+7	; 0x07
 138:	9c 01       	movw	r18, r24
 13a:	2f 5f       	subi	r18, 0xFF	; 255
 13c:	3f 4f       	sbci	r19, 0xFF	; 255
 13e:	37 83       	std	Z+7, r19	; 0x07
 140:	26 83       	std	Z+6, r18	; 0x06
 142:	2d 91       	ld	r18, X+
 144:	c8 0f       	add	r28, r24
 146:	d9 1f       	adc	r29, r25
 148:	28 83       	st	Y, r18
 14a:	00 c0       	rjmp	.+0      	; 0x14c <_ZN21RandomAccessByteArray10writeBytesEPhi+0x30>
 14c:	df 91       	pop	r29
 14e:	cf 91       	pop	r28
 150:	08 95       	ret

Disassembly of section .text._ZN21RandomAccessByteArray12writeBooleanEb:

0000026e <_ZN21RandomAccessByteArray12writeBooleanEb>:
 26e:	fc 01       	movw	r30, r24
 270:	a2 81       	ldd	r26, Z+2	; 0x02
 272:	b3 81       	ldd	r27, Z+3	; 0x03
 274:	86 81       	ldd	r24, Z+6	; 0x06
 276:	97 81       	ldd	r25, Z+7	; 0x07
 278:	9c 01       	movw	r18, r24
 27a:	2f 5f       	subi	r18, 0xFF	; 255
 27c:	3f 4f       	sbci	r19, 0xFF	; 255
 27e:	37 83       	std	Z+7, r19	; 0x07
 280:	26 83       	std	Z+6, r18	; 0x06
 282:	a8 0f       	add	r26, r24
 284:	b9 1f       	adc	r27, r25
 286:	6c 93       	st	X, r22
 288:	08 95       	ret

Disassembly of section .text._ZN21RandomAccessByteArray9writeCharEc:

000004f8 <_ZN21RandomAccessByteArray9writeCharEc>:
 4f8:	fc 01       	movw	r30, r24
 4fa:	a2 81       	ldd	r26, Z+2	; 0x02
 4fc:	b3 81       	ldd	r27, Z+3	; 0x03
 4fe:	86 81       	ldd	r24, Z+6	; 0x06
 500:	97 81       	ldd	r25, Z+7	; 0x07
 502:	9c 01       	movw	r18, r24
 504:	2f 5f       	subi	r18, 0xFF	; 255
 506:	3f 4f       	sbci	r19, 0xFF	; 255
 508:	37 83       	std	Z+7, r19	; 0x07
 50a:	26 83       	std	Z+6, r18	; 0x06
 50c:	a8 0f       	add	r26, r24
 50e:	b9 1f       	adc	r27, r25
 510:	6c 93       	st	X, r22
 512:	08 95       	ret

Disassembly of section .text._ZN21RandomAccessByteArray17writeUnsignedCharEh:

00000a0c <_ZN21RandomAccessByteArray17writeUnsignedCharEh>:
 a0c:	fc 01       	movw	r30, r24
 a0e:	a2 81       	ldd	r26, Z+2	; 0x02
 a10:	b3 81       	ldd	r27, Z+3	; 0x03
 a12:	86 81       	ldd	r24, Z+6	; 0x06
 a14:	97 81       	ldd	r25, Z+7	; 0x07
 a16:	9c 01       	movw	r18, r24
 a18:	2f 5f       	subi	r18, 0xFF	; 255
 a1a:	3f 4f       	sbci	r19, 0xFF	; 255
 a1c:	37 83       	std	Z+7, r19	; 0x07
 a1e:	26 83       	std	Z+6, r18	; 0x06
 a20:	a8 0f       	add	r26, r24
 a22:	b9 1f       	adc	r27, r25
 a24:	6c 93       	st	X, r22
 a26:	08 95       	ret

Disassembly of section .text._ZN21RandomAccessByteArray8writeIntEi:

00001434 <_ZN21RandomAccessByteArray8writeIntEi>:
    1434:	fc 01       	movw	r30, r24
    1436:	a2 81       	ldd	r26, Z+2	; 0x02
    1438:	b3 81       	ldd	r27, Z+3	; 0x03
    143a:	86 81       	ldd	r24, Z+6	; 0x06
    143c:	97 81       	ldd	r25, Z+7	; 0x07
    143e:	9c 01       	movw	r18, r24
    1440:	2f 5f       	subi	r18, 0xFF	; 255
    1442:	3f 4f       	sbci	r19, 0xFF	; 255
    1444:	37 83       	std	Z+7, r19	; 0x07
    1446:	26 83       	std	Z+6, r18	; 0x06
    1448:	a8 0f       	add	r26, r24
    144a:	b9 1f       	adc	r27, r25
    144c:	7c 93       	st	X, r23
    144e:	a2 81       	ldd	r26, Z+2	; 0x02
    1450:	b3 81       	ldd	r27, Z+3	; 0x03
    1452:	86 81       	ldd	r24, Z+6	; 0x06
    1454:	97 81       	ldd	r25, Z+7	; 0x07
    1456:	9c 01       	movw	r18, r24
    1458:	2f 5f       	subi	r18, 0xFF	; 255
    145a:	3f 4f       	sbci	r19, 0xFF	; 255
    145c:	37 83       	std	Z+7, r19	; 0x07
    145e:	26 83       	std	Z+6, r18	; 0x06
    1460:	a8 0f       	add	r26, r24
    1462:	b9 1f       	adc	r27, r25
    1464:	6c 93       	st	X, r22
    1466:	08 95       	ret

Disassembly of section .text._ZN21RandomAccessByteArray16writeUnsignedIntEj:

0000289c <_ZN21RandomAccessByteArray16writeUnsignedIntEj>:
    289c:	dc 01       	movw	r26, r24
    289e:	ed 91       	ld	r30, X+
    28a0:	fc 91       	ld	r31, X
    28a2:	06 84       	ldd	r0, Z+14	; 0x0e
    28a4:	f7 85       	ldd	r31, Z+15	; 0x0f
    28a6:	e0 2d       	mov	r30, r0
    28a8:	09 94       	ijmp

Disassembly of section .text._ZN21RandomAccessByteArray9writeWordEj:

00005146 <_ZN21RandomAccessByteArray9writeWordEj>:
    5146:	dc 01       	movw	r26, r24
    5148:	ed 91       	ld	r30, X+
    514a:	fc 91       	ld	r31, X
    514c:	06 84       	ldd	r0, Z+14	; 0x0e
    514e:	f7 85       	ldd	r31, Z+15	; 0x0f
    5150:	e0 2d       	mov	r30, r0
    5152:	09 94       	ijmp

Disassembly of section .text._ZN21RandomAccessByteArray9writeLongEl:

0000a29a <_ZN21RandomAccessByteArray9writeLongEl>:
    a29a:	fc 01       	movw	r30, r24
    a29c:	a2 81       	ldd	r26, Z+2	; 0x02
    a29e:	b3 81       	ldd	r27, Z+3	; 0x03
    a2a0:	86 81       	ldd	r24, Z+6	; 0x06
    a2a2:	97 81       	ldd	r25, Z+7	; 0x07
    a2a4:	9c 01       	movw	r18, r24
    a2a6:	2f 5f       	subi	r18, 0xFF	; 255
    a2a8:	3f 4f       	sbci	r19, 0xFF	; 255
    a2aa:	37 83       	std	Z+7, r19	; 0x07
    a2ac:	26 83       	std	Z+6, r18	; 0x06
    a2ae:	a8 0f       	add	r26, r24
    a2b0:	b9 1f       	adc	r27, r25
    a2b2:	7c 93       	st	X, r23
    a2b4:	a2 81       	ldd	r26, Z+2	; 0x02
    a2b6:	b3 81       	ldd	r27, Z+3	; 0x03
    a2b8:	86 81       	ldd	r24, Z+6	; 0x06
    a2ba:	97 81       	ldd	r25, Z+7	; 0x07
    a2bc:	9c 01       	movw	r18, r24
    a2be:	2f 5f       	subi	r18, 0xFF	; 255
    a2c0:	3f 4f       	sbci	r19, 0xFF	; 255
    a2c2:	37 83       	std	Z+7, r19	; 0x07
    a2c4:	26 83       	std	Z+6, r18	; 0x06
    a2c6:	a8 0f       	add	r26, r24
    a2c8:	b9 1f       	adc	r27, r25
    a2ca:	6c 93       	st	X, r22
    a2cc:	a2 81       	ldd	r26, Z+2	; 0x02
    a2ce:	b3 81       	ldd	r27, Z+3	; 0x03
    a2d0:	86 81       	ldd	r24, Z+6	; 0x06
    a2d2:	97 81       	ldd	r25, Z+7	; 0x07
    a2d4:	9c 01       	movw	r18, r24
    a2d6:	2f 5f       	subi	r18, 0xFF	; 255
    a2d8:	3f 4f       	sbci	r19, 0xFF	; 255
    a2da:	37 83       	std	Z+7, r19	; 0x07
    a2dc:	26 83       	std	Z+6, r18	; 0x06
    a2de:	a8 0f       	add	r26, r24
    a2e0:	b9 1f       	adc	r27, r25
    a2e2:	5c 93       	st	X, r21
    a2e4:	a2 81       	ldd	r26, Z+2	; 0x02
    a2e6:	b3 81       	ldd	r27, Z+3	; 0x03
    a2e8:	86 81       	ldd	r24, Z+6	; 0x06
    a2ea:	97 81       	ldd	r25, Z+7	; 0x07
    a2ec:	9c 01       	movw	r18, r24
    a2ee:	2f 5f       	subi	r18, 0xFF	; 255
    a2f0:	3f 4f       	sbci	r19, 0xFF	; 255
    a2f2:	37 83       	std	Z+7, r19	; 0x07
    a2f4:	26 83       	std	Z+6, r18	; 0x06
    a2f6:	a8 0f       	add	r26, r24
    a2f8:	b9 1f       	adc	r27, r25
    a2fa:	4c 93       	st	X, r20
    a2fc:	08 95       	ret

Disassembly of section .text._ZN21RandomAccessByteArray17writeUnsignedLongEm:

00014598 <_ZN21RandomAccessByteArray17writeUnsignedLongEm>:
   14598:	dc 01       	movw	r26, r24
   1459a:	ed 91       	ld	r30, X+
   1459c:	fc 91       	ld	r31, X
   1459e:	04 88       	ldd	r0, Z+20	; 0x14
   145a0:	f5 89       	ldd	r31, Z+21	; 0x15
   145a2:	e0 2d       	mov	r30, r0
   145a4:	09 94       	ijmp

Disassembly of section .text._ZN21RandomAccessByteArray10writeFloatEf:

00028b3e <_ZN21RandomAccessByteArray10writeFloatEf>:
   28b3e:	0f 93       	push	r16
   28b40:	1f 93       	push	r17
   28b42:	cf 93       	push	r28
   28b44:	df 93       	push	r29
   28b46:	ec 01       	movw	r28, r24
   28b48:	08 81       	ld	r16, Y
   28b4a:	19 81       	ldd	r17, Y+1	; 0x01
   28b4c:	cb 01       	movw	r24, r22
   28b4e:	ba 01       	movw	r22, r20
   28b50:	0e 94 00 00 	call	0	; 0x0 <__tmp_reg__>
   28b54:	ab 01       	movw	r20, r22
   28b56:	bc 01       	movw	r22, r24
   28b58:	d8 01       	movw	r26, r16
   28b5a:	54 96       	adiw	r26, 0x14	; 20
   28b5c:	ed 91       	ld	r30, X+
   28b5e:	fc 91       	ld	r31, X
   28b60:	55 97       	sbiw	r26, 0x15	; 21
   28b62:	ce 01       	movw	r24, r28
   28b64:	df 91       	pop	r29
   28b66:	cf 91       	pop	r28
   28b68:	1f 91       	pop	r17
   28b6a:	0f 91       	pop	r16
   28b6c:	09 94       	ijmp

Disassembly of section .text._ZN21RandomAccessByteArray11writeDoubleEd:

000516ac <_ZN21RandomAccessByteArray11writeDoubleEd>:
   516ac:	0f 93       	push	r16
   516ae:	1f 93       	push	r17
   516b0:	cf 93       	push	r28
   516b2:	df 93       	push	r29
   516b4:	ec 01       	movw	r28, r24
   516b6:	08 81       	ld	r16, Y
   516b8:	19 81       	ldd	r17, Y+1	; 0x01
   516ba:	cb 01       	movw	r24, r22
   516bc:	ba 01       	movw	r22, r20
   516be:	0e 94 00 00 	call	0	; 0x0 <__tmp_reg__>
   516c2:	ab 01       	movw	r20, r22
   516c4:	bc 01       	movw	r22, r24
   516c6:	d8 01       	movw	r26, r16
   516c8:	54 96       	adiw	r26, 0x14	; 20
   516ca:	ed 91       	ld	r30, X+
   516cc:	fc 91       	ld	r31, X
   516ce:	55 97       	sbiw	r26, 0x15	; 21
   516d0:	ce 01       	movw	r24, r28
   516d2:	df 91       	pop	r29
   516d4:	cf 91       	pop	r28
   516d6:	1f 91       	pop	r17
   516d8:	0f 91       	pop	r16
   516da:	09 94       	ijmp

Disassembly of section .text._ZN21RandomAccessByteArray8readByteEv:

000a2d88 <_ZN21RandomAccessByteArray8readByteEv>:
   a2d88:	dc 01       	movw	r26, r24
   a2d8a:	12 96       	adiw	r26, 0x02	; 2
   a2d8c:	ed 91       	ld	r30, X+
   a2d8e:	fc 91       	ld	r31, X
   a2d90:	13 97       	sbiw	r26, 0x03	; 3
   a2d92:	16 96       	adiw	r26, 0x06	; 6
   a2d94:	8d 91       	ld	r24, X+
   a2d96:	9c 91       	ld	r25, X
   a2d98:	17 97       	sbiw	r26, 0x07	; 7
   a2d9a:	9c 01       	movw	r18, r24
   a2d9c:	2f 5f       	subi	r18, 0xFF	; 255
   a2d9e:	3f 4f       	sbci	r19, 0xFF	; 255
   a2da0:	17 96       	adiw	r26, 0x07	; 7
   a2da2:	3c 93       	st	X, r19
   a2da4:	2e 93       	st	-X, r18
   a2da6:	16 97       	sbiw	r26, 0x06	; 6
   a2da8:	e8 0f       	add	r30, r24
   a2daa:	f9 1f       	adc	r31, r25
   a2dac:	80 81       	ld	r24, Z
   a2dae:	08 95       	ret

Disassembly of section .text._ZN21RandomAccessByteArray11readBooleanEv:

00145b38 <_ZN21RandomAccessByteArray11readBooleanEv>:
  145b38:	dc 01       	movw	r26, r24
  145b3a:	12 96       	adiw	r26, 0x02	; 2
  145b3c:	ed 91       	ld	r30, X+
  145b3e:	fc 91       	ld	r31, X
  145b40:	13 97       	sbiw	r26, 0x03	; 3
  145b42:	16 96       	adiw	r26, 0x06	; 6
  145b44:	8d 91       	ld	r24, X+
  145b46:	9c 91       	ld	r25, X
  145b48:	17 97       	sbiw	r26, 0x07	; 7
  145b4a:	9c 01       	movw	r18, r24
  145b4c:	2f 5f       	subi	r18, 0xFF	; 255
  145b4e:	3f 4f       	sbci	r19, 0xFF	; 255
  145b50:	17 96       	adiw	r26, 0x07	; 7
  145b52:	3c 93       	st	X, r19
  145b54:	2e 93       	st	-X, r18
  145b56:	16 97       	sbiw	r26, 0x06	; 6
  145b58:	e8 0f       	add	r30, r24
  145b5a:	f9 1f       	adc	r31, r25
  145b5c:	81 e0       	ldi	r24, 0x01	; 1
  145b5e:	90 81       	ld	r25, Z
  145b60:	91 11       	cpse	r25, r1
  145b62:	00 c0       	rjmp	.+0      	; 0x145b64 <_ZN21RandomAccessByteArray11readBooleanEv+0x2c>
  145b64:	80 e0       	ldi	r24, 0x00	; 0
  145b66:	08 95       	ret

Disassembly of section .text._ZN21RandomAccessByteArray8readCharEv:

0028b6a0 <_ZN21RandomAccessByteArray8readCharEv>:
  28b6a0:	dc 01       	movw	r26, r24
  28b6a2:	12 96       	adiw	r26, 0x02	; 2
  28b6a4:	ed 91       	ld	r30, X+
  28b6a6:	fc 91       	ld	r31, X
  28b6a8:	13 97       	sbiw	r26, 0x03	; 3
  28b6aa:	16 96       	adiw	r26, 0x06	; 6
  28b6ac:	8d 91       	ld	r24, X+
  28b6ae:	9c 91       	ld	r25, X
  28b6b0:	17 97       	sbiw	r26, 0x07	; 7
  28b6b2:	9c 01       	movw	r18, r24
  28b6b4:	2f 5f       	subi	r18, 0xFF	; 255
  28b6b6:	3f 4f       	sbci	r19, 0xFF	; 255
  28b6b8:	17 96       	adiw	r26, 0x07	; 7
  28b6ba:	3c 93       	st	X, r19
  28b6bc:	2e 93       	st	-X, r18
  28b6be:	16 97       	sbiw	r26, 0x06	; 6
  28b6c0:	e8 0f       	add	r30, r24
  28b6c2:	f9 1f       	adc	r31, r25
  28b6c4:	80 81       	ld	r24, Z
  28b6c6:	08 95       	ret

Disassembly of section .text._ZN21RandomAccessByteArray16readUnsignedCharEv:

00516d68 <_ZN21RandomAccessByteArray16readUnsignedCharEv>:
  516d68:	dc 01       	movw	r26, r24
  516d6a:	12 96       	adiw	r26, 0x02	; 2
  516d6c:	ed 91       	ld	r30, X+
  516d6e:	fc 91       	ld	r31, X
  516d70:	13 97       	sbiw	r26, 0x03	; 3
  516d72:	16 96       	adiw	r26, 0x06	; 6
  516d74:	8d 91       	ld	r24, X+
  516d76:	9c 91       	ld	r25, X
  516d78:	17 97       	sbiw	r26, 0x07	; 7
  516d7a:	9c 01       	movw	r18, r24
  516d7c:	2f 5f       	subi	r18, 0xFF	; 255
  516d7e:	3f 4f       	sbci	r19, 0xFF	; 255
  516d80:	17 96       	adiw	r26, 0x07	; 7
  516d82:	3c 93       	st	X, r19
  516d84:	2e 93       	st	-X, r18
  516d86:	16 97       	sbiw	r26, 0x06	; 6
  516d88:	e8 0f       	add	r30, r24
  516d8a:	f9 1f       	adc	r31, r25
  516d8c:	80 81       	ld	r24, Z
  516d8e:	08 95       	ret

Disassembly of section .text._ZN21RandomAccessByteArray7readIntEv:

00a2daf8 <_ZN21RandomAccessByteArray7readIntEv>:
  a2daf8:	fc 01       	movw	r30, r24
  a2dafa:	62 81       	ldd	r22, Z+2	; 0x02
  a2dafc:	73 81       	ldd	r23, Z+3	; 0x03
  a2dafe:	26 81       	ldd	r18, Z+6	; 0x06
  a2db00:	37 81       	ldd	r19, Z+7	; 0x07
  a2db02:	a9 01       	movw	r20, r18
  a2db04:	4f 5f       	subi	r20, 0xFF	; 255
  a2db06:	5f 4f       	sbci	r21, 0xFF	; 255
  a2db08:	57 83       	std	Z+7, r21	; 0x07
  a2db0a:	46 83       	std	Z+6, r20	; 0x06
  a2db0c:	db 01       	movw	r26, r22
  a2db0e:	a2 0f       	add	r26, r18
  a2db10:	b3 1f       	adc	r27, r19
  a2db12:	8c 91       	ld	r24, X
  a2db14:	90 e0       	ldi	r25, 0x00	; 0
  a2db16:	98 2f       	mov	r25, r24
  a2db18:	88 27       	eor	r24, r24
  a2db1a:	2e 5f       	subi	r18, 0xFE	; 254
  a2db1c:	3f 4f       	sbci	r19, 0xFF	; 255
  a2db1e:	37 83       	std	Z+7, r19	; 0x07
  a2db20:	26 83       	std	Z+6, r18	; 0x06
  a2db22:	fb 01       	movw	r30, r22
  a2db24:	e4 0f       	add	r30, r20
  a2db26:	f5 1f       	adc	r31, r21
  a2db28:	20 81       	ld	r18, Z
  a2db2a:	82 2b       	or	r24, r18
  a2db2c:	08 95       	ret

Disassembly of section .text._ZN21RandomAccessByteArray15readUnsignedIntEv:

0145b626 <_ZN21RandomAccessByteArray15readUnsignedIntEv>:
 145b626:	dc 01       	movw	r26, r24
 145b628:	ed 91       	ld	r30, X+
 145b62a:	fc 91       	ld	r31, X
 145b62c:	00 a4       	ldd	r0, Z+40	; 0x28
 145b62e:	f1 a5       	ldd	r31, Z+41	; 0x29
 145b630:	e0 2d       	mov	r30, r0
 145b632:	09 94       	ijmp

Disassembly of section .text._ZN21RandomAccessByteArray8readWordEv:

028b6c5a <_ZN21RandomAccessByteArray8readWordEv>:
 28b6c5a:	dc 01       	movw	r26, r24
 28b6c5c:	ed 91       	ld	r30, X+
 28b6c5e:	fc 91       	ld	r31, X
 28b6c60:	00 a4       	ldd	r0, Z+40	; 0x28
 28b6c62:	f1 a5       	ldd	r31, Z+41	; 0x29
 28b6c64:	e0 2d       	mov	r30, r0
 28b6c66:	09 94       	ijmp

Disassembly of section .text._ZN21RandomAccessByteArray8readLongEv:

0516d8c2 <_ZN21RandomAccessByteArray8readLongEv>:
 516d8c2:	cf 92       	push	r12
 516d8c4:	df 92       	push	r13
 516d8c6:	ef 92       	push	r14
 516d8c8:	ff 92       	push	r15
 516d8ca:	cf 93       	push	r28
 516d8cc:	df 93       	push	r29
 516d8ce:	fc 01       	movw	r30, r24
 516d8d0:	42 81       	ldd	r20, Z+2	; 0x02
 516d8d2:	53 81       	ldd	r21, Z+3	; 0x03
 516d8d4:	26 81       	ldd	r18, Z+6	; 0x06
 516d8d6:	37 81       	ldd	r19, Z+7	; 0x07
 516d8d8:	d9 01       	movw	r26, r18
 516d8da:	11 96       	adiw	r26, 0x01	; 1
 516d8dc:	b7 83       	std	Z+7, r27	; 0x07
 516d8de:	a6 83       	std	Z+6, r26	; 0x06
 516d8e0:	ea 01       	movw	r28, r20
 516d8e2:	c2 0f       	add	r28, r18
 516d8e4:	d3 1f       	adc	r29, r19
 516d8e6:	68 81       	ld	r22, Y
 516d8e8:	c6 2e       	mov	r12, r22
 516d8ea:	d1 2c       	mov	r13, r1
 516d8ec:	e1 2c       	mov	r14, r1
 516d8ee:	f1 2c       	mov	r15, r1
 516d8f0:	fe 2c       	mov	r15, r14
 516d8f2:	ed 2c       	mov	r14, r13
 516d8f4:	dc 2c       	mov	r13, r12
 516d8f6:	cc 24       	eor	r12, r12
 516d8f8:	e9 01       	movw	r28, r18
 516d8fa:	22 96       	adiw	r28, 0x02	; 2
 516d8fc:	d7 83       	std	Z+7, r29	; 0x07
 516d8fe:	c6 83       	std	Z+6, r28	; 0x06
 516d900:	a4 0f       	add	r26, r20
 516d902:	b5 1f       	adc	r27, r21
 516d904:	ac 91       	ld	r26, X
 516d906:	ca 2a       	or	r12, r26
 516d908:	fe 2c       	mov	r15, r14
 516d90a:	ed 2c       	mov	r14, r13
 516d90c:	dc 2c       	mov	r13, r12
 516d90e:	cc 24       	eor	r12, r12
 516d910:	d9 01       	movw	r26, r18
 516d912:	13 96       	adiw	r26, 0x03	; 3
 516d914:	b7 83       	std	Z+7, r27	; 0x07
 516d916:	a6 83       	std	Z+6, r26	; 0x06
 516d918:	c4 0f       	add	r28, r20
 516d91a:	d5 1f       	adc	r29, r21
 516d91c:	c8 81       	ld	r28, Y
 516d91e:	cc 2a       	or	r12, r28
 516d920:	9e 2d       	mov	r25, r14
 516d922:	8d 2d       	mov	r24, r13
 516d924:	7c 2d       	mov	r23, r12
 516d926:	66 27       	eor	r22, r22
 516d928:	2c 5f       	subi	r18, 0xFC	; 252
 516d92a:	3f 4f       	sbci	r19, 0xFF	; 255
 516d92c:	37 83       	std	Z+7, r19	; 0x07
 516d92e:	26 83       	std	Z+6, r18	; 0x06
 516d930:	a4 0f       	add	r26, r20
 516d932:	b5 1f       	adc	r27, r21
 516d934:	2c 91       	ld	r18, X
 516d936:	62 2b       	or	r22, r18
 516d938:	df 91       	pop	r29
 516d93a:	cf 91       	pop	r28
 516d93c:	ff 90       	pop	r15
 516d93e:	ef 90       	pop	r14
 516d940:	df 90       	pop	r13
 516d942:	cf 90       	pop	r12
 516d944:	08 95       	ret

Disassembly of section .text._ZN21RandomAccessByteArray16readUnsignedLongEv:

0a2db208 <_ZN21RandomAccessByteArray16readUnsignedLongEv>:
 a2db208:	dc 01       	movw	r26, r24
 a2db20a:	ed 91       	ld	r30, X+
 a2db20c:	fc 91       	ld	r31, X
 a2db20e:	06 a4       	ldd	r0, Z+46	; 0x2e
 a2db210:	f7 a5       	ldd	r31, Z+47	; 0x2f
 a2db212:	e0 2d       	mov	r30, r0
 a2db214:	09 94       	ijmp

Disassembly of section .text._ZN21RandomAccessByteArray9readFloatEv:

145b641e <_ZN21RandomAccessByteArray9readFloatEv>:
145b641e:	dc 01       	movw	r26, r24
145b6420:	ed 91       	ld	r30, X+
145b6422:	fc 91       	ld	r31, X
145b6424:	06 a4       	ldd	r0, Z+46	; 0x2e
145b6426:	f7 a5       	ldd	r31, Z+47	; 0x2f
145b6428:	e0 2d       	mov	r30, r0
145b642a:	09 95       	icall
145b642c:	0e 94 00 00 	call	0	; 0x0 <__tmp_reg__>
145b6430:	08 95       	ret

Disassembly of section .text._ZN21RandomAccessByteArray10readDoubleEv:

28b6c850 <_ZN21RandomAccessByteArray10readDoubleEv>:
28b6c850:	dc 01       	movw	r26, r24
28b6c852:	ed 91       	ld	r30, X+
28b6c854:	fc 91       	ld	r31, X
28b6c856:	06 a4       	ldd	r0, Z+46	; 0x2e
28b6c858:	f7 a5       	ldd	r31, Z+47	; 0x2f
28b6c85a:	e0 2d       	mov	r30, r0
28b6c85c:	09 95       	icall
28b6c85e:	0e 94 00 00 	call	0	; 0x0 <__tmp_reg__>
28b6c862:	08 95       	ret

Disassembly of section .text._ZN21RandomAccessByteArray9readFullyEPhi:

516d90b4 <_ZN21RandomAccessByteArray9readFullyEPhi>:
516d90b4:	cf 93       	push	r28
516d90b6:	df 93       	push	r29
516d90b8:	fc 01       	movw	r30, r24
516d90ba:	db 01       	movw	r26, r22
516d90bc:	cd 01       	movw	r24, r26
516d90be:	86 1b       	sub	r24, r22
516d90c0:	97 0b       	sbc	r25, r23
516d90c2:	84 17       	cp	r24, r20
516d90c4:	95 07       	cpc	r25, r21
516d90c6:	04 f4       	brge	.+0      	; 0x516d90c8 <_ZN21RandomAccessByteArray9readFullyEPhi+0x14>
516d90c8:	c2 81       	ldd	r28, Z+2	; 0x02
516d90ca:	d3 81       	ldd	r29, Z+3	; 0x03
516d90cc:	86 81       	ldd	r24, Z+6	; 0x06
516d90ce:	97 81       	ldd	r25, Z+7	; 0x07
516d90d0:	9c 01       	movw	r18, r24
516d90d2:	2f 5f       	subi	r18, 0xFF	; 255
516d90d4:	3f 4f       	sbci	r19, 0xFF	; 255
516d90d6:	37 83       	std	Z+7, r19	; 0x07
516d90d8:	26 83       	std	Z+6, r18	; 0x06
516d90da:	c8 0f       	add	r28, r24
516d90dc:	d9 1f       	adc	r29, r25
516d90de:	88 81       	ld	r24, Y
516d90e0:	8d 93       	st	X+, r24
516d90e2:	00 c0       	rjmp	.+0      	; 0x516d90e4 <_ZN21RandomAccessByteArray9readFullyEPhi+0x30>
516d90e4:	df 91       	pop	r29
516d90e6:	cf 91       	pop	r28
516d90e8:	08 95       	ret

Disassembly of section .text._ZN21RandomAccessByteArray9skipBytesEj:

a2db219e <_ZN21RandomAccessByteArray9skipBytesEj>:
a2db219e:	fc 01       	movw	r30, r24
a2db21a0:	86 81       	ldd	r24, Z+6	; 0x06
a2db21a2:	97 81       	ldd	r25, Z+7	; 0x07
a2db21a4:	24 81       	ldd	r18, Z+4	; 0x04
a2db21a6:	35 81       	ldd	r19, Z+5	; 0x05
a2db21a8:	68 0f       	add	r22, r24
a2db21aa:	79 1f       	adc	r23, r25
a2db21ac:	26 17       	cp	r18, r22
a2db21ae:	37 07       	cpc	r19, r23
a2db21b0:	00 f4       	brcc	.+0      	; 0xa2db21b2 <_ZN21RandomAccessByteArray9skipBytesEj+0x14>
a2db21b2:	b9 01       	movw	r22, r18
a2db21b4:	77 83       	std	Z+7, r23	; 0x07
a2db21b6:	66 83       	std	Z+6, r22	; 0x06
a2db21b8:	9b 01       	movw	r18, r22
a2db21ba:	28 1b       	sub	r18, r24
a2db21bc:	39 0b       	sbc	r19, r25
a2db21be:	c9 01       	movw	r24, r18
a2db21c0:	08 95       	ret

Disassembly of section .text._ZN12RandomAccessC2Ev:

45b64360 <_ZN12RandomAccessC2Ev>:
45b64360:	fb 01       	movw	r30, r22
45b64362:	20 81       	ld	r18, Z
45b64364:	31 81       	ldd	r19, Z+1	; 0x01
45b64366:	dc 01       	movw	r26, r24
45b64368:	2d 93       	st	X+, r18
45b6436a:	3c 93       	st	X, r19
45b6436c:	42 81       	ldd	r20, Z+2	; 0x02
45b6436e:	53 81       	ldd	r21, Z+3	; 0x03
45b64370:	d9 01       	movw	r26, r18
45b64372:	92 97       	sbiw	r26, 0x22	; 34
45b64374:	0d 90       	ld	r0, X+
45b64376:	bc 91       	ld	r27, X
45b64378:	a0 2d       	mov	r26, r0
45b6437a:	a8 0f       	add	r26, r24
45b6437c:	b9 1f       	adc	r27, r25
45b6437e:	4d 93       	st	X+, r20
45b64380:	5c 93       	st	X, r21
45b64382:	dc 01       	movw	r26, r24
45b64384:	2d 91       	ld	r18, X+
45b64386:	3c 91       	ld	r19, X
45b64388:	44 81       	ldd	r20, Z+4	; 0x04
45b6438a:	55 81       	ldd	r21, Z+5	; 0x05
45b6438c:	d9 01       	movw	r26, r18
45b6438e:	94 97       	sbiw	r26, 0x24	; 36
45b64390:	0d 90       	ld	r0, X+
45b64392:	bc 91       	ld	r27, X
45b64394:	a0 2d       	mov	r26, r0
45b64396:	a8 0f       	add	r26, r24
45b64398:	b9 1f       	adc	r27, r25
45b6439a:	4d 93       	st	X+, r20
45b6439c:	5c 93       	st	X, r21
45b6439e:	46 81       	ldd	r20, Z+6	; 0x06
45b643a0:	57 81       	ldd	r21, Z+7	; 0x07
45b643a2:	d9 01       	movw	r26, r18
45b643a4:	96 97       	sbiw	r26, 0x26	; 38
45b643a6:	0d 90       	ld	r0, X+
45b643a8:	bc 91       	ld	r27, X
45b643aa:	a0 2d       	mov	r26, r0
45b643ac:	a8 0f       	add	r26, r24
45b643ae:	b9 1f       	adc	r27, r25
45b643b0:	4d 93       	st	X+, r20
45b643b2:	5c 93       	st	X, r21
45b643b4:	40 85       	ldd	r20, Z+8	; 0x08
45b643b6:	51 85       	ldd	r21, Z+9	; 0x09
45b643b8:	f9 01       	movw	r30, r18
45b643ba:	b8 97       	sbiw	r30, 0x28	; 40
45b643bc:	01 90       	ld	r0, Z+
45b643be:	f0 81       	ld	r31, Z
45b643c0:	e0 2d       	mov	r30, r0
45b643c2:	e8 0f       	add	r30, r24
45b643c4:	f9 1f       	adc	r31, r25
45b643c6:	51 83       	std	Z+1, r21	; 0x01
45b643c8:	40 83       	st	Z, r20
45b643ca:	08 95       	ret

Disassembly of section .text._ZN21RandomAccessByteArrayC2EPhj:

8b6c872c <_ZN21RandomAccessByteArrayC2EPhj>:
8b6c872c:	cf 92       	push	r12
8b6c872e:	df 92       	push	r13
8b6c8730:	ef 92       	push	r14
8b6c8732:	ff 92       	push	r15
8b6c8734:	0f 93       	push	r16
8b6c8736:	1f 93       	push	r17
8b6c8738:	cf 93       	push	r28
8b6c873a:	df 93       	push	r29
8b6c873c:	ec 01       	movw	r28, r24
8b6c873e:	8b 01       	movw	r16, r22
8b6c8740:	6a 01       	movw	r12, r20
8b6c8742:	79 01       	movw	r14, r18
8b6c8744:	6e 5f       	subi	r22, 0xFE	; 254
8b6c8746:	7f 4f       	sbci	r23, 0xFF	; 255
8b6c8748:	0e 94 00 00 	call	0	; 0x0 <__tmp_reg__>
8b6c874c:	f8 01       	movw	r30, r16
8b6c874e:	80 81       	ld	r24, Z
8b6c8750:	91 81       	ldd	r25, Z+1	; 0x01
8b6c8752:	99 83       	std	Y+1, r25	; 0x01
8b6c8754:	88 83       	st	Y, r24
8b6c8756:	24 85       	ldd	r18, Z+12	; 0x0c
8b6c8758:	35 85       	ldd	r19, Z+13	; 0x0d
8b6c875a:	fc 01       	movw	r30, r24
8b6c875c:	b2 97       	sbiw	r30, 0x22	; 34
8b6c875e:	01 90       	ld	r0, Z+
8b6c8760:	f0 81       	ld	r31, Z
8b6c8762:	e0 2d       	mov	r30, r0
8b6c8764:	ec 0f       	add	r30, r28
8b6c8766:	fd 1f       	adc	r31, r29
8b6c8768:	31 83       	std	Z+1, r19	; 0x01
8b6c876a:	20 83       	st	Z, r18
8b6c876c:	88 81       	ld	r24, Y
8b6c876e:	99 81       	ldd	r25, Y+1	; 0x01
8b6c8770:	f8 01       	movw	r30, r16
8b6c8772:	26 85       	ldd	r18, Z+14	; 0x0e
8b6c8774:	37 85       	ldd	r19, Z+15	; 0x0f
8b6c8776:	fc 01       	movw	r30, r24
8b6c8778:	b4 97       	sbiw	r30, 0x24	; 36
8b6c877a:	01 90       	ld	r0, Z+
8b6c877c:	f0 81       	ld	r31, Z
8b6c877e:	e0 2d       	mov	r30, r0
8b6c8780:	ec 0f       	add	r30, r28
8b6c8782:	fd 1f       	adc	r31, r29
8b6c8784:	31 83       	std	Z+1, r19	; 0x01
8b6c8786:	20 83       	st	Z, r18
8b6c8788:	f8 01       	movw	r30, r16
8b6c878a:	20 89       	ldd	r18, Z+16	; 0x10
8b6c878c:	31 89       	ldd	r19, Z+17	; 0x11
8b6c878e:	fc 01       	movw	r30, r24
8b6c8790:	b6 97       	sbiw	r30, 0x26	; 38
8b6c8792:	01 90       	ld	r0, Z+
8b6c8794:	f0 81       	ld	r31, Z
8b6c8796:	e0 2d       	mov	r30, r0
8b6c8798:	ec 0f       	add	r30, r28
8b6c879a:	fd 1f       	adc	r31, r29
8b6c879c:	31 83       	std	Z+1, r19	; 0x01
8b6c879e:	20 83       	st	Z, r18
8b6c87a0:	f8 01       	movw	r30, r16
8b6c87a2:	22 89       	ldd	r18, Z+18	; 0x12
8b6c87a4:	33 89       	ldd	r19, Z+19	; 0x13
8b6c87a6:	fc 01       	movw	r30, r24
8b6c87a8:	b8 97       	sbiw	r30, 0x28	; 40
8b6c87aa:	01 90       	ld	r0, Z+
8b6c87ac:	f0 81       	ld	r31, Z
8b6c87ae:	e0 2d       	mov	r30, r0
8b6c87b0:	ec 0f       	add	r30, r28
8b6c87b2:	fd 1f       	adc	r31, r29
8b6c87b4:	31 83       	std	Z+1, r19	; 0x01
8b6c87b6:	20 83       	st	Z, r18
8b6c87b8:	db 82       	std	Y+3, r13	; 0x03
8b6c87ba:	ca 82       	std	Y+2, r12	; 0x02
8b6c87bc:	fd 82       	std	Y+5, r15	; 0x05
8b6c87be:	ec 82       	std	Y+4, r14	; 0x04
8b6c87c0:	1f 82       	std	Y+7, r1	; 0x07
8b6c87c2:	1e 82       	std	Y+6, r1	; 0x06
8b6c87c4:	df 91       	pop	r29
8b6c87c6:	cf 91       	pop	r28
8b6c87c8:	1f 91       	pop	r17
8b6c87ca:	0f 91       	pop	r16
8b6c87cc:	ff 90       	pop	r15
8b6c87ce:	ef 90       	pop	r14
8b6c87d0:	df 90       	pop	r13
8b6c87d2:	cf 90       	pop	r12
8b6c87d4:	08 95       	ret

Disassembly of section .text._ZN21RandomAccessByteArrayC1EPhj:

16d90f02 <_ZN21RandomAccessByteArrayC1EPhj>:
16d90f02:	ef 92       	push	r14
16d90f04:	ff 92       	push	r15
16d90f06:	0f 93       	push	r16
16d90f08:	1f 93       	push	r17
16d90f0a:	cf 93       	push	r28
16d90f0c:	df 93       	push	r29
16d90f0e:	ec 01       	movw	r28, r24
16d90f10:	8b 01       	movw	r16, r22
16d90f12:	7a 01       	movw	r14, r20
16d90f14:	80 e0       	ldi	r24, 0x00	; 0
16d90f16:	90 e0       	ldi	r25, 0x00	; 0
16d90f18:	99 83       	std	Y+1, r25	; 0x01
16d90f1a:	88 83       	st	Y, r24
16d90f1c:	80 e0       	ldi	r24, 0x00	; 0
16d90f1e:	90 e0       	ldi	r25, 0x00	; 0
16d90f20:	99 87       	std	Y+9, r25	; 0x09
16d90f22:	88 87       	std	Y+8, r24	; 0x08
16d90f24:	80 e0       	ldi	r24, 0x00	; 0
16d90f26:	90 e0       	ldi	r25, 0x00	; 0
16d90f28:	9b 87       	std	Y+11, r25	; 0x0b
16d90f2a:	8a 87       	std	Y+10, r24	; 0x0a
16d90f2c:	80 e0       	ldi	r24, 0x00	; 0
16d90f2e:	90 e0       	ldi	r25, 0x00	; 0
16d90f30:	9d 87       	std	Y+13, r25	; 0x0d
16d90f32:	8c 87       	std	Y+12, r24	; 0x0c
16d90f34:	60 e0       	ldi	r22, 0x00	; 0
16d90f36:	70 e0       	ldi	r23, 0x00	; 0
16d90f38:	ce 01       	movw	r24, r28
16d90f3a:	0e 94 00 00 	call	0	; 0x0 <__tmp_reg__>
16d90f3e:	80 e0       	ldi	r24, 0x00	; 0
16d90f40:	90 e0       	ldi	r25, 0x00	; 0
16d90f42:	99 83       	std	Y+1, r25	; 0x01
16d90f44:	88 83       	st	Y, r24
16d90f46:	80 e0       	ldi	r24, 0x00	; 0
16d90f48:	90 e0       	ldi	r25, 0x00	; 0
16d90f4a:	99 87       	std	Y+9, r25	; 0x09
16d90f4c:	88 87       	std	Y+8, r24	; 0x08
16d90f4e:	80 e0       	ldi	r24, 0x00	; 0
16d90f50:	90 e0       	ldi	r25, 0x00	; 0
16d90f52:	9b 87       	std	Y+11, r25	; 0x0b
16d90f54:	8a 87       	std	Y+10, r24	; 0x0a
16d90f56:	80 e0       	ldi	r24, 0x00	; 0
16d90f58:	90 e0       	ldi	r25, 0x00	; 0
16d90f5a:	9d 87       	std	Y+13, r25	; 0x0d
16d90f5c:	8c 87       	std	Y+12, r24	; 0x0c
16d90f5e:	1b 83       	std	Y+3, r17	; 0x03
16d90f60:	0a 83       	std	Y+2, r16	; 0x02
16d90f62:	fd 82       	std	Y+5, r15	; 0x05
16d90f64:	ec 82       	std	Y+4, r14	; 0x04
16d90f66:	1f 82       	std	Y+7, r1	; 0x07
16d90f68:	1e 82       	std	Y+6, r1	; 0x06
16d90f6a:	df 91       	pop	r29
16d90f6c:	cf 91       	pop	r28
16d90f6e:	1f 91       	pop	r17
16d90f70:	0f 91       	pop	r16
16d90f72:	ff 90       	pop	r15
16d90f74:	ef 90       	pop	r14
16d90f76:	08 95       	ret

Disassembly of section .text._ZN21RandomAccessByteArray6lengthEv:

2db21e7a <_ZN21RandomAccessByteArray6lengthEv>:
2db21e7a:	fc 01       	movw	r30, r24
2db21e7c:	84 81       	ldd	r24, Z+4	; 0x04
2db21e7e:	95 81       	ldd	r25, Z+5	; 0x05
2db21e80:	08 95       	ret

Disassembly of section .text._ZTv0_n6_N21RandomAccessByteArray4seekEj:

5b643cfc <_ZTv0_n6_N21RandomAccessByteArray4seekEj>:
5b643cfc:	dc 01       	movw	r26, r24
5b643cfe:	ed 91       	ld	r30, X+
5b643d00:	fc 91       	ld	r31, X
5b643d02:	36 97       	sbiw	r30, 0x06	; 6
5b643d04:	20 81       	ld	r18, Z
5b643d06:	31 81       	ldd	r19, Z+1	; 0x01
5b643d08:	82 0f       	add	r24, r18
5b643d0a:	93 1f       	adc	r25, r19
5b643d0c:	0c 94 00 00 	jmp	0	; 0x0 <__tmp_reg__>

Disassembly of section .text._ZTv0_n6_N21RandomAccessByteArray5closeEv:

b6c87a0c <_ZTv0_n6_N21RandomAccessByteArray5closeEv>:
b6c87a0c:	08 95       	ret

Disassembly of section .text._ZTv0_n6_N21RandomAccessByteArray5writeEPhi:

6d90f41a <_ZTv0_n6_N21RandomAccessByteArray5writeEPhi>:
6d90f41a:	dc 01       	movw	r26, r24
6d90f41c:	ed 91       	ld	r30, X+
6d90f41e:	fc 91       	ld	r31, X
6d90f420:	36 97       	sbiw	r30, 0x06	; 6
6d90f422:	20 81       	ld	r18, Z
6d90f424:	31 81       	ldd	r19, Z+1	; 0x01
6d90f426:	82 0f       	add	r24, r18
6d90f428:	93 1f       	adc	r25, r19
6d90f42a:	0c 94 00 00 	jmp	0	; 0x0 <__tmp_reg__>

Disassembly of section .text._ZTv0_n8_N21RandomAccessByteArray5writeEh:

db21e848 <_ZTv0_n8_N21RandomAccessByteArray5writeEh>:
db21e848:	dc 01       	movw	r26, r24
db21e84a:	ed 91       	ld	r30, X+
db21e84c:	fc 91       	ld	r31, X
db21e84e:	38 97       	sbiw	r30, 0x08	; 8
db21e850:	20 81       	ld	r18, Z
db21e852:	31 81       	ldd	r19, Z+1	; 0x01
db21e854:	82 0f       	add	r24, r18
db21e856:	93 1f       	adc	r25, r19
db21e858:	0c 94 00 00 	jmp	0	; 0x0 <__tmp_reg__>

Disassembly of section .text._ZTv0_n10_N21RandomAccessByteArray9writeByteEh:

b643d0a4 <_ZTv0_n10_N21RandomAccessByteArray9writeByteEh>:
b643d0a4:	dc 01       	movw	r26, r24
b643d0a6:	ed 91       	ld	r30, X+
b643d0a8:	fc 91       	ld	r31, X
b643d0aa:	3a 97       	sbiw	r30, 0x0a	; 10
b643d0ac:	20 81       	ld	r18, Z
b643d0ae:	31 81       	ldd	r19, Z+1	; 0x01
b643d0b0:	82 0f       	add	r24, r18
b643d0b2:	93 1f       	adc	r25, r19
b643d0b4:	0c 94 00 00 	jmp	0	; 0x0 <__tmp_reg__>

Disassembly of section .text._ZTv0_n12_N21RandomAccessByteArray10writeBytesEPhi:

6c87a15c <_ZTv0_n12_N21RandomAccessByteArray10writeBytesEPhi>:
6c87a15c:	dc 01       	movw	r26, r24
6c87a15e:	ed 91       	ld	r30, X+
6c87a160:	fc 91       	ld	r31, X
6c87a162:	3c 97       	sbiw	r30, 0x0c	; 12
6c87a164:	20 81       	ld	r18, Z
6c87a166:	31 81       	ldd	r19, Z+1	; 0x01
6c87a168:	82 0f       	add	r24, r18
6c87a16a:	93 1f       	adc	r25, r19
6c87a16c:	0c 94 00 00 	jmp	0	; 0x0 <__tmp_reg__>

Disassembly of section .text._ZTv0_n14_N21RandomAccessByteArray12writeBooleanEb:

d90f42cc <_ZTv0_n14_N21RandomAccessByteArray12writeBooleanEb>:
d90f42cc:	dc 01       	movw	r26, r24
d90f42ce:	ed 91       	ld	r30, X+
d90f42d0:	fc 91       	ld	r31, X
d90f42d2:	3e 97       	sbiw	r30, 0x0e	; 14
d90f42d4:	20 81       	ld	r18, Z
d90f42d6:	31 81       	ldd	r19, Z+1	; 0x01
d90f42d8:	82 0f       	add	r24, r18
d90f42da:	93 1f       	adc	r25, r19
d90f42dc:	0c 94 00 00 	jmp	0	; 0x0 <__tmp_reg__>

Disassembly of section .text._ZTv0_n16_N21RandomAccessByteArray9writeCharEc:

b21e85ac <_ZTv0_n16_N21RandomAccessByteArray9writeCharEc>:
b21e85ac:	dc 01       	movw	r26, r24
b21e85ae:	ed 91       	ld	r30, X+
b21e85b0:	fc 91       	ld	r31, X
b21e85b2:	70 97       	sbiw	r30, 0x10	; 16
b21e85b4:	20 81       	ld	r18, Z
b21e85b6:	31 81       	ldd	r19, Z+1	; 0x01
b21e85b8:	82 0f       	add	r24, r18
b21e85ba:	93 1f       	adc	r25, r19
b21e85bc:	0c 94 00 00 	jmp	0	; 0x0 <__tmp_reg__>

Disassembly of section .text._ZTv0_n18_N21RandomAccessByteArray17writeUnsignedCharEh:

643d0b6c <_ZTv0_n18_N21RandomAccessByteArray17writeUnsignedCharEh>:
643d0b6c:	dc 01       	movw	r26, r24
643d0b6e:	ed 91       	ld	r30, X+
643d0b70:	fc 91       	ld	r31, X
643d0b72:	72 97       	sbiw	r30, 0x12	; 18
643d0b74:	20 81       	ld	r18, Z
643d0b76:	31 81       	ldd	r19, Z+1	; 0x01
643d0b78:	82 0f       	add	r24, r18
643d0b7a:	93 1f       	adc	r25, r19
643d0b7c:	0c 94 00 00 	jmp	0	; 0x0 <__tmp_reg__>

Disassembly of section .text._ZTv0_n20_N21RandomAccessByteArray8writeIntEi:

c87a16ec <_ZTv0_n20_N21RandomAccessByteArray8writeIntEi>:
c87a16ec:	dc 01       	movw	r26, r24
c87a16ee:	ed 91       	ld	r30, X+
c87a16f0:	fc 91       	ld	r31, X
c87a16f2:	74 97       	sbiw	r30, 0x14	; 20
c87a16f4:	20 81       	ld	r18, Z
c87a16f6:	31 81       	ldd	r19, Z+1	; 0x01
c87a16f8:	82 0f       	add	r24, r18
c87a16fa:	93 1f       	adc	r25, r19
c87a16fc:	0c 94 00 00 	jmp	0	; 0x0 <__tmp_reg__>

Disassembly of section .text._ZTv0_n22_N21RandomAccessByteArray16writeUnsignedIntEj:

90f42dec <_ZTv0_n22_N21RandomAccessByteArray16writeUnsignedIntEj>:
90f42dec:	dc 01       	movw	r26, r24
90f42dee:	ed 91       	ld	r30, X+
90f42df0:	fc 91       	ld	r31, X
90f42df2:	76 97       	sbiw	r30, 0x16	; 22
90f42df4:	20 81       	ld	r18, Z
90f42df6:	31 81       	ldd	r19, Z+1	; 0x01
90f42df8:	82 0f       	add	r24, r18
90f42dfa:	93 1f       	adc	r25, r19
90f42dfc:	0c 94 00 00 	jmp	0	; 0x0 <__tmp_reg__>

Disassembly of section .text._ZTv0_n24_N21RandomAccessByteArray9writeWordEj:

21e85bec <_ZTv0_n24_N21RandomAccessByteArray9writeWordEj>:
21e85bec:	dc 01       	movw	r26, r24
21e85bee:	ed 91       	ld	r30, X+
21e85bf0:	fc 91       	ld	r31, X
21e85bf2:	78 97       	sbiw	r30, 0x18	; 24
21e85bf4:	20 81       	ld	r18, Z
21e85bf6:	31 81       	ldd	r19, Z+1	; 0x01
21e85bf8:	82 0f       	add	r24, r18
21e85bfa:	93 1f       	adc	r25, r19
21e85bfc:	0c 94 00 00 	jmp	0	; 0x0 <__tmp_reg__>

Disassembly of section .text._ZTv0_n26_N21RandomAccessByteArray9writeLongEl:

43d0b7ec <_ZTv0_n26_N21RandomAccessByteArray9writeLongEl>:
43d0b7ec:	dc 01       	movw	r26, r24
43d0b7ee:	ed 91       	ld	r30, X+
43d0b7f0:	fc 91       	ld	r31, X
43d0b7f2:	7a 97       	sbiw	r30, 0x1a	; 26
43d0b7f4:	20 81       	ld	r18, Z
43d0b7f6:	31 81       	ldd	r19, Z+1	; 0x01
43d0b7f8:	82 0f       	add	r24, r18
43d0b7fa:	93 1f       	adc	r25, r19
43d0b7fc:	0c 94 00 00 	jmp	0	; 0x0 <__tmp_reg__>

Disassembly of section .text._ZTv0_n28_N21RandomAccessByteArray17writeUnsignedLongEm:

87a16fec <_ZTv0_n28_N21RandomAccessByteArray17writeUnsignedLongEm>:
87a16fec:	dc 01       	movw	r26, r24
87a16fee:	ed 91       	ld	r30, X+
87a16ff0:	fc 91       	ld	r31, X
87a16ff2:	7c 97       	sbiw	r30, 0x1c	; 28
87a16ff4:	20 81       	ld	r18, Z
87a16ff6:	31 81       	ldd	r19, Z+1	; 0x01
87a16ff8:	82 0f       	add	r24, r18
87a16ffa:	93 1f       	adc	r25, r19
87a16ffc:	0c 94 00 00 	jmp	0	; 0x0 <__tmp_reg__>

Disassembly of section .text._ZTv0_n30_N21RandomAccessByteArray10writeFloatEf:

0f42dfec <_ZTv0_n30_N21RandomAccessByteArray10writeFloatEf>:
 f42dfec:	dc 01       	movw	r26, r24
 f42dfee:	ed 91       	ld	r30, X+
 f42dff0:	fc 91       	ld	r31, X
 f42dff2:	7e 97       	sbiw	r30, 0x1e	; 30
 f42dff4:	20 81       	ld	r18, Z
 f42dff6:	31 81       	ldd	r19, Z+1	; 0x01
 f42dff8:	82 0f       	add	r24, r18
 f42dffa:	93 1f       	adc	r25, r19
 f42dffc:	0c 94 00 00 	jmp	0	; 0x0 <__tmp_reg__>

Disassembly of section .text._ZTv0_n32_N21RandomAccessByteArray11writeDoubleEd:

1e85bfec <_ZTv0_n32_N21RandomAccessByteArray11writeDoubleEd>:
1e85bfec:	dc 01       	movw	r26, r24
1e85bfee:	ed 91       	ld	r30, X+
1e85bff0:	fc 91       	ld	r31, X
1e85bff2:	b0 97       	sbiw	r30, 0x20	; 32
1e85bff4:	20 81       	ld	r18, Z
1e85bff6:	31 81       	ldd	r19, Z+1	; 0x01
1e85bff8:	82 0f       	add	r24, r18
1e85bffa:	93 1f       	adc	r25, r19
1e85bffc:	0c 94 00 00 	jmp	0	; 0x0 <__tmp_reg__>

Disassembly of section .text._ZTv0_n6_N21RandomAccessByteArray8readByteEv:

3d0b7fec <_ZTv0_n6_N21RandomAccessByteArray8readByteEv>:
3d0b7fec:	dc 01       	movw	r26, r24
3d0b7fee:	ed 91       	ld	r30, X+
3d0b7ff0:	fc 91       	ld	r31, X
3d0b7ff2:	36 97       	sbiw	r30, 0x06	; 6
3d0b7ff4:	20 81       	ld	r18, Z
3d0b7ff6:	31 81       	ldd	r19, Z+1	; 0x01
3d0b7ff8:	82 0f       	add	r24, r18
3d0b7ffa:	93 1f       	adc	r25, r19
3d0b7ffc:	0c 94 00 00 	jmp	0	; 0x0 <__tmp_reg__>

Disassembly of section .text._ZTv0_n8_N21RandomAccessByteArray11readBooleanEv:

7a16ffec <_ZTv0_n8_N21RandomAccessByteArray11readBooleanEv>:
7a16ffec:	dc 01       	movw	r26, r24
7a16ffee:	ed 91       	ld	r30, X+
7a16fff0:	fc 91       	ld	r31, X
7a16fff2:	38 97       	sbiw	r30, 0x08	; 8
7a16fff4:	20 81       	ld	r18, Z
7a16fff6:	31 81       	ldd	r19, Z+1	; 0x01
7a16fff8:	82 0f       	add	r24, r18
7a16fffa:	93 1f       	adc	r25, r19
7a16fffc:	0c 94 00 00 	jmp	0	; 0x0 <__tmp_reg__>

Disassembly of section .text._ZTv0_n10_N21RandomAccessByteArray8readCharEv:

f42dffec <_ZTv0_n10_N21RandomAccessByteArray8readCharEv>:
f42dffec:	dc 01       	movw	r26, r24
f42dffee:	ed 91       	ld	r30, X+
f42dfff0:	fc 91       	ld	r31, X
f42dfff2:	3a 97       	sbiw	r30, 0x0a	; 10
f42dfff4:	20 81       	ld	r18, Z
f42dfff6:	31 81       	ldd	r19, Z+1	; 0x01
f42dfff8:	82 0f       	add	r24, r18
f42dfffa:	93 1f       	adc	r25, r19
f42dfffc:	0c 94 00 00 	jmp	0	; 0x0 <__tmp_reg__>

Disassembly of section .text._ZTv0_n12_N21RandomAccessByteArray16readUnsignedCharEv:

e85bffec <_ZTv0_n12_N21RandomAccessByteArray16readUnsignedCharEv>:
e85bffec:	dc 01       	movw	r26, r24
e85bffee:	ed 91       	ld	r30, X+
e85bfff0:	fc 91       	ld	r31, X
e85bfff2:	3c 97       	sbiw	r30, 0x0c	; 12
e85bfff4:	20 81       	ld	r18, Z
e85bfff6:	31 81       	ldd	r19, Z+1	; 0x01
e85bfff8:	82 0f       	add	r24, r18
e85bfffa:	93 1f       	adc	r25, r19
e85bfffc:	0c 94 00 00 	jmp	0	; 0x0 <__tmp_reg__>

Disassembly of section .text._ZTv0_n14_N21RandomAccessByteArray7readIntEv:

d0b7ffec <_ZTv0_n14_N21RandomAccessByteArray7readIntEv>:
d0b7ffec:	dc 01       	movw	r26, r24
d0b7ffee:	ed 91       	ld	r30, X+
d0b7fff0:	fc 91       	ld	r31, X
d0b7fff2:	3e 97       	sbiw	r30, 0x0e	; 14
d0b7fff4:	20 81       	ld	r18, Z
d0b7fff6:	31 81       	ldd	r19, Z+1	; 0x01
d0b7fff8:	82 0f       	add	r24, r18
d0b7fffa:	93 1f       	adc	r25, r19
d0b7fffc:	0c 94 00 00 	jmp	0	; 0x0 <__tmp_reg__>

Disassembly of section .text._ZTv0_n16_N21RandomAccessByteArray15readUnsignedIntEv:

a16fffec <_ZTv0_n16_N21RandomAccessByteArray15readUnsignedIntEv>:
a16fffec:	dc 01       	movw	r26, r24
a16fffee:	ed 91       	ld	r30, X+
a16ffff0:	fc 91       	ld	r31, X
a16ffff2:	70 97       	sbiw	r30, 0x10	; 16
a16ffff4:	20 81       	ld	r18, Z
a16ffff6:	31 81       	ldd	r19, Z+1	; 0x01
a16ffff8:	82 0f       	add	r24, r18
a16ffffa:	93 1f       	adc	r25, r19
a16ffffc:	0c 94 00 00 	jmp	0	; 0x0 <__tmp_reg__>

Disassembly of section .text._ZTv0_n18_N21RandomAccessByteArray8readWordEv:

42dfffec <_ZTv0_n18_N21RandomAccessByteArray8readWordEv>:
42dfffec:	dc 01       	movw	r26, r24
42dfffee:	ed 91       	ld	r30, X+
42dffff0:	fc 91       	ld	r31, X
42dffff2:	72 97       	sbiw	r30, 0x12	; 18
42dffff4:	20 81       	ld	r18, Z
42dffff6:	31 81       	ldd	r19, Z+1	; 0x01
42dffff8:	82 0f       	add	r24, r18
42dffffa:	93 1f       	adc	r25, r19
42dffffc:	0c 94 00 00 	jmp	0	; 0x0 <__tmp_reg__>

Disassembly of section .text._ZTv0_n20_N21RandomAccessByteArray8readLongEv:

85bfffec <_ZTv0_n20_N21RandomAccessByteArray8readLongEv>:
85bfffec:	dc 01       	movw	r26, r24
85bfffee:	ed 91       	ld	r30, X+
85bffff0:	fc 91       	ld	r31, X
85bffff2:	74 97       	sbiw	r30, 0x14	; 20
85bffff4:	20 81       	ld	r18, Z
85bffff6:	31 81       	ldd	r19, Z+1	; 0x01
85bffff8:	82 0f       	add	r24, r18
85bffffa:	93 1f       	adc	r25, r19
85bffffc:	0c 94 00 00 	jmp	0	; 0x0 <__tmp_reg__>

Disassembly of section .text._ZTv0_n22_N21RandomAccessByteArray16readUnsignedLongEv:

0b7fffec <_ZTv0_n22_N21RandomAccessByteArray16readUnsignedLongEv>:
 b7fffec:	dc 01       	movw	r26, r24
 b7fffee:	ed 91       	ld	r30, X+
 b7ffff0:	fc 91       	ld	r31, X
 b7ffff2:	76 97       	sbiw	r30, 0x16	; 22
 b7ffff4:	20 81       	ld	r18, Z
 b7ffff6:	31 81       	ldd	r19, Z+1	; 0x01
 b7ffff8:	82 0f       	add	r24, r18
 b7ffffa:	93 1f       	adc	r25, r19
 b7ffffc:	0c 94 00 00 	jmp	0	; 0x0 <__tmp_reg__>

Disassembly of section .text._ZTv0_n24_N21RandomAccessByteArray9readFloatEv:

16ffffec <_ZTv0_n24_N21RandomAccessByteArray9readFloatEv>:
16ffffec:	dc 01       	movw	r26, r24
16ffffee:	ed 91       	ld	r30, X+
16fffff0:	fc 91       	ld	r31, X
16fffff2:	78 97       	sbiw	r30, 0x18	; 24
16fffff4:	20 81       	ld	r18, Z
16fffff6:	31 81       	ldd	r19, Z+1	; 0x01
16fffff8:	82 0f       	add	r24, r18
16fffffa:	93 1f       	adc	r25, r19
16fffffc:	0c 94 00 00 	jmp	0	; 0x0 <__tmp_reg__>

Disassembly of section .text._ZTv0_n26_N21RandomAccessByteArray10readDoubleEv:

2dffffec <_ZTv0_n26_N21RandomAccessByteArray10readDoubleEv>:
2dffffec:	dc 01       	movw	r26, r24
2dffffee:	ed 91       	ld	r30, X+
2dfffff0:	fc 91       	ld	r31, X
2dfffff2:	7a 97       	sbiw	r30, 0x1a	; 26
2dfffff4:	20 81       	ld	r18, Z
2dfffff6:	31 81       	ldd	r19, Z+1	; 0x01
2dfffff8:	82 0f       	add	r24, r18
2dfffffa:	93 1f       	adc	r25, r19
2dfffffc:	0c 94 00 00 	jmp	0	; 0x0 <__tmp_reg__>

Disassembly of section .text._ZTv0_n28_N21RandomAccessByteArray9readFullyEPhi:

5bffffec <_ZTv0_n28_N21RandomAccessByteArray9readFullyEPhi>:
5bffffec:	dc 01       	movw	r26, r24
5bffffee:	ed 91       	ld	r30, X+
5bfffff0:	fc 91       	ld	r31, X
5bfffff2:	7c 97       	sbiw	r30, 0x1c	; 28
5bfffff4:	20 81       	ld	r18, Z
5bfffff6:	31 81       	ldd	r19, Z+1	; 0x01
5bfffff8:	82 0f       	add	r24, r18
5bfffffa:	93 1f       	adc	r25, r19
5bfffffc:	0c 94 00 00 	jmp	0	; 0x0 <__tmp_reg__>

Disassembly of section .text._ZTv0_n30_N21RandomAccessByteArray9skipBytesEj:

b7ffffec <_ZTv0_n30_N21RandomAccessByteArray9skipBytesEj>:
b7ffffec:	dc 01       	movw	r26, r24
b7ffffee:	ed 91       	ld	r30, X+
b7fffff0:	fc 91       	ld	r31, X
b7fffff2:	7e 97       	sbiw	r30, 0x1e	; 30
b7fffff4:	20 81       	ld	r18, Z
b7fffff6:	31 81       	ldd	r19, Z+1	; 0x01
b7fffff8:	82 0f       	add	r24, r18
b7fffffa:	93 1f       	adc	r25, r19
b7fffffc:	0c 94 00 00 	jmp	0	; 0x0 <__tmp_reg__>

RandomAccess.o:     file format elf32-avr

Sections:
Idx Name          Size      VMA       LMA       File off  Algn
  0 .text         00000000  00000000  00000000  00000034  2**0
                  CONTENTS, ALLOC, LOAD, READONLY, CODE
  1 .data         00000000  00000000  00000000  00000034  2**0
                  CONTENTS, ALLOC, LOAD, DATA
  2 .bss          00000000  00000000  00000000  00000034  2**0
                  ALLOC
  3 .comment      00000012  00000000  00000000  00000034  2**0
                  CONTENTS, READONLY

PgmspaceSeekableInputStream.o:     file format elf32-avr

Sections:
Idx Name          Size      VMA       LMA       File off  Algn
  0 .group        00000008  00000000  00000000  00000034  2**2
                  CONTENTS, READONLY, EXCLUDE, GROUP, LINK_ONCE_DISCARD
  1 .group        00000008  00000000  00000000  0000003c  2**2
                  CONTENTS, READONLY, EXCLUDE, GROUP, LINK_ONCE_DISCARD
  2 .group        00000008  00000000  00000000  00000044  2**2
                  CONTENTS, READONLY, EXCLUDE, GROUP, LINK_ONCE_DISCARD
  3 .group        00000014  00000000  00000000  0000004c  2**2
                  CONTENTS, READONLY, EXCLUDE, GROUP, LINK_ONCE_DISCARD
  4 .text         00000000  00000000  00000000  00000060  2**0
                  CONTENTS, ALLOC, LOAD, READONLY, CODE
  5 .data         00000000  00000000  00000000  00000060  2**0
                  CONTENTS, ALLOC, LOAD, DATA
  6 .bss          00000000  00000000  00000000  00000060  2**0
                  ALLOC
  7 .text._ZN27PgmspaceSeekableInputStream4seekEj 00000008  00000000  00000000  00000060  2**0
                  CONTENTS, ALLOC, LOAD, READONLY, CODE
  8 .text._ZN19SeekableInputStreamC2Ev 0000003e  00000000  00000000  00000068  2**0
                  CONTENTS, ALLOC, LOAD, READONLY, CODE
  9 .text._ZN27PgmspaceSeekableInputStreamC2EPcj 000000aa  00000000  00000000  000000a6  2**0
                  CONTENTS, ALLOC, LOAD, RELOC, READONLY, CODE
 10 .text._ZN27PgmspaceSeekableInputStreamC1EPcj 0000005a  00000000  00000000  00000150  2**0
                  CONTENTS, ALLOC, LOAD, RELOC, READONLY, CODE
 11 .text._ZTv0_n6_N27PgmspaceSeekableInputStream4seekEj 00000014  00000000  00000000  000001aa  2**0
                  CONTENTS, ALLOC, LOAD, RELOC, READONLY, CODE
 12 .rodata._ZTV8Seekable 00000006  00000000  00000000  000001be  2**0
                  CONTENTS, ALLOC, LOAD, RELOC, READONLY, DATA
 13 .rodata._ZTV9Closeable 00000006  00000000  00000000  000001c4  2**0
                  CONTENTS, ALLOC, LOAD, RELOC, READONLY, DATA
 14 .rodata._ZTC27PgmspaceSeekableInputStream2_19PgmspaceInputStream 0000002a  00000000  00000000  000001ca  2**0
                  CONTENTS, ALLOC, LOAD, RELOC, READONLY, DATA
 15 .rodata._ZTC27PgmspaceSeekableInputStream0_19SeekableInputStream 00000034  00000000  00000000  000001f4  2**0
                  CONTENTS, ALLOC, LOAD, RELOC, READONLY, DATA
 16 .rodata._ZTT27PgmspaceSeekableInputStream 00000012  00000000  00000000  00000228  2**0
                  CONTENTS, ALLOC, LOAD, RELOC, READONLY, DATA
 17 .rodata._ZTV27PgmspaceSeekableInputStream 00000036  00000000  00000000  0000023a  2**0
                  CONTENTS, ALLOC, LOAD, RELOC, READONLY, DATA
 18 .comment      00000012  00000000  00000000  00000270  2**0
                  CONTENTS, READONLY

Disassembly of section .text._ZN27PgmspaceSeekableInputStream4seekEj:

00000000 <_ZN27PgmspaceSeekableInputStream4seekEj>:
   0:	fc 01       	movw	r30, r24
   2:	71 87       	std	Z+9, r23	; 0x09
   4:	60 87       	std	Z+8, r22	; 0x08
   6:	08 95       	ret

Disassembly of section .text._ZN19SeekableInputStreamC2Ev:

00000008 <_ZN19SeekableInputStreamC2Ev>:
   8:	fb 01       	movw	r30, r22
   a:	20 81       	ld	r18, Z
   c:	31 81       	ldd	r19, Z+1	; 0x01
   e:	dc 01       	movw	r26, r24
  10:	2d 93       	st	X+, r18
  12:	3c 93       	st	X, r19
  14:	42 81       	ldd	r20, Z+2	; 0x02
  16:	53 81       	ldd	r21, Z+3	; 0x03
  18:	d9 01       	movw	r26, r18
  1a:	18 97       	sbiw	r26, 0x08	; 8
  1c:	0d 90       	ld	r0, X+
  1e:	bc 91       	ld	r27, X
  20:	a0 2d       	mov	r26, r0
  22:	a8 0f       	add	r26, r24
  24:	b9 1f       	adc	r27, r25
  26:	4d 93       	st	X+, r20
  28:	5c 93       	st	X, r21
  2a:	24 81       	ldd	r18, Z+4	; 0x04
  2c:	35 81       	ldd	r19, Z+5	; 0x05
  2e:	dc 01       	movw	r26, r24
  30:	ed 91       	ld	r30, X+
  32:	fc 91       	ld	r31, X
  34:	3a 97       	sbiw	r30, 0x0a	; 10
  36:	01 90       	ld	r0, Z+
  38:	f0 81       	ld	r31, Z
  3a:	e0 2d       	mov	r30, r0
  3c:	e8 0f       	add	r30, r24
  3e:	f9 1f       	adc	r31, r25
  40:	31 83       	std	Z+1, r19	; 0x01
  42:	20 83       	st	Z, r18
  44:	08 95       	ret

Disassembly of section .text._ZN27PgmspaceSeekableInputStreamC2EPcj:

0000004e <_ZN27PgmspaceSeekableInputStreamC2EPcj>:
  4e:	ef 92       	push	r14
  50:	ff 92       	push	r15
  52:	0f 93       	push	r16
  54:	1f 93       	push	r17
  56:	cf 93       	push	r28
  58:	df 93       	push	r29
  5a:	00 d0       	rcall	.+0      	; 0x5c <_ZN27PgmspaceSeekableInputStreamC2EPcj+0xe>
  5c:	00 d0       	rcall	.+0      	; 0x5e <_ZN27PgmspaceSeekableInputStreamC2EPcj+0x10>
  5e:	cd b7       	in	r28, 0x3d	; 61
  60:	de b7       	in	r29, 0x3e	; 62
  62:	7c 01       	movw	r14, r24
  64:	8b 01       	movw	r16, r22
  66:	6e 5f       	subi	r22, 0xFE	; 254
  68:	7f 4f       	sbci	r23, 0xFF	; 255
  6a:	2b 83       	std	Y+3, r18	; 0x03
  6c:	3c 83       	std	Y+4, r19	; 0x04
  6e:	49 83       	std	Y+1, r20	; 0x01
  70:	5a 83       	std	Y+2, r21	; 0x02
  72:	0e 94 00 00 	call	0	; 0x0 <__tmp_reg__>
  76:	b8 01       	movw	r22, r16
  78:	68 5f       	subi	r22, 0xF8	; 248
  7a:	7f 4f       	sbci	r23, 0xFF	; 255
  7c:	2b 81       	ldd	r18, Y+3	; 0x03
  7e:	3c 81       	ldd	r19, Y+4	; 0x04
  80:	49 81       	ldd	r20, Y+1	; 0x01
  82:	5a 81       	ldd	r21, Y+2	; 0x02
  84:	c7 01       	movw	r24, r14
  86:	02 96       	adiw	r24, 0x02	; 2
  88:	0e 94 00 00 	call	0	; 0x0 <__tmp_reg__>
  8c:	d8 01       	movw	r26, r16
  8e:	8d 91       	ld	r24, X+
  90:	9c 91       	ld	r25, X
  92:	11 97       	sbiw	r26, 0x01	; 1
  94:	f7 01       	movw	r30, r14
  96:	91 83       	std	Z+1, r25	; 0x01
  98:	80 83       	st	Z, r24
  9a:	1c 96       	adiw	r26, 0x0c	; 12
  9c:	2d 91       	ld	r18, X+
  9e:	3c 91       	ld	r19, X
  a0:	1d 97       	sbiw	r26, 0x0d	; 13
  a2:	fc 01       	movw	r30, r24
  a4:	38 97       	sbiw	r30, 0x08	; 8
  a6:	01 90       	ld	r0, Z+
  a8:	f0 81       	ld	r31, Z
  aa:	e0 2d       	mov	r30, r0
  ac:	ee 0d       	add	r30, r14
  ae:	ff 1d       	adc	r31, r15
  b0:	31 83       	std	Z+1, r19	; 0x01
  b2:	20 83       	st	Z, r18
  b4:	1e 96       	adiw	r26, 0x0e	; 14
  b6:	8d 91       	ld	r24, X+
  b8:	9c 91       	ld	r25, X
  ba:	1f 97       	sbiw	r26, 0x0f	; 15
  bc:	d7 01       	movw	r26, r14
  be:	ed 91       	ld	r30, X+
  c0:	fc 91       	ld	r31, X
  c2:	11 97       	sbiw	r26, 0x01	; 1
  c4:	3a 97       	sbiw	r30, 0x0a	; 10
  c6:	01 90       	ld	r0, Z+
  c8:	f0 81       	ld	r31, Z
  ca:	e0 2d       	mov	r30, r0
  cc:	ee 0d       	add	r30, r14
  ce:	ff 1d       	adc	r31, r15
  d0:	91 83       	std	Z+1, r25	; 0x01
  d2:	80 83       	st	Z, r24
  d4:	f8 01       	movw	r30, r16
  d6:	80 89       	ldd	r24, Z+16	; 0x10
  d8:	91 89       	ldd	r25, Z+17	; 0x11
  da:	13 96       	adiw	r26, 0x03	; 3
  dc:	9c 93       	st	X, r25
  de:	8e 93       	st	-X, r24
  e0:	12 97       	sbiw	r26, 0x02	; 2
  e2:	0f 90       	pop	r0
  e4:	0f 90       	pop	r0
  e6:	0f 90       	pop	r0
  e8:	0f 90       	pop	r0
  ea:	df 91       	pop	r29
  ec:	cf 91       	pop	r28
  ee:	1f 91       	pop	r17
  f0:	0f 91       	pop	r16
  f2:	ff 90       	pop	r15
  f4:	ef 90       	pop	r14
  f6:	08 95       	ret

Disassembly of section .text._ZN27PgmspaceSeekableInputStreamC1EPcj:

00000146 <_ZN27PgmspaceSeekableInputStreamC1EPcj>:
 146:	ef 92       	push	r14
 148:	ff 92       	push	r15
 14a:	0f 93       	push	r16
 14c:	1f 93       	push	r17
 14e:	cf 93       	push	r28
 150:	df 93       	push	r29
 152:	ec 01       	movw	r28, r24
 154:	8b 01       	movw	r16, r22
 156:	7a 01       	movw	r14, r20
 158:	80 e0       	ldi	r24, 0x00	; 0
 15a:	90 e0       	ldi	r25, 0x00	; 0
 15c:	99 83       	std	Y+1, r25	; 0x01
 15e:	88 83       	st	Y, r24
 160:	80 e0       	ldi	r24, 0x00	; 0
 162:	90 e0       	ldi	r25, 0x00	; 0
 164:	9b 83       	std	Y+3, r25	; 0x03
 166:	8a 83       	std	Y+2, r24	; 0x02
 168:	60 e0       	ldi	r22, 0x00	; 0
 16a:	70 e0       	ldi	r23, 0x00	; 0
 16c:	ce 01       	movw	r24, r28
 16e:	0e 94 00 00 	call	0	; 0x0 <__tmp_reg__>
 172:	97 01       	movw	r18, r14
 174:	a8 01       	movw	r20, r16
 176:	60 e0       	ldi	r22, 0x00	; 0
 178:	70 e0       	ldi	r23, 0x00	; 0
 17a:	ce 01       	movw	r24, r28
 17c:	02 96       	adiw	r24, 0x02	; 2
 17e:	0e 94 00 00 	call	0	; 0x0 <__tmp_reg__>
 182:	80 e0       	ldi	r24, 0x00	; 0
 184:	90 e0       	ldi	r25, 0x00	; 0
 186:	99 83       	std	Y+1, r25	; 0x01
 188:	88 83       	st	Y, r24
 18a:	80 e0       	ldi	r24, 0x00	; 0
 18c:	90 e0       	ldi	r25, 0x00	; 0
 18e:	9b 83       	std	Y+3, r25	; 0x03
 190:	8a 83       	std	Y+2, r24	; 0x02
 192:	df 91       	pop	r29
 194:	cf 91       	pop	r28
 196:	1f 91       	pop	r17
 198:	0f 91       	pop	r16
 19a:	ff 90       	pop	r15
 19c:	ef 90       	pop	r14
 19e:	08 95       	ret

Disassembly of section .text._ZTv0_n6_N27PgmspaceSeekableInputStream4seekEj:

000002e6 <_ZTv0_n6_N27PgmspaceSeekableInputStream4seekEj>:
 2e6:	dc 01       	movw	r26, r24
 2e8:	ed 91       	ld	r30, X+
 2ea:	fc 91       	ld	r31, X
 2ec:	36 97       	sbiw	r30, 0x06	; 6
 2ee:	20 81       	ld	r18, Z
 2f0:	31 81       	ldd	r19, Z+1	; 0x01
 2f2:	82 0f       	add	r24, r18
 2f4:	93 1f       	adc	r25, r19
 2f6:	0c 94 00 00 	jmp	0	; 0x0 <__tmp_reg__>

PgmspaceInputStream.o:     file format elf32-avr

Sections:
Idx Name          Size      VMA       LMA       File off  Algn
  0 .group        00000008  00000000  00000000  00000034  2**2
                  CONTENTS, READONLY, EXCLUDE, GROUP, LINK_ONCE_DISCARD
  1 .group        0000000c  00000000  00000000  0000003c  2**2
                  CONTENTS, READONLY, EXCLUDE, GROUP, LINK_ONCE_DISCARD
  2 .text         00000000  00000000  00000000  00000048  2**0
                  CONTENTS, ALLOC, LOAD, READONLY, CODE
  3 .data         00000000  00000000  00000000  00000048  2**0
                  CONTENTS, ALLOC, LOAD, DATA
  4 .bss          00000000  00000000  00000000  00000048  2**0
                  ALLOC
  5 .text._ZN19PgmspaceInputStream9availableEv 0000001a  00000000  00000000  00000048  2**0
                  CONTENTS, ALLOC, LOAD, RELOC, READONLY, CODE
  6 .text._ZN19PgmspaceInputStream4markEv 0000000c  00000000  00000000  00000062  2**0
                  CONTENTS, ALLOC, LOAD, READONLY, CODE
  7 .text._ZN19PgmspaceInputStream13markSupportedEv 00000004  00000000  00000000  0000006e  2**0
                  CONTENTS, ALLOC, LOAD, READONLY, CODE
  8 .text._ZN19PgmspaceInputStream4readEv 0000002a  00000000  00000000  00000072  2**0
                  CONTENTS, ALLOC, LOAD, READONLY, CODE
  9 .text._ZN19PgmspaceInputStream5resetEv 0000000c  00000000  00000000  0000009c  2**0
                  CONTENTS, ALLOC, LOAD, READONLY, CODE
 10 .text._ZN19PgmspaceInputStreamC2EPcj 0000003a  00000000  00000000  000000a8  2**0
                  CONTENTS, ALLOC, LOAD, READONLY, CODE
 11 .text._ZN19PgmspaceInputStreamC1EPcj 0000001c  00000000  00000000  000000e2  2**0
                  CONTENTS, ALLOC, LOAD, RELOC, READONLY, CODE
 12 .text._ZTv0_n8_N19PgmspaceInputStream9availableEv 00000014  00000000  00000000  000000fe  2**0
                  CONTENTS, ALLOC, LOAD, RELOC, READONLY, CODE
 13 .text._ZTv0_n10_N19PgmspaceInputStream4markEv 00000014  00000000  00000000  00000112  2**0
                  CONTENTS, ALLOC, LOAD, RELOC, READONLY, CODE
 14 .text._ZTv0_n12_N19PgmspaceInputStream13markSupportedEv 00000014  00000000  00000000  00000126  2**0
                  CONTENTS, ALLOC, LOAD, RELOC, READONLY, CODE
 15 .text._ZTv0_n14_N19PgmspaceInputStream4readEv 00000014  00000000  00000000  0000013a  2**0
                  CONTENTS, ALLOC, LOAD, RELOC, READONLY, CODE
 16 .text._ZTv0_n20_N19PgmspaceInputStream5resetEv 00000014  00000000  00000000  0000014e  2**0
                  CONTENTS, ALLOC, LOAD, RELOC, READONLY, CODE
 17 .rodata._ZTV9Closeable 00000006  00000000  00000000  00000162  2**0
                  CONTENTS, ALLOC, LOAD, RELOC, READONLY, DATA
 18 .rodata._ZTT19PgmspaceInputStream 00000004  00000000  00000000  00000168  2**0
                  CONTENTS, ALLOC, LOAD, RELOC, READONLY, DATA
 19 .rodata._ZTV19PgmspaceInputStream 0000002a  00000000  00000000  0000016c  2**0
                  CONTENTS, ALLOC, LOAD, RELOC, READONLY, DATA
 20 .comment      00000012  00000000  00000000  00000196  2**0
                  CONTENTS, READONLY

Disassembly of section .text._ZN19PgmspaceInputStream9availableEv:

00000000 <_ZN19PgmspaceInputStream9availableEv>:
   0:	fc 01       	movw	r30, r24
   2:	81 e0       	ldi	r24, 0x01	; 1
   4:	90 e0       	ldi	r25, 0x00	; 0
   6:	44 81       	ldd	r20, Z+4	; 0x04
   8:	55 81       	ldd	r21, Z+5	; 0x05
   a:	26 81       	ldd	r18, Z+6	; 0x06
   c:	37 81       	ldd	r19, Z+7	; 0x07
   e:	42 17       	cp	r20, r18
  10:	53 07       	cpc	r21, r19
  12:	01 f4       	brne	.+0      	; 0x14 <_ZN19PgmspaceInputStream9availableEv+0x14>
  14:	80 e0       	ldi	r24, 0x00	; 0
  16:	90 e0       	ldi	r25, 0x00	; 0
  18:	08 95       	ret

Disassembly of section .text._ZN19PgmspaceInputStream4markEv:

0000001a <_ZN19PgmspaceInputStream4markEv>:
  1a:	fc 01       	movw	r30, r24
  1c:	26 81       	ldd	r18, Z+6	; 0x06
  1e:	37 81       	ldd	r19, Z+7	; 0x07
  20:	31 87       	std	Z+9, r19	; 0x09
  22:	20 87       	std	Z+8, r18	; 0x08
  24:	08 95       	ret

Disassembly of section .text._ZN19PgmspaceInputStream13markSupportedEv:

00000040 <_ZN19PgmspaceInputStream13markSupportedEv>:
  40:	81 e0       	ldi	r24, 0x01	; 1
  42:	08 95       	ret

Disassembly of section .text._ZN19PgmspaceInputStream4readEv:

00000084 <_ZN19PgmspaceInputStream4readEv>:
  84:	dc 01       	movw	r26, r24
  86:	12 96       	adiw	r26, 0x02	; 2
  88:	ed 91       	ld	r30, X+
  8a:	fc 91       	ld	r31, X
  8c:	13 97       	sbiw	r26, 0x03	; 3
  8e:	16 96       	adiw	r26, 0x06	; 6
  90:	8d 91       	ld	r24, X+
  92:	9c 91       	ld	r25, X
  94:	17 97       	sbiw	r26, 0x07	; 7
  96:	9c 01       	movw	r18, r24
  98:	2f 5f       	subi	r18, 0xFF	; 255
  9a:	3f 4f       	sbci	r19, 0xFF	; 255
  9c:	17 96       	adiw	r26, 0x07	; 7
  9e:	3c 93       	st	X, r19
  a0:	2e 93       	st	-X, r18
  a2:	16 97       	sbiw	r26, 0x06	; 6
  a4:	e8 0f       	add	r30, r24
  a6:	f9 1f       	adc	r31, r25
  a8:	84 91       	lpm	r24, Z
  aa:	90 e0       	ldi	r25, 0x00	; 0
  ac:	08 95       	ret

Disassembly of section .text._ZN19PgmspaceInputStream5resetEv:

00000132 <_ZN19PgmspaceInputStream5resetEv>:
 132:	fc 01       	movw	r30, r24
 134:	20 85       	ldd	r18, Z+8	; 0x08
 136:	31 85       	ldd	r19, Z+9	; 0x09
 138:	37 83       	std	Z+7, r19	; 0x07
 13a:	26 83       	std	Z+6, r18	; 0x06
 13c:	08 95       	ret

Disassembly of section .text._ZN19PgmspaceInputStreamC2EPcj:

00000270 <_ZN19PgmspaceInputStreamC2EPcj>:
 270:	fc 01       	movw	r30, r24
 272:	db 01       	movw	r26, r22
 274:	8d 91       	ld	r24, X+
 276:	9c 91       	ld	r25, X
 278:	11 97       	sbiw	r26, 0x01	; 1
 27a:	91 83       	std	Z+1, r25	; 0x01
 27c:	80 83       	st	Z, r24
 27e:	12 96       	adiw	r26, 0x02	; 2
 280:	6d 91       	ld	r22, X+
 282:	7c 91       	ld	r23, X
 284:	13 97       	sbiw	r26, 0x03	; 3
 286:	dc 01       	movw	r26, r24
 288:	58 97       	sbiw	r26, 0x18	; 24
 28a:	0d 90       	ld	r0, X+
 28c:	bc 91       	ld	r27, X
 28e:	a0 2d       	mov	r26, r0
 290:	ae 0f       	add	r26, r30
 292:	bf 1f       	adc	r27, r31
 294:	6d 93       	st	X+, r22
 296:	7c 93       	st	X, r23
 298:	53 83       	std	Z+3, r21	; 0x03
 29a:	42 83       	std	Z+2, r20	; 0x02
 29c:	35 83       	std	Z+5, r19	; 0x05
 29e:	24 83       	std	Z+4, r18	; 0x04
 2a0:	11 86       	std	Z+9, r1	; 0x09
 2a2:	10 86       	std	Z+8, r1	; 0x08
 2a4:	17 82       	std	Z+7, r1	; 0x07
 2a6:	16 82       	std	Z+6, r1	; 0x06
 2a8:	08 95       	ret

Disassembly of section .text._ZN19PgmspaceInputStreamC1EPcj:

0000051a <_ZN19PgmspaceInputStreamC1EPcj>:
 51a:	fc 01       	movw	r30, r24
 51c:	80 e0       	ldi	r24, 0x00	; 0
 51e:	90 e0       	ldi	r25, 0x00	; 0
 520:	91 83       	std	Z+1, r25	; 0x01
 522:	80 83       	st	Z, r24
 524:	73 83       	std	Z+3, r23	; 0x03
 526:	62 83       	std	Z+2, r22	; 0x02
 528:	55 83       	std	Z+5, r21	; 0x05
 52a:	44 83       	std	Z+4, r20	; 0x04
 52c:	11 86       	std	Z+9, r1	; 0x09
 52e:	10 86       	std	Z+8, r1	; 0x08
 530:	17 82       	std	Z+7, r1	; 0x07
 532:	16 82       	std	Z+6, r1	; 0x06
 534:	08 95       	ret

Disassembly of section .text._ZTv0_n8_N19PgmspaceInputStream9availableEv:

00000a50 <_ZTv0_n8_N19PgmspaceInputStream9availableEv>:
 a50:	dc 01       	movw	r26, r24
 a52:	ed 91       	ld	r30, X+
 a54:	fc 91       	ld	r31, X
 a56:	38 97       	sbiw	r30, 0x08	; 8
 a58:	20 81       	ld	r18, Z
 a5a:	31 81       	ldd	r19, Z+1	; 0x01
 a5c:	82 0f       	add	r24, r18
 a5e:	93 1f       	adc	r25, r19
 a60:	0c 94 00 00 	jmp	0	; 0x0 <__tmp_reg__>

Disassembly of section .text._ZTv0_n10_N19PgmspaceInputStream4markEv:

000014b4 <_ZTv0_n10_N19PgmspaceInputStream4markEv>:
    14b4:	dc 01       	movw	r26, r24
    14b6:	ed 91       	ld	r30, X+
    14b8:	fc 91       	ld	r31, X
    14ba:	3a 97       	sbiw	r30, 0x0a	; 10
    14bc:	20 81       	ld	r18, Z
    14be:	31 81       	ldd	r19, Z+1	; 0x01
    14c0:	82 0f       	add	r24, r18
    14c2:	93 1f       	adc	r25, r19
    14c4:	0c 94 00 00 	jmp	0	; 0x0 <__tmp_reg__>

Disassembly of section .text._ZTv0_n12_N19PgmspaceInputStream13markSupportedEv:

0000297c <_ZTv0_n12_N19PgmspaceInputStream13markSupportedEv>:
    297c:	dc 01       	movw	r26, r24
    297e:	ed 91       	ld	r30, X+
    2980:	fc 91       	ld	r31, X
    2982:	3c 97       	sbiw	r30, 0x0c	; 12
    2984:	20 81       	ld	r18, Z
    2986:	31 81       	ldd	r19, Z+1	; 0x01
    2988:	82 0f       	add	r24, r18
    298a:	93 1f       	adc	r25, r19
    298c:	0c 94 00 00 	jmp	0	; 0x0 <__tmp_reg__>

Disassembly of section .text._ZTv0_n14_N19PgmspaceInputStream4readEv:

0000530c <_ZTv0_n14_N19PgmspaceInputStream4readEv>:
    530c:	dc 01       	movw	r26, r24
    530e:	ed 91       	ld	r30, X+
    5310:	fc 91       	ld	r31, X
    5312:	3e 97       	sbiw	r30, 0x0e	; 14
    5314:	20 81       	ld	r18, Z
    5316:	31 81       	ldd	r19, Z+1	; 0x01
    5318:	82 0f       	add	r24, r18
    531a:	93 1f       	adc	r25, r19
    531c:	0c 94 00 00 	jmp	0	; 0x0 <__tmp_reg__>

Disassembly of section .text._ZTv0_n20_N19PgmspaceInputStream5resetEv:

0000a62c <_ZTv0_n20_N19PgmspaceInputStream5resetEv>:
    a62c:	dc 01       	movw	r26, r24
    a62e:	ed 91       	ld	r30, X+
    a630:	fc 91       	ld	r31, X
    a632:	74 97       	sbiw	r30, 0x14	; 20
    a634:	20 81       	ld	r18, Z
    a636:	31 81       	ldd	r19, Z+1	; 0x01
    a638:	82 0f       	add	r24, r18
    a63a:	93 1f       	adc	r25, r19
    a63c:	0c 94 00 00 	jmp	0	; 0x0 <__tmp_reg__>

OutputStream.o:     file format elf32-avr

Sections:
Idx Name          Size      VMA       LMA       File off  Algn
  0 .group        00000008  00000000  00000000  00000034  2**2
                  CONTENTS, READONLY, EXCLUDE, GROUP, LINK_ONCE_DISCARD
  1 .text         00000000  00000000  00000000  0000003c  2**0
                  CONTENTS, ALLOC, LOAD, READONLY, CODE
  2 .data         00000000  00000000  00000000  0000003c  2**0
                  CONTENTS, ALLOC, LOAD, DATA
  3 .bss          00000000  00000000  00000000  0000003c  2**0
                  ALLOC
  4 .text._ZN12OutputStream5writeEPhi 00000014  00000000  00000000  0000003c  2**0
                  CONTENTS, ALLOC, LOAD, READONLY, CODE
  5 .text._ZN12OutputStream5flushEv 00000002  00000000  00000000  00000050  2**0
                  CONTENTS, ALLOC, LOAD, READONLY, CODE
  6 .text._ZN12OutputStream5closeEv 00000002  00000000  00000000  00000052  2**0
                  CONTENTS, ALLOC, LOAD, READONLY, CODE
  7 .text._ZN12OutputStream5writeEPhii 0000005a  00000000  00000000  00000054  2**0
                  CONTENTS, ALLOC, LOAD, RELOC, READONLY, CODE
  8 .rodata._ZTV12OutputStream 0000000e  00000000  00000000  000000ae  2**0
                  CONTENTS, ALLOC, LOAD, RELOC, READONLY, DATA
  9 .comment      00000012  00000000  00000000  000000bc  2**0
                  CONTENTS, READONLY

Disassembly of section .text._ZN12OutputStream5writeEPhi:

00000000 <_ZN12OutputStream5writeEPhi>:
   0:	9a 01       	movw	r18, r20
   2:	dc 01       	movw	r26, r24
   4:	ed 91       	ld	r30, X+
   6:	fc 91       	ld	r31, X
   8:	00 84       	ldd	r0, Z+8	; 0x08
   a:	f1 85       	ldd	r31, Z+9	; 0x09
   c:	e0 2d       	mov	r30, r0
   e:	40 e0       	ldi	r20, 0x00	; 0
  10:	50 e0       	ldi	r21, 0x00	; 0
  12:	09 94       	ijmp

Disassembly of section .text._ZN12OutputStream5flushEv:

00000014 <_ZN12OutputStream5flushEv>:
  14:	08 95       	ret

Disassembly of section .text._ZN12OutputStream5closeEv:

0000002a <_ZN12OutputStream5closeEv>:
  2a:	08 95       	ret

Disassembly of section .text._ZN12OutputStream5writeEPhii:

00000056 <_ZN12OutputStream5writeEPhii>:
  56:	cf 92       	push	r12
  58:	df 92       	push	r13
  5a:	ef 92       	push	r14
  5c:	ff 92       	push	r15
  5e:	0f 93       	push	r16
  60:	1f 93       	push	r17
  62:	cf 93       	push	r28
  64:	df 93       	push	r29
  66:	8c 01       	movw	r16, r24
  68:	79 01       	movw	r14, r18
  6a:	61 15       	cp	r22, r1
  6c:	71 05       	cpc	r23, r1
  6e:	01 f0       	breq	.+0      	; 0x70 <_ZN12OutputStream5writeEPhii+0x1a>
  70:	21 15       	cp	r18, r1
  72:	31 05       	cpc	r19, r1
  74:	01 f0       	breq	.+0      	; 0x76 <_ZN12OutputStream5writeEPhii+0x20>
  76:	eb 01       	movw	r28, r22
  78:	c4 0f       	add	r28, r20
  7a:	d5 1f       	adc	r29, r21
  7c:	6e 01       	movw	r12, r28
  7e:	ce 01       	movw	r24, r28
  80:	8c 19       	sub	r24, r12
  82:	9d 09       	sbc	r25, r13
  84:	8e 15       	cp	r24, r14
  86:	9f 05       	cpc	r25, r15
  88:	04 f4       	brge	.+0      	; 0x8a <_ZN12OutputStream5writeEPhii+0x34>
  8a:	69 91       	ld	r22, Y+
  8c:	d8 01       	movw	r26, r16
  8e:	ed 91       	ld	r30, X+
  90:	fc 91       	ld	r31, X
  92:	04 80       	ldd	r0, Z+4	; 0x04
  94:	f5 81       	ldd	r31, Z+5	; 0x05
  96:	e0 2d       	mov	r30, r0
  98:	c8 01       	movw	r24, r16
  9a:	09 95       	icall
  9c:	00 c0       	rjmp	.+0      	; 0x9e <_ZN12OutputStream5writeEPhii+0x48>
  9e:	df 91       	pop	r29
  a0:	cf 91       	pop	r28
  a2:	1f 91       	pop	r17
  a4:	0f 91       	pop	r16
  a6:	ff 90       	pop	r15
  a8:	ef 90       	pop	r14
  aa:	df 90       	pop	r13
  ac:	cf 90       	pop	r12
  ae:	08 95       	ret

InputStream.o:     file format elf32-avr

Sections:
Idx Name          Size      VMA       LMA       File off  Algn
  0 .group        00000008  00000000  00000000  00000034  2**2
                  CONTENTS, READONLY, EXCLUDE, GROUP, LINK_ONCE_DISCARD
  1 .text         00000000  00000000  00000000  0000003c  2**0
                  CONTENTS, ALLOC, LOAD, READONLY, CODE
  2 .data         00000000  00000000  00000000  0000003c  2**0
                  CONTENTS, ALLOC, LOAD, DATA
  3 .bss          00000000  00000000  00000000  0000003c  2**0
                  ALLOC
  4 .text._ZN11InputStream9availableEv 00000006  00000000  00000000  0000003c  2**0
                  CONTENTS, ALLOC, LOAD, READONLY, CODE
  5 .text._ZN11InputStream5closeEv 00000002  00000000  00000000  00000042  2**0
                  CONTENTS, ALLOC, LOAD, READONLY, CODE
  6 .text._ZN11InputStream4markEv 00000002  00000000  00000000  00000044  2**0
                  CONTENTS, ALLOC, LOAD, READONLY, CODE
  7 .text._ZN11InputStream13markSupportedEv 00000004  00000000  00000000  00000046  2**0
                  CONTENTS, ALLOC, LOAD, READONLY, CODE
  8 .text._ZN11InputStream4readEPhi 00000014  00000000  00000000  0000004a  2**0
                  CONTENTS, ALLOC, LOAD, READONLY, CODE
  9 .text._ZN11InputStream4readEPhii 00000088  00000000  00000000  0000005e  2**0
                  CONTENTS, ALLOC, LOAD, RELOC, READONLY, CODE
 10 .text._ZN11InputStream5resetEv 00000002  00000000  00000000  000000e6  2**0
                  CONTENTS, ALLOC, LOAD, READONLY, CODE
 11 .text._ZN11InputStream4skipEj 00000052  00000000  00000000  000000e8  2**0
                  CONTENTS, ALLOC, LOAD, RELOC, READONLY, CODE
 12 .rodata._ZTV11InputStream 00000016  00000000  00000000  0000013a  2**0
                  CONTENTS, ALLOC, LOAD, RELOC, READONLY, DATA
 13 .comment      00000012  00000000  00000000  00000150  2**0
                  CONTENTS, READONLY

Disassembly of section .text._ZN11InputStream9availableEv:

00000000 <_ZN11InputStream9availableEv>:
   0:	80 e0       	ldi	r24, 0x00	; 0
   2:	90 e0       	ldi	r25, 0x00	; 0
   4:	08 95       	ret

Disassembly of section .text._ZN11InputStream5closeEv:

00000006 <_ZN11InputStream5closeEv>:
   6:	08 95       	ret

Disassembly of section .text._ZN11InputStream4markEv:

0000000e <_ZN11InputStream4markEv>:
   e:	08 95       	ret

Disassembly of section .text._ZN11InputStream13markSupportedEv:

0000001e <_ZN11InputStream13markSupportedEv>:
  1e:	80 e0       	ldi	r24, 0x00	; 0
  20:	08 95       	ret

Disassembly of section .text._ZN11InputStream4readEPhi:

00000040 <_ZN11InputStream4readEPhi>:
  40:	9a 01       	movw	r18, r20
  42:	dc 01       	movw	r26, r24
  44:	ed 91       	ld	r30, X+
  46:	fc 91       	ld	r31, X
  48:	04 84       	ldd	r0, Z+12	; 0x0c
  4a:	f5 85       	ldd	r31, Z+13	; 0x0d
  4c:	e0 2d       	mov	r30, r0
  4e:	40 e0       	ldi	r20, 0x00	; 0
  50:	50 e0       	ldi	r21, 0x00	; 0
  52:	09 94       	ijmp

Disassembly of section .text._ZN11InputStream4readEPhii:

00000094 <_ZN11InputStream4readEPhii>:
  94:	cf 92       	push	r12
  96:	df 92       	push	r13
  98:	ef 92       	push	r14
  9a:	ff 92       	push	r15
  9c:	0f 93       	push	r16
  9e:	1f 93       	push	r17
  a0:	cf 93       	push	r28
  a2:	df 93       	push	r29
  a4:	8c 01       	movw	r16, r24
  a6:	eb 01       	movw	r28, r22
  a8:	7a 01       	movw	r14, r20
  aa:	69 01       	movw	r12, r18
  ac:	20 97       	sbiw	r28, 0x00	; 0
  ae:	01 f0       	breq	.+0      	; 0xb0 <_ZN11InputStream4readEPhii+0x1c>
  b0:	dc 01       	movw	r26, r24
  b2:	ed 91       	ld	r30, X+
  b4:	fc 91       	ld	r31, X
  b6:	00 84       	ldd	r0, Z+8	; 0x08
  b8:	f1 85       	ldd	r31, Z+9	; 0x09
  ba:	e0 2d       	mov	r30, r0
  bc:	09 95       	icall
  be:	8f 3f       	cpi	r24, 0xFF	; 255
  c0:	bf ef       	ldi	r27, 0xFF	; 255
  c2:	9b 07       	cpc	r25, r27
  c4:	01 f0       	breq	.+0      	; 0xc6 <_ZN11InputStream4readEPhii+0x32>
  c6:	ec 0e       	add	r14, r28
  c8:	fd 1e       	adc	r15, r29
  ca:	f7 01       	movw	r30, r14
  cc:	80 83       	st	Z, r24
  ce:	c1 e0       	ldi	r28, 0x01	; 1
  d0:	d0 e0       	ldi	r29, 0x00	; 0
  d2:	cc 15       	cp	r28, r12
  d4:	dd 05       	cpc	r29, r13
  d6:	04 f4       	brge	.+0      	; 0xd8 <_ZN11InputStream4readEPhii+0x44>
  d8:	d8 01       	movw	r26, r16
  da:	ed 91       	ld	r30, X+
  dc:	fc 91       	ld	r31, X
  de:	00 84       	ldd	r0, Z+8	; 0x08
  e0:	f1 85       	ldd	r31, Z+9	; 0x09
  e2:	e0 2d       	mov	r30, r0
  e4:	c8 01       	movw	r24, r16
  e6:	09 95       	icall
  e8:	8f 3f       	cpi	r24, 0xFF	; 255
  ea:	bf ef       	ldi	r27, 0xFF	; 255
  ec:	9b 07       	cpc	r25, r27
  ee:	01 f0       	breq	.+0      	; 0xf0 <_ZN11InputStream4readEPhii+0x5c>
  f0:	f7 01       	movw	r30, r14
  f2:	ec 0f       	add	r30, r28
  f4:	fd 1f       	adc	r31, r29
  f6:	80 83       	st	Z, r24
  f8:	21 96       	adiw	r28, 0x01	; 1
  fa:	00 c0       	rjmp	.+0      	; 0xfc <_ZN11InputStream4readEPhii+0x68>
  fc:	80 e0       	ldi	r24, 0x00	; 0
  fe:	90 e0       	ldi	r25, 0x00	; 0
 100:	00 c0       	rjmp	.+0      	; 0x102 <_ZN11InputStream4readEPhii+0x6e>
 102:	8f ef       	ldi	r24, 0xFF	; 255
 104:	9f ef       	ldi	r25, 0xFF	; 255
 106:	00 c0       	rjmp	.+0      	; 0x108 <_ZN11InputStream4readEPhii+0x74>
 108:	ce 01       	movw	r24, r28
 10a:	df 91       	pop	r29
 10c:	cf 91       	pop	r28
 10e:	1f 91       	pop	r17
 110:	0f 91       	pop	r16
 112:	ff 90       	pop	r15
 114:	ef 90       	pop	r14
 116:	df 90       	pop	r13
 118:	cf 90       	pop	r12
 11a:	08 95       	ret

Disassembly of section .text._ZN11InputStream5resetEv:

000001b0 <_ZN11InputStream5resetEv>:
 1b0:	08 95       	ret

Disassembly of section .text._ZN11InputStream4skipEj:

00000362 <_ZN11InputStream4skipEj>:
 362:	ef 92       	push	r14
 364:	ff 92       	push	r15
 366:	0f 93       	push	r16
 368:	1f 93       	push	r17
 36a:	cf 93       	push	r28
 36c:	df 93       	push	r29
 36e:	ec 01       	movw	r28, r24
 370:	7b 01       	movw	r14, r22
 372:	00 e0       	ldi	r16, 0x00	; 0
 374:	10 e0       	ldi	r17, 0x00	; 0
 376:	0e 15       	cp	r16, r14
 378:	1f 05       	cpc	r17, r15
 37a:	01 f0       	breq	.+0      	; 0x37c <_ZN11InputStream4skipEj+0x1a>
 37c:	e8 81       	ld	r30, Y
 37e:	f9 81       	ldd	r31, Y+1	; 0x01
 380:	02 80       	ldd	r0, Z+2	; 0x02
 382:	f3 81       	ldd	r31, Z+3	; 0x03
 384:	e0 2d       	mov	r30, r0
 386:	ce 01       	movw	r24, r28
 388:	09 95       	icall
 38a:	18 16       	cp	r1, r24
 38c:	19 06       	cpc	r1, r25
 38e:	04 f4       	brge	.+0      	; 0x390 <_ZN11InputStream4skipEj+0x2e>
 390:	e8 81       	ld	r30, Y
 392:	f9 81       	ldd	r31, Y+1	; 0x01
 394:	00 84       	ldd	r0, Z+8	; 0x08
 396:	f1 85       	ldd	r31, Z+9	; 0x09
 398:	e0 2d       	mov	r30, r0
 39a:	ce 01       	movw	r24, r28
 39c:	09 95       	icall
 39e:	0f 5f       	subi	r16, 0xFF	; 255
 3a0:	1f 4f       	sbci	r17, 0xFF	; 255
 3a2:	00 c0       	rjmp	.+0      	; 0x3a4 <_ZN11InputStream4skipEj+0x42>
 3a4:	c8 01       	movw	r24, r16
 3a6:	df 91       	pop	r29
 3a8:	cf 91       	pop	r28
 3aa:	1f 91       	pop	r17
 3ac:	0f 91       	pop	r16
 3ae:	ff 90       	pop	r15
 3b0:	ef 90       	pop	r14
 3b2:	08 95       	ret

HardwareSerialOutputStream.o:     file format elf32-avr

Sections:
Idx Name          Size      VMA       LMA       File off  Algn
  0 .group        00000008  00000000  00000000  00000034  2**2
                  CONTENTS, READONLY, EXCLUDE, GROUP, LINK_ONCE_DISCARD
  1 .group        00000008  00000000  00000000  0000003c  2**2
                  CONTENTS, READONLY, EXCLUDE, GROUP, LINK_ONCE_DISCARD
  2 .group        00000008  00000000  00000000  00000044  2**2
                  CONTENTS, READONLY, EXCLUDE, GROUP, LINK_ONCE_DISCARD
  3 .text         00000000  00000000  00000000  0000004c  2**0
                  CONTENTS, ALLOC, LOAD, READONLY, CODE
  4 .data         00000000  00000000  00000000  0000004c  2**0
                  CONTENTS, ALLOC, LOAD, DATA
  5 .bss          00000000  00000000  00000000  0000004c  2**0
                  ALLOC
  6 .text._ZN26HardwareSerialOutputStreamC2Ej 0000001c  00000000  00000000  0000004c  2**0
                  CONTENTS, ALLOC, LOAD, RELOC, READONLY, CODE
  7 .text._ZN26HardwareSerialOutputStream5writeEh 00000008  00000000  00000000  00000068  2**0
                  CONTENTS, ALLOC, LOAD, RELOC, READONLY, CODE
  8 .rodata._ZTV9Closeable 00000006  00000000  00000000  00000070  2**0
                  CONTENTS, ALLOC, LOAD, RELOC, READONLY, DATA
  9 .rodata._ZTV18SerialOutputStream 0000000e  00000000  00000000  00000076  2**0
                  CONTENTS, ALLOC, LOAD, RELOC, READONLY, DATA
 10 .rodata._ZTV26HardwareSerialOutputStream 0000000e  00000000  00000000  00000084  2**0
                  CONTENTS, ALLOC, LOAD, RELOC, READONLY, DATA
 11 .comment      00000012  00000000  00000000  00000092  2**0
                  CONTENTS, READONLY

Disassembly of section .text._ZN26HardwareSerialOutputStreamC2Ej:

00000000 <_ZN26HardwareSerialOutputStreamC1Ej>:
   0:	20 e0       	ldi	r18, 0x00	; 0
   2:	30 e0       	ldi	r19, 0x00	; 0
   4:	fc 01       	movw	r30, r24
   6:	31 83       	std	Z+1, r19	; 0x01
   8:	20 83       	st	Z, r18
   a:	26 e0       	ldi	r18, 0x06	; 6
   c:	40 e8       	ldi	r20, 0x80	; 128
   e:	55 e2       	ldi	r21, 0x25	; 37
  10:	60 e0       	ldi	r22, 0x00	; 0
  12:	70 e0       	ldi	r23, 0x00	; 0
  14:	80 e0       	ldi	r24, 0x00	; 0
  16:	90 e0       	ldi	r25, 0x00	; 0
  18:	0c 94 00 00 	jmp	0	; 0x0 <_ZN26HardwareSerialOutputStreamC1Ej>

Disassembly of section .text._ZN26HardwareSerialOutputStream5writeEh:

0000001c <_ZN26HardwareSerialOutputStream5writeEh>:
  1c:	80 e0       	ldi	r24, 0x00	; 0
  1e:	90 e0       	ldi	r25, 0x00	; 0
  20:	0c 94 00 00 	jmp	0	; 0x0 <__tmp_reg__>

HardwareSerialInputStream.o:     file format elf32-avr

Sections:
Idx Name          Size      VMA       LMA       File off  Algn
  0 .group        00000008  00000000  00000000  00000034  2**2
                  CONTENTS, READONLY, EXCLUDE, GROUP, LINK_ONCE_DISCARD
  1 .group        00000008  00000000  00000000  0000003c  2**2
                  CONTENTS, READONLY, EXCLUDE, GROUP, LINK_ONCE_DISCARD
  2 .group        00000008  00000000  00000000  00000044  2**2
                  CONTENTS, READONLY, EXCLUDE, GROUP, LINK_ONCE_DISCARD
  3 .text         00000000  00000000  00000000  0000004c  2**0
                  CONTENTS, ALLOC, LOAD, READONLY, CODE
  4 .data         00000000  00000000  00000000  0000004c  2**0
                  CONTENTS, ALLOC, LOAD, DATA
  5 .bss          00000000  00000000  00000000  0000004c  2**0
                  ALLOC
  6 .text._ZN25HardwareSerialInputStreamC2Ej 0000001a  00000000  00000000  0000004c  2**0
                  CONTENTS, ALLOC, LOAD, RELOC, READONLY, CODE
  7 .text._ZN25HardwareSerialInputStream9availableEv 00000008  00000000  00000000  00000066  2**0
                  CONTENTS, ALLOC, LOAD, RELOC, READONLY, CODE
  8 .text._ZN25HardwareSerialInputStream4readEv 00000022  00000000  00000000  0000006e  2**0
                  CONTENTS, ALLOC, LOAD, RELOC, READONLY, CODE
  9 .rodata._ZTV9Closeable 00000006  00000000  00000000  00000090  2**0
                  CONTENTS, ALLOC, LOAD, RELOC, READONLY, DATA
 10 .rodata._ZTV17SerialInputStream 00000016  00000000  00000000  00000096  2**0
                  CONTENTS, ALLOC, LOAD, RELOC, READONLY, DATA
 11 .rodata._ZTV25HardwareSerialInputStream 00000016  00000000  00000000  000000ac  2**0
                  CONTENTS, ALLOC, LOAD, RELOC, READONLY, DATA
 12 .comment      00000012  00000000  00000000  000000c2  2**0
                  CONTENTS, READONLY

Disassembly of section .text._ZN25HardwareSerialInputStreamC2Ej:

00000000 <_ZN25HardwareSerialInputStreamC1Ej>:
   0:	20 e0       	ldi	r18, 0x00	; 0
   2:	30 e0       	ldi	r19, 0x00	; 0
   4:	fc 01       	movw	r30, r24
   6:	31 83       	std	Z+1, r19	; 0x01
   8:	20 83       	st	Z, r18
   a:	ab 01       	movw	r20, r22
   c:	60 e0       	ldi	r22, 0x00	; 0
   e:	70 e0       	ldi	r23, 0x00	; 0
  10:	26 e0       	ldi	r18, 0x06	; 6
  12:	80 e0       	ldi	r24, 0x00	; 0
  14:	90 e0       	ldi	r25, 0x00	; 0
  16:	0c 94 00 00 	jmp	0	; 0x0 <_ZN25HardwareSerialInputStreamC1Ej>

Disassembly of section .text._ZN25HardwareSerialInputStream9availableEv:

0000001a <_ZN25HardwareSerialInputStream9availableEv>:
  1a:	80 e0       	ldi	r24, 0x00	; 0
  1c:	90 e0       	ldi	r25, 0x00	; 0
  1e:	0c 94 00 00 	jmp	0	; 0x0 <__tmp_reg__>

Disassembly of section .text._ZN25HardwareSerialInputStream4readEv:

0000003c <_ZN25HardwareSerialInputStream4readEv>:
  3c:	dc 01       	movw	r26, r24
  3e:	ed 91       	ld	r30, X+
  40:	fc 91       	ld	r31, X
  42:	02 80       	ldd	r0, Z+2	; 0x02
  44:	f3 81       	ldd	r31, Z+3	; 0x03
  46:	e0 2d       	mov	r30, r0
  48:	09 95       	icall
  4a:	18 16       	cp	r1, r24
  4c:	19 06       	cpc	r1, r25
  4e:	04 f4       	brge	.+0      	; 0x50 <_ZN25HardwareSerialInputStream4readEv+0x14>
  50:	80 e0       	ldi	r24, 0x00	; 0
  52:	90 e0       	ldi	r25, 0x00	; 0
  54:	0c 94 00 00 	jmp	0	; 0x0 <__tmp_reg__>
  58:	8f ef       	ldi	r24, 0xFF	; 255
  5a:	9f ef       	ldi	r25, 0xFF	; 255
  5c:	08 95       	ret

FilterOutputStream.o:     file format elf32-avr

Sections:
Idx Name          Size      VMA       LMA       File off  Algn
  0 .group        00000008  00000000  00000000  00000034  2**2
                  CONTENTS, READONLY, EXCLUDE, GROUP, LINK_ONCE_DISCARD
  1 .group        00000008  00000000  00000000  0000003c  2**2
                  CONTENTS, READONLY, EXCLUDE, GROUP, LINK_ONCE_DISCARD
  2 .text         00000000  00000000  00000000  00000044  2**0
                  CONTENTS, ALLOC, LOAD, READONLY, CODE
  3 .data         00000000  00000000  00000000  00000044  2**0
                  CONTENTS, ALLOC, LOAD, DATA
  4 .bss          00000000  00000000  00000000  00000044  2**0
                  ALLOC
  5 .text._ZN18FilterOutputStream5writeEh 00000018  00000000  00000000  00000044  2**0
                  CONTENTS, ALLOC, LOAD, READONLY, CODE
  6 .text._ZN18FilterOutputStream5writeEPhi 00000018  00000000  00000000  0000005c  2**0
                  CONTENTS, ALLOC, LOAD, READONLY, CODE
  7 .text._ZN18FilterOutputStream5writeEPhii 00000018  00000000  00000000  00000074  2**0
                  CONTENTS, ALLOC, LOAD, READONLY, CODE
  8 .text._ZN18FilterOutputStream5flushEv 00000018  00000000  00000000  0000008c  2**0
                  CONTENTS, ALLOC, LOAD, READONLY, CODE
  9 .text._ZN18FilterOutputStream5closeEv 0000002e  00000000  00000000  000000a4  2**0
                  CONTENTS, ALLOC, LOAD, READONLY, CODE
 10 .text._ZN18FilterOutputStreamC2EP12OutputStream 00000010  00000000  00000000  000000d2  2**0
                  CONTENTS, ALLOC, LOAD, RELOC, READONLY, CODE
 11 .rodata._ZTV9Closeable 00000006  00000000  00000000  000000e2  2**0
                  CONTENTS, ALLOC, LOAD, RELOC, READONLY, DATA
 12 .rodata._ZTV18FilterOutputStream 0000000e  00000000  00000000  000000e8  2**0
                  CONTENTS, ALLOC, LOAD, RELOC, READONLY, DATA
 13 .comment      00000012  00000000  00000000  000000f6  2**0
                  CONTENTS, READONLY

Disassembly of section .text._ZN18FilterOutputStream5writeEh:

00000000 <_ZN18FilterOutputStream5writeEh>:
   0:	dc 01       	movw	r26, r24
   2:	12 96       	adiw	r26, 0x02	; 2
   4:	8d 91       	ld	r24, X+
   6:	9c 91       	ld	r25, X
   8:	13 97       	sbiw	r26, 0x03	; 3
   a:	dc 01       	movw	r26, r24
   c:	ed 91       	ld	r30, X+
   e:	fc 91       	ld	r31, X
  10:	04 80       	ldd	r0, Z+4	; 0x04
  12:	f5 81       	ldd	r31, Z+5	; 0x05
  14:	e0 2d       	mov	r30, r0
  16:	09 94       	ijmp

Disassembly of section .text._ZN18FilterOutputStream5writeEPhi:

00000018 <_ZN18FilterOutputStream5writeEPhi>:
  18:	dc 01       	movw	r26, r24
  1a:	12 96       	adiw	r26, 0x02	; 2
  1c:	8d 91       	ld	r24, X+
  1e:	9c 91       	ld	r25, X
  20:	13 97       	sbiw	r26, 0x03	; 3
  22:	dc 01       	movw	r26, r24
  24:	ed 91       	ld	r30, X+
  26:	fc 91       	ld	r31, X
  28:	06 80       	ldd	r0, Z+6	; 0x06
  2a:	f7 81       	ldd	r31, Z+7	; 0x07
  2c:	e0 2d       	mov	r30, r0
  2e:	09 94       	ijmp

Disassembly of section .text._ZN18FilterOutputStream5writeEPhii:

00000048 <_ZN18FilterOutputStream5writeEPhii>:
  48:	dc 01       	movw	r26, r24
  4a:	12 96       	adiw	r26, 0x02	; 2
  4c:	8d 91       	ld	r24, X+
  4e:	9c 91       	ld	r25, X
  50:	13 97       	sbiw	r26, 0x03	; 3
  52:	dc 01       	movw	r26, r24
  54:	ed 91       	ld	r30, X+
  56:	fc 91       	ld	r31, X
  58:	00 84       	ldd	r0, Z+8	; 0x08
  5a:	f1 85       	ldd	r31, Z+9	; 0x09
  5c:	e0 2d       	mov	r30, r0
  5e:	09 94       	ijmp

Disassembly of section .text._ZN18FilterOutputStream5flushEv:

000000a8 <_ZN18FilterOutputStream5flushEv>:
  a8:	dc 01       	movw	r26, r24
  aa:	12 96       	adiw	r26, 0x02	; 2
  ac:	8d 91       	ld	r24, X+
  ae:	9c 91       	ld	r25, X
  b0:	13 97       	sbiw	r26, 0x03	; 3
  b2:	dc 01       	movw	r26, r24
  b4:	ed 91       	ld	r30, X+
  b6:	fc 91       	ld	r31, X
  b8:	02 80       	ldd	r0, Z+2	; 0x02
  ba:	f3 81       	ldd	r31, Z+3	; 0x03
  bc:	e0 2d       	mov	r30, r0
  be:	09 94       	ijmp

Disassembly of section .text._ZN18FilterOutputStream5closeEv:

00000168 <_ZN18FilterOutputStream5closeEv>:
 168:	cf 93       	push	r28
 16a:	df 93       	push	r29
 16c:	ec 01       	movw	r28, r24
 16e:	8a 81       	ldd	r24, Y+2	; 0x02
 170:	9b 81       	ldd	r25, Y+3	; 0x03
 172:	dc 01       	movw	r26, r24
 174:	ed 91       	ld	r30, X+
 176:	fc 91       	ld	r31, X
 178:	02 80       	ldd	r0, Z+2	; 0x02
 17a:	f3 81       	ldd	r31, Z+3	; 0x03
 17c:	e0 2d       	mov	r30, r0
 17e:	09 95       	icall
 180:	8a 81       	ldd	r24, Y+2	; 0x02
 182:	9b 81       	ldd	r25, Y+3	; 0x03
 184:	dc 01       	movw	r26, r24
 186:	ed 91       	ld	r30, X+
 188:	fc 91       	ld	r31, X
 18a:	01 90       	ld	r0, Z+
 18c:	f0 81       	ld	r31, Z
 18e:	e0 2d       	mov	r30, r0
 190:	df 91       	pop	r29
 192:	cf 91       	pop	r28
 194:	09 94       	ijmp

Disassembly of section .text._ZN18FilterOutputStreamC2EP12OutputStream:

000002fe <_ZN18FilterOutputStreamC1EP12OutputStream>:
 2fe:	20 e0       	ldi	r18, 0x00	; 0
 300:	30 e0       	ldi	r19, 0x00	; 0
 302:	fc 01       	movw	r30, r24
 304:	31 83       	std	Z+1, r19	; 0x01
 306:	20 83       	st	Z, r18
 308:	73 83       	std	Z+3, r23	; 0x03
 30a:	62 83       	std	Z+2, r22	; 0x02
 30c:	08 95       	ret

FilterInputStream.o:     file format elf32-avr

Sections:
Idx Name          Size      VMA       LMA       File off  Algn
  0 .group        00000008  00000000  00000000  00000034  2**2
                  CONTENTS, READONLY, EXCLUDE, GROUP, LINK_ONCE_DISCARD
  1 .group        0000000c  00000000  00000000  0000003c  2**2
                  CONTENTS, READONLY, EXCLUDE, GROUP, LINK_ONCE_DISCARD
  2 .text         00000000  00000000  00000000  00000048  2**0
                  CONTENTS, ALLOC, LOAD, READONLY, CODE
  3 .data         00000000  00000000  00000000  00000048  2**0
                  CONTENTS, ALLOC, LOAD, DATA
  4 .bss          00000000  00000000  00000000  00000048  2**0
                  ALLOC
  5 .text._ZN17FilterInputStream4readEv 00000018  00000000  00000000  00000048  2**0
                  CONTENTS, ALLOC, LOAD, READONLY, CODE
  6 .text._ZN17FilterInputStream4readEPhi 00000018  00000000  00000000  00000060  2**0
                  CONTENTS, ALLOC, LOAD, READONLY, CODE
  7 .text._ZN17FilterInputStream4readEPhii 00000018  00000000  00000000  00000078  2**0
                  CONTENTS, ALLOC, LOAD, READONLY, CODE
  8 .text._ZN17FilterInputStream4skipEj 00000018  00000000  00000000  00000090  2**0
                  CONTENTS, ALLOC, LOAD, READONLY, CODE
  9 .text._ZN17FilterInputStream9availableEv 00000018  00000000  00000000  000000a8  2**0
                  CONTENTS, ALLOC, LOAD, READONLY, CODE
 10 .text._ZN17FilterInputStream5closeEv 00000018  00000000  00000000  000000c0  2**0
                  CONTENTS, ALLOC, LOAD, READONLY, CODE
 11 .text._ZN17FilterInputStream4markEv 00000018  00000000  00000000  000000d8  2**0
                  CONTENTS, ALLOC, LOAD, READONLY, CODE
 12 .text._ZN17FilterInputStream5resetEv 00000018  00000000  00000000  000000f0  2**0
                  CONTENTS, ALLOC, LOAD, READONLY, CODE
 13 .text._ZN17FilterInputStream13markSupportedEv 00000018  00000000  00000000  00000108  2**0
                  CONTENTS, ALLOC, LOAD, READONLY, CODE
 14 .text._ZN17FilterInputStreamC2EP11InputStream 0000002c  00000000  00000000  00000120  2**0
                  CONTENTS, ALLOC, LOAD, READONLY, CODE
 15 .text._ZN17FilterInputStreamC1EP11InputStream 00000010  00000000  00000000  0000014c  2**0
                  CONTENTS, ALLOC, LOAD, RELOC, READONLY, CODE
 16 .text._ZTv0_n14_N17FilterInputStream4readEv 00000014  00000000  00000000  0000015c  2**0
                  CONTENTS, ALLOC, LOAD, RELOC, READONLY, CODE
 17 .text._ZTv0_n16_N17FilterInputStream4readEPhi 00000014  00000000  00000000  00000170  2**0
                  CONTENTS, ALLOC, LOAD, RELOC, READONLY, CODE
 18 .text._ZTv0_n18_N17FilterInputStream4readEPhii 00000016  00000000  00000000  00000184  2**0
                  CONTENTS, ALLOC, LOAD, RELOC, READONLY, CODE
 19 .text._ZTv0_n22_N17FilterInputStream4skipEj 00000014  00000000  00000000  0000019a  2**0
                  CONTENTS, ALLOC, LOAD, RELOC, READONLY, CODE
 20 .text._ZTv0_n8_N17FilterInputStream9availableEv 00000014  00000000  00000000  000001ae  2**0
                  CONTENTS, ALLOC, LOAD, RELOC, READONLY, CODE
 21 .text._ZTv0_n6_N17FilterInputStream5closeEv 00000014  00000000  00000000  000001c2  2**0
                  CONTENTS, ALLOC, LOAD, RELOC, READONLY, CODE
 22 .text._ZTv0_n10_N17FilterInputStream4markEv 00000014  00000000  00000000  000001d6  2**0
                  CONTENTS, ALLOC, LOAD, RELOC, READONLY, CODE
 23 .text._ZTv0_n20_N17FilterInputStream5resetEv 00000014  00000000  00000000  000001ea  2**0
                  CONTENTS, ALLOC, LOAD, RELOC, READONLY, CODE
 24 .text._ZTv0_n12_N17FilterInputStream13markSupportedEv 00000014  00000000  00000000  000001fe  2**0
                  CONTENTS, ALLOC, LOAD, RELOC, READONLY, CODE
 25 .rodata._ZTV9Closeable 00000006  00000000  00000000  00000212  2**0
                  CONTENTS, ALLOC, LOAD, RELOC, READONLY, DATA
 26 .rodata._ZTT17FilterInputStream 00000004  00000000  00000000  00000218  2**0
                  CONTENTS, ALLOC, LOAD, RELOC, READONLY, DATA
 27 .rodata._ZTV17FilterInputStream 0000002a  00000000  00000000  0000021c  2**0
                  CONTENTS, ALLOC, LOAD, RELOC, READONLY, DATA
 28 .comment      00000012  00000000  00000000  00000246  2**0
                  CONTENTS, READONLY

Disassembly of section .text._ZN17FilterInputStream4readEv:

00000000 <_ZN17FilterInputStream4readEv>:
   0:	dc 01       	movw	r26, r24
   2:	12 96       	adiw	r26, 0x02	; 2
   4:	8d 91       	ld	r24, X+
   6:	9c 91       	ld	r25, X
   8:	13 97       	sbiw	r26, 0x03	; 3
   a:	dc 01       	movw	r26, r24
   c:	ed 91       	ld	r30, X+
   e:	fc 91       	ld	r31, X
  10:	00 84       	ldd	r0, Z+8	; 0x08
  12:	f1 85       	ldd	r31, Z+9	; 0x09
  14:	e0 2d       	mov	r30, r0
  16:	09 94       	ijmp

Disassembly of section .text._ZN17FilterInputStream4readEPhi:

00000018 <_ZN17FilterInputStream4readEPhi>:
  18:	dc 01       	movw	r26, r24
  1a:	12 96       	adiw	r26, 0x02	; 2
  1c:	8d 91       	ld	r24, X+
  1e:	9c 91       	ld	r25, X
  20:	13 97       	sbiw	r26, 0x03	; 3
  22:	dc 01       	movw	r26, r24
  24:	ed 91       	ld	r30, X+
  26:	fc 91       	ld	r31, X
  28:	02 84       	ldd	r0, Z+10	; 0x0a
  2a:	f3 85       	ldd	r31, Z+11	; 0x0b
  2c:	e0 2d       	mov	r30, r0
  2e:	09 94       	ijmp

Disassembly of section .text._ZN17FilterInputStream4readEPhii:

00000048 <_ZN17FilterInputStream4readEPhii>:
  48:	dc 01       	movw	r26, r24
  4a:	12 96       	adiw	r26, 0x02	; 2
  4c:	8d 91       	ld	r24, X+
  4e:	9c 91       	ld	r25, X
  50:	13 97       	sbiw	r26, 0x03	; 3
  52:	dc 01       	movw	r26, r24
  54:	ed 91       	ld	r30, X+
  56:	fc 91       	ld	r31, X
  58:	04 84       	ldd	r0, Z+12	; 0x0c
  5a:	f5 85       	ldd	r31, Z+13	; 0x0d
  5c:	e0 2d       	mov	r30, r0
  5e:	09 94       	ijmp

Disassembly of section .text._ZN17FilterInputStream4skipEj:

000000a8 <_ZN17FilterInputStream4skipEj>:
  a8:	dc 01       	movw	r26, r24
  aa:	12 96       	adiw	r26, 0x02	; 2
  ac:	8d 91       	ld	r24, X+
  ae:	9c 91       	ld	r25, X
  b0:	13 97       	sbiw	r26, 0x03	; 3
  b2:	dc 01       	movw	r26, r24
  b4:	ed 91       	ld	r30, X+
  b6:	fc 91       	ld	r31, X
  b8:	00 88       	ldd	r0, Z+16	; 0x10
  ba:	f1 89       	ldd	r31, Z+17	; 0x11
  bc:	e0 2d       	mov	r30, r0
  be:	09 94       	ijmp

Disassembly of section .text._ZN17FilterInputStream9availableEv:

00000168 <_ZN17FilterInputStream9availableEv>:
 168:	dc 01       	movw	r26, r24
 16a:	12 96       	adiw	r26, 0x02	; 2
 16c:	8d 91       	ld	r24, X+
 16e:	9c 91       	ld	r25, X
 170:	13 97       	sbiw	r26, 0x03	; 3
 172:	dc 01       	movw	r26, r24
 174:	ed 91       	ld	r30, X+
 176:	fc 91       	ld	r31, X
 178:	02 80       	ldd	r0, Z+2	; 0x02
 17a:	f3 81       	ldd	r31, Z+3	; 0x03
 17c:	e0 2d       	mov	r30, r0
 17e:	09 94       	ijmp

Disassembly of section .text._ZN17FilterInputStream5closeEv:

000002e8 <_ZN17FilterInputStream5closeEv>:
 2e8:	dc 01       	movw	r26, r24
 2ea:	12 96       	adiw	r26, 0x02	; 2
 2ec:	8d 91       	ld	r24, X+
 2ee:	9c 91       	ld	r25, X
 2f0:	13 97       	sbiw	r26, 0x03	; 3
 2f2:	dc 01       	movw	r26, r24
 2f4:	ed 91       	ld	r30, X+
 2f6:	fc 91       	ld	r31, X
 2f8:	01 90       	ld	r0, Z+
 2fa:	f0 81       	ld	r31, Z
 2fc:	e0 2d       	mov	r30, r0
 2fe:	09 94       	ijmp

Disassembly of section .text._ZN17FilterInputStream4markEv:

000005e8 <_ZN17FilterInputStream4markEv>:
 5e8:	dc 01       	movw	r26, r24
 5ea:	12 96       	adiw	r26, 0x02	; 2
 5ec:	8d 91       	ld	r24, X+
 5ee:	9c 91       	ld	r25, X
 5f0:	13 97       	sbiw	r26, 0x03	; 3
 5f2:	dc 01       	movw	r26, r24
 5f4:	ed 91       	ld	r30, X+
 5f6:	fc 91       	ld	r31, X
 5f8:	04 80       	ldd	r0, Z+4	; 0x04
 5fa:	f5 81       	ldd	r31, Z+5	; 0x05
 5fc:	e0 2d       	mov	r30, r0
 5fe:	09 94       	ijmp

Disassembly of section .text._ZN17FilterInputStream5resetEv:

00000be8 <_ZN17FilterInputStream5resetEv>:
 be8:	dc 01       	movw	r26, r24
 bea:	12 96       	adiw	r26, 0x02	; 2
 bec:	8d 91       	ld	r24, X+
 bee:	9c 91       	ld	r25, X
 bf0:	13 97       	sbiw	r26, 0x03	; 3
 bf2:	dc 01       	movw	r26, r24
 bf4:	ed 91       	ld	r30, X+
 bf6:	fc 91       	ld	r31, X
 bf8:	06 84       	ldd	r0, Z+14	; 0x0e
 bfa:	f7 85       	ldd	r31, Z+15	; 0x0f
 bfc:	e0 2d       	mov	r30, r0
 bfe:	09 94       	ijmp

Disassembly of section .text._ZN17FilterInputStream13markSupportedEv:

000017e8 <_ZN17FilterInputStream13markSupportedEv>:
    17e8:	dc 01       	movw	r26, r24
    17ea:	12 96       	adiw	r26, 0x02	; 2
    17ec:	8d 91       	ld	r24, X+
    17ee:	9c 91       	ld	r25, X
    17f0:	13 97       	sbiw	r26, 0x03	; 3
    17f2:	dc 01       	movw	r26, r24
    17f4:	ed 91       	ld	r30, X+
    17f6:	fc 91       	ld	r31, X
    17f8:	06 80       	ldd	r0, Z+6	; 0x06
    17fa:	f7 81       	ldd	r31, Z+7	; 0x07
    17fc:	e0 2d       	mov	r30, r0
    17fe:	09 94       	ijmp

Disassembly of section .text._ZN17FilterInputStreamC2EP11InputStream:

00002fe8 <_ZN17FilterInputStreamC2EP11InputStream>:
    2fe8:	fb 01       	movw	r30, r22
    2fea:	20 81       	ld	r18, Z
    2fec:	31 81       	ldd	r19, Z+1	; 0x01
    2fee:	fc 01       	movw	r30, r24
    2ff0:	31 83       	std	Z+1, r19	; 0x01
    2ff2:	20 83       	st	Z, r18
    2ff4:	fb 01       	movw	r30, r22
    2ff6:	62 81       	ldd	r22, Z+2	; 0x02
    2ff8:	73 81       	ldd	r23, Z+3	; 0x03
    2ffa:	f9 01       	movw	r30, r18
    2ffc:	78 97       	sbiw	r30, 0x18	; 24
    2ffe:	01 90       	ld	r0, Z+
    3000:	f0 81       	ld	r31, Z
    3002:	e0 2d       	mov	r30, r0
    3004:	e8 0f       	add	r30, r24
    3006:	f9 1f       	adc	r31, r25
    3008:	71 83       	std	Z+1, r23	; 0x01
    300a:	60 83       	st	Z, r22
    300c:	fc 01       	movw	r30, r24
    300e:	53 83       	std	Z+3, r21	; 0x03
    3010:	42 83       	std	Z+2, r20	; 0x02
    3012:	08 95       	ret

Disassembly of section .text._ZN17FilterInputStreamC1EP11InputStream:

00005ffc <_ZN17FilterInputStreamC1EP11InputStream>:
    5ffc:	20 e0       	ldi	r18, 0x00	; 0
    5ffe:	30 e0       	ldi	r19, 0x00	; 0
    6000:	fc 01       	movw	r30, r24
    6002:	31 83       	std	Z+1, r19	; 0x01
    6004:	20 83       	st	Z, r18
    6006:	73 83       	std	Z+3, r23	; 0x03
    6008:	62 83       	std	Z+2, r22	; 0x02
    600a:	08 95       	ret

Disassembly of section .text._ZTv0_n14_N17FilterInputStream4readEv:

0000c008 <_ZTv0_n14_N17FilterInputStream4readEv>:
    c008:	dc 01       	movw	r26, r24
    c00a:	ed 91       	ld	r30, X+
    c00c:	fc 91       	ld	r31, X
    c00e:	3e 97       	sbiw	r30, 0x0e	; 14
    c010:	20 81       	ld	r18, Z
    c012:	31 81       	ldd	r19, Z+1	; 0x01
    c014:	82 0f       	add	r24, r18
    c016:	93 1f       	adc	r25, r19
    c018:	0c 94 00 00 	jmp	0	; 0x0 <__tmp_reg__>

Disassembly of section .text._ZTv0_n16_N17FilterInputStream4readEPhi:

00018024 <_ZTv0_n16_N17FilterInputStream4readEPhi>:
   18024:	dc 01       	movw	r26, r24
   18026:	ed 91       	ld	r30, X+
   18028:	fc 91       	ld	r31, X
   1802a:	70 97       	sbiw	r30, 0x10	; 16
   1802c:	20 81       	ld	r18, Z
   1802e:	31 81       	ldd	r19, Z+1	; 0x01
   18030:	82 0f       	add	r24, r18
   18032:	93 1f       	adc	r25, r19
   18034:	0c 94 00 00 	jmp	0	; 0x0 <__tmp_reg__>

Disassembly of section .text._ZTv0_n18_N17FilterInputStream4readEPhii:

0003005c <_ZTv0_n18_N17FilterInputStream4readEPhii>:
   3005c:	dc 01       	movw	r26, r24
   3005e:	ed 91       	ld	r30, X+
   30060:	fc 91       	ld	r31, X
   30062:	72 97       	sbiw	r30, 0x12	; 18
   30064:	01 90       	ld	r0, Z+
   30066:	f0 81       	ld	r31, Z
   30068:	e0 2d       	mov	r30, r0
   3006a:	8e 0f       	add	r24, r30
   3006c:	9f 1f       	adc	r25, r31
   3006e:	0c 94 00 00 	jmp	0	; 0x0 <__tmp_reg__>

Disassembly of section .text._ZTv0_n22_N17FilterInputStream4skipEj:

000600ce <_ZTv0_n22_N17FilterInputStream4skipEj>:
   600ce:	dc 01       	movw	r26, r24
   600d0:	ed 91       	ld	r30, X+
   600d2:	fc 91       	ld	r31, X
   600d4:	76 97       	sbiw	r30, 0x16	; 22
   600d6:	20 81       	ld	r18, Z
   600d8:	31 81       	ldd	r19, Z+1	; 0x01
   600da:	82 0f       	add	r24, r18
   600dc:	93 1f       	adc	r25, r19
   600de:	0c 94 00 00 	jmp	0	; 0x0 <__tmp_reg__>

Disassembly of section .text._ZTv0_n8_N17FilterInputStream9availableEv:

000c01b0 <_ZTv0_n8_N17FilterInputStream9availableEv>:
   c01b0:	dc 01       	movw	r26, r24
   c01b2:	ed 91       	ld	r30, X+
   c01b4:	fc 91       	ld	r31, X
   c01b6:	38 97       	sbiw	r30, 0x08	; 8
   c01b8:	20 81       	ld	r18, Z
   c01ba:	31 81       	ldd	r19, Z+1	; 0x01
   c01bc:	82 0f       	add	r24, r18
   c01be:	93 1f       	adc	r25, r19
   c01c0:	0c 94 00 00 	jmp	0	; 0x0 <__tmp_reg__>

Disassembly of section .text._ZTv0_n6_N17FilterInputStream5closeEv:

00180374 <_ZTv0_n6_N17FilterInputStream5closeEv>:
  180374:	dc 01       	movw	r26, r24
  180376:	ed 91       	ld	r30, X+
  180378:	fc 91       	ld	r31, X
  18037a:	36 97       	sbiw	r30, 0x06	; 6
  18037c:	20 81       	ld	r18, Z
  18037e:	31 81       	ldd	r19, Z+1	; 0x01
  180380:	82 0f       	add	r24, r18
  180382:	93 1f       	adc	r25, r19
  180384:	0c 94 00 00 	jmp	0	; 0x0 <__tmp_reg__>

Disassembly of section .text._ZTv0_n10_N17FilterInputStream4markEv:

003006fc <_ZTv0_n10_N17FilterInputStream4markEv>:
  3006fc:	dc 01       	movw	r26, r24
  3006fe:	ed 91       	ld	r30, X+
  300700:	fc 91       	ld	r31, X
  300702:	3a 97       	sbiw	r30, 0x0a	; 10
  300704:	20 81       	ld	r18, Z
  300706:	31 81       	ldd	r19, Z+1	; 0x01
  300708:	82 0f       	add	r24, r18
  30070a:	93 1f       	adc	r25, r19
  30070c:	0c 94 00 00 	jmp	0	; 0x0 <__tmp_reg__>

Disassembly of section .text._ZTv0_n20_N17FilterInputStream5resetEv:

00600e0c <_ZTv0_n20_N17FilterInputStream5resetEv>:
  600e0c:	dc 01       	movw	r26, r24
  600e0e:	ed 91       	ld	r30, X+
  600e10:	fc 91       	ld	r31, X
  600e12:	74 97       	sbiw	r30, 0x14	; 20
  600e14:	20 81       	ld	r18, Z
  600e16:	31 81       	ldd	r19, Z+1	; 0x01
  600e18:	82 0f       	add	r24, r18
  600e1a:	93 1f       	adc	r25, r19
  600e1c:	0c 94 00 00 	jmp	0	; 0x0 <__tmp_reg__>

Disassembly of section .text._ZTv0_n12_N17FilterInputStream13markSupportedEv:

00c01c2c <_ZTv0_n12_N17FilterInputStream13markSupportedEv>:
  c01c2c:	dc 01       	movw	r26, r24
  c01c2e:	ed 91       	ld	r30, X+
  c01c30:	fc 91       	ld	r31, X
  c01c32:	3c 97       	sbiw	r30, 0x0c	; 12
  c01c34:	20 81       	ld	r18, Z
  c01c36:	31 81       	ldd	r19, Z+1	; 0x01
  c01c38:	82 0f       	add	r24, r18
  c01c3a:	93 1f       	adc	r25, r19
  c01c3c:	0c 94 00 00 	jmp	0	; 0x0 <__tmp_reg__>

ExternalEepromSeekableInputStream.o:     file format elf32-avr

Sections:
Idx Name          Size      VMA       LMA       File off  Algn
  0 .group        00000008  00000000  00000000  00000034  2**2
                  CONTENTS, READONLY, EXCLUDE, GROUP, LINK_ONCE_DISCARD
  1 .group        00000008  00000000  00000000  0000003c  2**2
                  CONTENTS, READONLY, EXCLUDE, GROUP, LINK_ONCE_DISCARD
  2 .group        00000008  00000000  00000000  00000044  2**2
                  CONTENTS, READONLY, EXCLUDE, GROUP, LINK_ONCE_DISCARD
  3 .group        00000014  00000000  00000000  0000004c  2**2
                  CONTENTS, READONLY, EXCLUDE, GROUP, LINK_ONCE_DISCARD
  4 .text         00000000  00000000  00000000  00000060  2**0
                  CONTENTS, ALLOC, LOAD, READONLY, CODE
  5 .data         00000000  00000000  00000000  00000060  2**0
                  CONTENTS, ALLOC, LOAD, DATA
  6 .bss          00000000  00000000  00000000  00000060  2**0
                  ALLOC
  7 .text._ZN33ExternalEepromSeekableInputStream4seekEj 00000008  00000000  00000000  00000060  2**0
                  CONTENTS, ALLOC, LOAD, READONLY, CODE
  8 .text._ZN19SeekableInputStreamC2Ev 0000003e  00000000  00000000  00000068  2**0
                  CONTENTS, ALLOC, LOAD, READONLY, CODE
  9 .text._ZN33ExternalEepromSeekableInputStreamC2EP14ExternalEeprom 0000006e  00000000  00000000  000000a6  2**0
                  CONTENTS, ALLOC, LOAD, RELOC, READONLY, CODE
 10 .text._ZN33ExternalEepromSeekableInputStreamC1EP14ExternalEeprom 00000044  00000000  00000000  00000114  2**0
                  CONTENTS, ALLOC, LOAD, RELOC, READONLY, CODE
 11 .text._ZTv0_n6_N33ExternalEepromSeekableInputStream4seekEj 00000014  00000000  00000000  00000158  2**0
                  CONTENTS, ALLOC, LOAD, RELOC, READONLY, CODE
 12 .rodata._ZTV8Seekable 00000006  00000000  00000000  0000016c  2**0
                  CONTENTS, ALLOC, LOAD, RELOC, READONLY, DATA
 13 .rodata._ZTV9Closeable 00000006  00000000  00000000  00000172  2**0
                  CONTENTS, ALLOC, LOAD, RELOC, READONLY, DATA
 14 .rodata._ZTC33ExternalEepromSeekableInputStream10_19SeekableInputStream 00000034  00000000  00000000  00000178  2**0
                  CONTENTS, ALLOC, LOAD, RELOC, READONLY, DATA
 15 .rodata._ZTC33ExternalEepromSeekableInputStream0_25ExternalEepromInputStream 0000002a  00000000  00000000  000001ac  2**0
                  CONTENTS, ALLOC, LOAD, RELOC, READONLY, DATA
 16 .rodata._ZTT33ExternalEepromSeekableInputStream 00000012  00000000  00000000  000001d6  2**0
                  CONTENTS, ALLOC, LOAD, RELOC, READONLY, DATA
 17 .rodata._ZTV33ExternalEepromSeekableInputStream 0000003a  00000000  00000000  000001e8  2**0
                  CONTENTS, ALLOC, LOAD, RELOC, READONLY, DATA
 18 .comment      00000012  00000000  00000000  00000222  2**0
                  CONTENTS, READONLY

Disassembly of section .text._ZN33ExternalEepromSeekableInputStream4seekEj:

00000000 <_ZN33ExternalEepromSeekableInputStream4seekEj>:
   0:	fc 01       	movw	r30, r24
   2:	75 83       	std	Z+5, r23	; 0x05
   4:	64 83       	std	Z+4, r22	; 0x04
   6:	08 95       	ret

Disassembly of section .text._ZN19SeekableInputStreamC2Ev:

00000008 <_ZN19SeekableInputStreamC2Ev>:
   8:	fb 01       	movw	r30, r22
   a:	20 81       	ld	r18, Z
   c:	31 81       	ldd	r19, Z+1	; 0x01
   e:	dc 01       	movw	r26, r24
  10:	2d 93       	st	X+, r18
  12:	3c 93       	st	X, r19
  14:	42 81       	ldd	r20, Z+2	; 0x02
  16:	53 81       	ldd	r21, Z+3	; 0x03
  18:	d9 01       	movw	r26, r18
  1a:	18 97       	sbiw	r26, 0x08	; 8
  1c:	0d 90       	ld	r0, X+
  1e:	bc 91       	ld	r27, X
  20:	a0 2d       	mov	r26, r0
  22:	a8 0f       	add	r26, r24
  24:	b9 1f       	adc	r27, r25
  26:	4d 93       	st	X+, r20
  28:	5c 93       	st	X, r21
  2a:	24 81       	ldd	r18, Z+4	; 0x04
  2c:	35 81       	ldd	r19, Z+5	; 0x05
  2e:	dc 01       	movw	r26, r24
  30:	ed 91       	ld	r30, X+
  32:	fc 91       	ld	r31, X
  34:	3a 97       	sbiw	r30, 0x0a	; 10
  36:	01 90       	ld	r0, Z+
  38:	f0 81       	ld	r31, Z
  3a:	e0 2d       	mov	r30, r0
  3c:	e8 0f       	add	r30, r24
  3e:	f9 1f       	adc	r31, r25
  40:	31 83       	std	Z+1, r19	; 0x01
  42:	20 83       	st	Z, r18
  44:	08 95       	ret

Disassembly of section .text._ZN33ExternalEepromSeekableInputStreamC2EP14ExternalEeprom:

0000004e <_ZN33ExternalEepromSeekableInputStreamC2EP14ExternalEeprom>:
  4e:	0f 93       	push	r16
  50:	1f 93       	push	r17
  52:	cf 93       	push	r28
  54:	df 93       	push	r29
  56:	ec 01       	movw	r28, r24
  58:	8b 01       	movw	r16, r22
  5a:	6e 5f       	subi	r22, 0xFE	; 254
  5c:	7f 4f       	sbci	r23, 0xFF	; 255
  5e:	0e 94 00 00 	call	0	; 0x0 <__tmp_reg__>
  62:	b8 01       	movw	r22, r16
  64:	6a 5f       	subi	r22, 0xFA	; 250
  66:	7f 4f       	sbci	r23, 0xFF	; 255
  68:	ce 01       	movw	r24, r28
  6a:	0a 96       	adiw	r24, 0x0a	; 10
  6c:	0e 94 00 00 	call	0	; 0x0 <__tmp_reg__>
  70:	f8 01       	movw	r30, r16
  72:	80 81       	ld	r24, Z
  74:	91 81       	ldd	r25, Z+1	; 0x01
  76:	99 83       	std	Y+1, r25	; 0x01
  78:	88 83       	st	Y, r24
  7a:	24 85       	ldd	r18, Z+12	; 0x0c
  7c:	35 85       	ldd	r19, Z+13	; 0x0d
  7e:	fc 01       	movw	r30, r24
  80:	78 97       	sbiw	r30, 0x18	; 24
  82:	01 90       	ld	r0, Z+
  84:	f0 81       	ld	r31, Z
  86:	e0 2d       	mov	r30, r0
  88:	ec 0f       	add	r30, r28
  8a:	fd 1f       	adc	r31, r29
  8c:	31 83       	std	Z+1, r19	; 0x01
  8e:	20 83       	st	Z, r18
  90:	f8 01       	movw	r30, r16
  92:	86 85       	ldd	r24, Z+14	; 0x0e
  94:	97 85       	ldd	r25, Z+15	; 0x0f
  96:	9b 87       	std	Y+11, r25	; 0x0b
  98:	8a 87       	std	Y+10, r24	; 0x0a
  9a:	80 89       	ldd	r24, Z+16	; 0x10
  9c:	91 89       	ldd	r25, Z+17	; 0x11
  9e:	e8 81       	ld	r30, Y
  a0:	f9 81       	ldd	r31, Y+1	; 0x01
  a2:	7a 97       	sbiw	r30, 0x1a	; 26
  a4:	01 90       	ld	r0, Z+
  a6:	f0 81       	ld	r31, Z
  a8:	e0 2d       	mov	r30, r0
  aa:	ec 0f       	add	r30, r28
  ac:	fd 1f       	adc	r31, r29
  ae:	91 83       	std	Z+1, r25	; 0x01
  b0:	80 83       	st	Z, r24
  b2:	df 91       	pop	r29
  b4:	cf 91       	pop	r28
  b6:	1f 91       	pop	r17
  b8:	0f 91       	pop	r16
  ba:	08 95       	ret

Disassembly of section .text._ZN33ExternalEepromSeekableInputStreamC1EP14ExternalEeprom:

0000010a <_ZN33ExternalEepromSeekableInputStreamC1EP14ExternalEeprom>:
 10a:	cf 93       	push	r28
 10c:	df 93       	push	r29
 10e:	ec 01       	movw	r28, r24
 110:	ab 01       	movw	r20, r22
 112:	80 e0       	ldi	r24, 0x00	; 0
 114:	90 e0       	ldi	r25, 0x00	; 0
 116:	99 83       	std	Y+1, r25	; 0x01
 118:	88 83       	st	Y, r24
 11a:	80 e0       	ldi	r24, 0x00	; 0
 11c:	90 e0       	ldi	r25, 0x00	; 0
 11e:	9b 87       	std	Y+11, r25	; 0x0b
 120:	8a 87       	std	Y+10, r24	; 0x0a
 122:	60 e0       	ldi	r22, 0x00	; 0
 124:	70 e0       	ldi	r23, 0x00	; 0
 126:	ce 01       	movw	r24, r28
 128:	0e 94 00 00 	call	0	; 0x0 <__tmp_reg__>
 12c:	60 e0       	ldi	r22, 0x00	; 0
 12e:	70 e0       	ldi	r23, 0x00	; 0
 130:	ce 01       	movw	r24, r28
 132:	0a 96       	adiw	r24, 0x0a	; 10
 134:	0e 94 00 00 	call	0	; 0x0 <__tmp_reg__>
 138:	80 e0       	ldi	r24, 0x00	; 0
 13a:	90 e0       	ldi	r25, 0x00	; 0
 13c:	99 83       	std	Y+1, r25	; 0x01
 13e:	88 83       	st	Y, r24
 140:	80 e0       	ldi	r24, 0x00	; 0
 142:	90 e0       	ldi	r25, 0x00	; 0
 144:	9b 87       	std	Y+11, r25	; 0x0b
 146:	8a 87       	std	Y+10, r24	; 0x0a
 148:	df 91       	pop	r29
 14a:	cf 91       	pop	r28
 14c:	08 95       	ret

Disassembly of section .text._ZTv0_n6_N33ExternalEepromSeekableInputStream4seekEj:

00000258 <_ZTv0_n6_N33ExternalEepromSeekableInputStream4seekEj>:
 258:	dc 01       	movw	r26, r24
 25a:	ed 91       	ld	r30, X+
 25c:	fc 91       	ld	r31, X
 25e:	36 97       	sbiw	r30, 0x06	; 6
 260:	20 81       	ld	r18, Z
 262:	31 81       	ldd	r19, Z+1	; 0x01
 264:	82 0f       	add	r24, r18
 266:	93 1f       	adc	r25, r19
 268:	0c 94 00 00 	jmp	0	; 0x0 <__tmp_reg__>

ExternalEepromOutputStream.o:     file format elf32-avr

Sections:
Idx Name          Size      VMA       LMA       File off  Algn
  0 .group        00000008  00000000  00000000  00000034  2**2
                  CONTENTS, READONLY, EXCLUDE, GROUP, LINK_ONCE_DISCARD
  1 .group        00000008  00000000  00000000  0000003c  2**2
                  CONTENTS, READONLY, EXCLUDE, GROUP, LINK_ONCE_DISCARD
  2 .text         00000000  00000000  00000000  00000044  2**0
                  CONTENTS, ALLOC, LOAD, READONLY, CODE
  3 .data         00000000  00000000  00000000  00000044  2**0
                  CONTENTS, ALLOC, LOAD, DATA
  4 .bss          00000000  00000000  00000000  00000044  2**0
                  ALLOC
  5 .text._ZN26ExternalEepromOutputStream5writeEh 00000036  00000000  00000000  00000044  2**0
                  CONTENTS, ALLOC, LOAD, READONLY, CODE
  6 .text._ZN26ExternalEepromOutputStream5writeEPhii 00000040  00000000  00000000  0000007a  2**0
                  CONTENTS, ALLOC, LOAD, READONLY, CODE
  7 .text._ZN26ExternalEepromOutputStreamC2EP14ExternalEeprom 00000014  00000000  00000000  000000ba  2**0
                  CONTENTS, ALLOC, LOAD, RELOC, READONLY, CODE
  8 .rodata._ZTV9Closeable 00000006  00000000  00000000  000000ce  2**0
                  CONTENTS, ALLOC, LOAD, RELOC, READONLY, DATA
  9 .rodata._ZTV26ExternalEepromOutputStream 0000000e  00000000  00000000  000000d4  2**0
                  CONTENTS, ALLOC, LOAD, RELOC, READONLY, DATA
 10 .comment      00000012  00000000  00000000  000000e2  2**0
                  CONTENTS, READONLY

Disassembly of section .text._ZN26ExternalEepromOutputStream5writeEh:

00000000 <_ZN26ExternalEepromOutputStream5writeEh>:
   0:	cf 93       	push	r28
   2:	df 93       	push	r29
   4:	dc 01       	movw	r26, r24
   6:	46 2f       	mov	r20, r22
   8:	12 96       	adiw	r26, 0x02	; 2
   a:	8d 91       	ld	r24, X+
   c:	9c 91       	ld	r25, X
   e:	13 97       	sbiw	r26, 0x03	; 3
  10:	ec 01       	movw	r28, r24
  12:	e8 81       	ld	r30, Y
  14:	f9 81       	ldd	r31, Y+1	; 0x01
  16:	01 90       	ld	r0, Z+
  18:	f0 81       	ld	r31, Z
  1a:	e0 2d       	mov	r30, r0
  1c:	14 96       	adiw	r26, 0x04	; 4
  1e:	6d 91       	ld	r22, X+
  20:	7c 91       	ld	r23, X
  22:	15 97       	sbiw	r26, 0x05	; 5
  24:	eb 01       	movw	r28, r22
  26:	21 96       	adiw	r28, 0x01	; 1
  28:	15 96       	adiw	r26, 0x05	; 5
  2a:	dc 93       	st	X, r29
  2c:	ce 93       	st	-X, r28
  2e:	14 97       	sbiw	r26, 0x04	; 4
  30:	df 91       	pop	r29
  32:	cf 91       	pop	r28
  34:	09 94       	ijmp

Disassembly of section .text._ZN26ExternalEepromOutputStream5writeEPhii:

00000036 <_ZN26ExternalEepromOutputStream5writeEPhii>:
  36:	0f 93       	push	r16
  38:	1f 93       	push	r17
  3a:	cf 93       	push	r28
  3c:	df 93       	push	r29
  3e:	ec 01       	movw	r28, r24
  40:	89 01       	movw	r16, r18
  42:	8a 81       	ldd	r24, Y+2	; 0x02
  44:	9b 81       	ldd	r25, Y+3	; 0x03
  46:	dc 01       	movw	r26, r24
  48:	ed 91       	ld	r30, X+
  4a:	fc 91       	ld	r31, X
  4c:	64 0f       	add	r22, r20
  4e:	75 1f       	adc	r23, r21
  50:	ac 81       	ldd	r26, Y+4	; 0x04
  52:	bd 81       	ldd	r27, Y+5	; 0x05
  54:	02 80       	ldd	r0, Z+2	; 0x02
  56:	f3 81       	ldd	r31, Z+3	; 0x03
  58:	e0 2d       	mov	r30, r0
  5a:	ab 01       	movw	r20, r22
  5c:	bd 01       	movw	r22, r26
  5e:	09 95       	icall
  60:	8c 81       	ldd	r24, Y+4	; 0x04
  62:	9d 81       	ldd	r25, Y+5	; 0x05
  64:	80 0f       	add	r24, r16
  66:	91 1f       	adc	r25, r17
  68:	9d 83       	std	Y+5, r25	; 0x05
  6a:	8c 83       	std	Y+4, r24	; 0x04
  6c:	df 91       	pop	r29
  6e:	cf 91       	pop	r28
  70:	1f 91       	pop	r17
  72:	0f 91       	pop	r16
  74:	08 95       	ret

Disassembly of section .text._ZN26ExternalEepromOutputStreamC2EP14ExternalEeprom:

000000ac <_ZN26ExternalEepromOutputStreamC1EP14ExternalEeprom>:
  ac:	fc 01       	movw	r30, r24
  ae:	80 e0       	ldi	r24, 0x00	; 0
  b0:	90 e0       	ldi	r25, 0x00	; 0
  b2:	91 83       	std	Z+1, r25	; 0x01
  b4:	80 83       	st	Z, r24
  b6:	73 83       	std	Z+3, r23	; 0x03
  b8:	62 83       	std	Z+2, r22	; 0x02
  ba:	15 82       	std	Z+5, r1	; 0x05
  bc:	14 82       	std	Z+4, r1	; 0x04
  be:	08 95       	ret

ExternalEepromInputStream.o:     file format elf32-avr

Sections:
Idx Name          Size      VMA       LMA       File off  Algn
  0 .group        00000008  00000000  00000000  00000034  2**2
                  CONTENTS, READONLY, EXCLUDE, GROUP, LINK_ONCE_DISCARD
  1 .group        0000000c  00000000  00000000  0000003c  2**2
                  CONTENTS, READONLY, EXCLUDE, GROUP, LINK_ONCE_DISCARD
  2 .text         00000000  00000000  00000000  00000048  2**0
                  CONTENTS, ALLOC, LOAD, READONLY, CODE
  3 .data         00000000  00000000  00000000  00000048  2**0
                  CONTENTS, ALLOC, LOAD, DATA
  4 .bss          00000000  00000000  00000000  00000048  2**0
                  ALLOC
  5 .text._ZN25ExternalEepromInputStream9availableEv 0000001a  00000000  00000000  00000048  2**0
                  CONTENTS, ALLOC, LOAD, RELOC, READONLY, CODE
  6 .text._ZN25ExternalEepromInputStream4markEv 0000000c  00000000  00000000  00000062  2**0
                  CONTENTS, ALLOC, LOAD, READONLY, CODE
  7 .text._ZN25ExternalEepromInputStream13markSupportedEv 00000004  00000000  00000000  0000006e  2**0
                  CONTENTS, ALLOC, LOAD, READONLY, CODE
  8 .text._ZN25ExternalEepromInputStream4readEv 0000004e  00000000  00000000  00000072  2**0
                  CONTENTS, ALLOC, LOAD, RELOC, READONLY, CODE
  9 .text._ZN25ExternalEepromInputStream4readEPhii 0000004e  00000000  00000000  000000c0  2**0
                  CONTENTS, ALLOC, LOAD, RELOC, READONLY, CODE
 10 .text._ZN25ExternalEepromInputStream5resetEv 0000000c  00000000  00000000  0000010e  2**0
                  CONTENTS, ALLOC, LOAD, READONLY, CODE
 11 .text._ZN25ExternalEepromInputStreamC2EP14ExternalEeprom 00000044  00000000  00000000  0000011a  2**0
                  CONTENTS, ALLOC, LOAD, READONLY, CODE
 12 .text._ZN25ExternalEepromInputStreamC1EP14ExternalEeprom 00000026  00000000  00000000  0000015e  2**0
                  CONTENTS, ALLOC, LOAD, RELOC, READONLY, CODE
 13 .text._ZTv0_n8_N25ExternalEepromInputStream9availableEv 00000014  00000000  00000000  00000184  2**0
                  CONTENTS, ALLOC, LOAD, RELOC, READONLY, CODE
 14 .text._ZTv0_n10_N25ExternalEepromInputStream4markEv 00000014  00000000  00000000  00000198  2**0
                  CONTENTS, ALLOC, LOAD, RELOC, READONLY, CODE
 15 .text._ZTv0_n12_N25ExternalEepromInputStream13markSupportedEv 00000014  00000000  00000000  000001ac  2**0
                  CONTENTS, ALLOC, LOAD, RELOC, READONLY, CODE
 16 .text._ZTv0_n14_N25ExternalEepromInputStream4readEv 00000014  00000000  00000000  000001c0  2**0
                  CONTENTS, ALLOC, LOAD, RELOC, READONLY, CODE
 17 .text._ZTv0_n18_N25ExternalEepromInputStream4readEPhii 00000016  00000000  00000000  000001d4  2**0
                  CONTENTS, ALLOC, LOAD, RELOC, READONLY, CODE
 18 .text._ZTv0_n20_N25ExternalEepromInputStream5resetEv 00000014  00000000  00000000  000001ea  2**0
                  CONTENTS, ALLOC, LOAD, RELOC, READONLY, CODE
 19 .rodata._ZTV9Closeable 00000006  00000000  00000000  000001fe  2**0
                  CONTENTS, ALLOC, LOAD, RELOC, READONLY, DATA
 20 .rodata._ZTT25ExternalEepromInputStream 00000004  00000000  00000000  00000204  2**0
                  CONTENTS, ALLOC, LOAD, RELOC, READONLY, DATA
 21 .rodata._ZTV25ExternalEepromInputStream 0000002a  00000000  00000000  00000208  2**0
                  CONTENTS, ALLOC, LOAD, RELOC, READONLY, DATA
 22 .comment      00000012  00000000  00000000  00000232  2**0
                  CONTENTS, READONLY

Disassembly of section .text._ZN25ExternalEepromInputStream9availableEv:

00000000 <_ZN25ExternalEepromInputStream9availableEv>:
   0:	fc 01       	movw	r30, r24
   2:	81 e0       	ldi	r24, 0x01	; 1
   4:	90 e0       	ldi	r25, 0x00	; 0
   6:	40 85       	ldd	r20, Z+8	; 0x08
   8:	51 85       	ldd	r21, Z+9	; 0x09
   a:	24 81       	ldd	r18, Z+4	; 0x04
   c:	35 81       	ldd	r19, Z+5	; 0x05
   e:	24 17       	cp	r18, r20
  10:	35 07       	cpc	r19, r21
  12:	00 f0       	brcs	.+0      	; 0x14 <_ZN25ExternalEepromInputStream9availableEv+0x14>
  14:	80 e0       	ldi	r24, 0x00	; 0
  16:	90 e0       	ldi	r25, 0x00	; 0
  18:	08 95       	ret

Disassembly of section .text._ZN25ExternalEepromInputStream4markEv:

0000001a <_ZN25ExternalEepromInputStream4markEv>:
  1a:	fc 01       	movw	r30, r24
  1c:	24 81       	ldd	r18, Z+4	; 0x04
  1e:	35 81       	ldd	r19, Z+5	; 0x05
  20:	37 83       	std	Z+7, r19	; 0x07
  22:	26 83       	std	Z+6, r18	; 0x06
  24:	08 95       	ret

Disassembly of section .text._ZN25ExternalEepromInputStream13markSupportedEv:

00000040 <_ZN25ExternalEepromInputStream13markSupportedEv>:
  40:	81 e0       	ldi	r24, 0x01	; 1
  42:	08 95       	ret

Disassembly of section .text._ZN25ExternalEepromInputStream4readEv:

00000084 <_ZN25ExternalEepromInputStream4readEv>:
  84:	cf 93       	push	r28
  86:	df 93       	push	r29
  88:	dc 01       	movw	r26, r24
  8a:	14 96       	adiw	r26, 0x04	; 4
  8c:	6d 91       	ld	r22, X+
  8e:	7c 91       	ld	r23, X
  90:	15 97       	sbiw	r26, 0x05	; 5
  92:	18 96       	adiw	r26, 0x08	; 8
  94:	8d 91       	ld	r24, X+
  96:	9c 91       	ld	r25, X
  98:	19 97       	sbiw	r26, 0x09	; 9
  9a:	68 17       	cp	r22, r24
  9c:	79 07       	cpc	r23, r25
  9e:	00 f4       	brcc	.+0      	; 0xa0 <_ZN25ExternalEepromInputStream4readEv+0x1c>
  a0:	12 96       	adiw	r26, 0x02	; 2
  a2:	8d 91       	ld	r24, X+
  a4:	9c 91       	ld	r25, X
  a6:	13 97       	sbiw	r26, 0x03	; 3
  a8:	ec 01       	movw	r28, r24
  aa:	e8 81       	ld	r30, Y
  ac:	f9 81       	ldd	r31, Y+1	; 0x01
  ae:	04 80       	ldd	r0, Z+4	; 0x04
  b0:	f5 81       	ldd	r31, Z+5	; 0x05
  b2:	e0 2d       	mov	r30, r0
  b4:	9b 01       	movw	r18, r22
  b6:	2f 5f       	subi	r18, 0xFF	; 255
  b8:	3f 4f       	sbci	r19, 0xFF	; 255
  ba:	15 96       	adiw	r26, 0x05	; 5
  bc:	3c 93       	st	X, r19
  be:	2e 93       	st	-X, r18
  c0:	14 97       	sbiw	r26, 0x04	; 4
  c2:	df 91       	pop	r29
  c4:	cf 91       	pop	r28
  c6:	09 94       	ijmp
  c8:	8f ef       	ldi	r24, 0xFF	; 255
  ca:	9f ef       	ldi	r25, 0xFF	; 255
  cc:	df 91       	pop	r29
  ce:	cf 91       	pop	r28
  d0:	08 95       	ret

Disassembly of section .text._ZN25ExternalEepromInputStream4readEPhii:

00000156 <_ZN25ExternalEepromInputStream4readEPhii>:
 156:	0f 93       	push	r16
 158:	1f 93       	push	r17
 15a:	cf 93       	push	r28
 15c:	df 93       	push	r29
 15e:	ec 01       	movw	r28, r24
 160:	ac 81       	ldd	r26, Y+4	; 0x04
 162:	bd 81       	ldd	r27, Y+5	; 0x05
 164:	88 85       	ldd	r24, Y+8	; 0x08
 166:	99 85       	ldd	r25, Y+9	; 0x09
 168:	8a 1b       	sub	r24, r26
 16a:	9b 0b       	sbc	r25, r27
 16c:	82 17       	cp	r24, r18
 16e:	93 07       	cpc	r25, r19
 170:	00 f4       	brcc	.+0      	; 0x172 <_ZN25ExternalEepromInputStream4readEPhii+0x1c>
 172:	9c 01       	movw	r18, r24
 174:	8a 81       	ldd	r24, Y+2	; 0x02
 176:	9b 81       	ldd	r25, Y+3	; 0x03
 178:	fc 01       	movw	r30, r24
 17a:	00 81       	ld	r16, Z
 17c:	11 81       	ldd	r17, Z+1	; 0x01
 17e:	46 0f       	add	r20, r22
 180:	57 1f       	adc	r21, r23
 182:	f8 01       	movw	r30, r16
 184:	06 81       	ldd	r16, Z+6	; 0x06
 186:	17 81       	ldd	r17, Z+7	; 0x07
 188:	bd 01       	movw	r22, r26
 18a:	f8 01       	movw	r30, r16
 18c:	09 95       	icall
 18e:	2c 81       	ldd	r18, Y+4	; 0x04
 190:	3d 81       	ldd	r19, Y+5	; 0x05
 192:	28 0f       	add	r18, r24
 194:	39 1f       	adc	r19, r25
 196:	3d 83       	std	Y+5, r19	; 0x05
 198:	2c 83       	std	Y+4, r18	; 0x04
 19a:	df 91       	pop	r29
 19c:	cf 91       	pop	r28
 19e:	1f 91       	pop	r17
 1a0:	0f 91       	pop	r16
 1a2:	08 95       	ret

Disassembly of section .text._ZN25ExternalEepromInputStream5resetEv:

000002fa <_ZN25ExternalEepromInputStream5resetEv>:
 2fa:	fc 01       	movw	r30, r24
 2fc:	26 81       	ldd	r18, Z+6	; 0x06
 2fe:	37 81       	ldd	r19, Z+7	; 0x07
 300:	35 83       	std	Z+5, r19	; 0x05
 302:	24 83       	std	Z+4, r18	; 0x04
 304:	08 95       	ret

Disassembly of section .text._ZN25ExternalEepromInputStreamC2EP14ExternalEeprom:

00000600 <_ZN25ExternalEepromInputStreamC2EP14ExternalEeprom>:
 600:	fc 01       	movw	r30, r24
 602:	db 01       	movw	r26, r22
 604:	8d 91       	ld	r24, X+
 606:	9c 91       	ld	r25, X
 608:	11 97       	sbiw	r26, 0x01	; 1
 60a:	91 83       	std	Z+1, r25	; 0x01
 60c:	80 83       	st	Z, r24
 60e:	12 96       	adiw	r26, 0x02	; 2
 610:	2d 91       	ld	r18, X+
 612:	3c 91       	ld	r19, X
 614:	13 97       	sbiw	r26, 0x03	; 3
 616:	dc 01       	movw	r26, r24
 618:	58 97       	sbiw	r26, 0x18	; 24
 61a:	0d 90       	ld	r0, X+
 61c:	bc 91       	ld	r27, X
 61e:	a0 2d       	mov	r26, r0
 620:	ae 0f       	add	r26, r30
 622:	bf 1f       	adc	r27, r31
 624:	2d 93       	st	X+, r18
 626:	3c 93       	st	X, r19
 628:	53 83       	std	Z+3, r21	; 0x03
 62a:	42 83       	std	Z+2, r20	; 0x02
 62c:	17 82       	std	Z+7, r1	; 0x07
 62e:	16 82       	std	Z+6, r1	; 0x06
 630:	15 82       	std	Z+5, r1	; 0x05
 632:	14 82       	std	Z+4, r1	; 0x04
 634:	da 01       	movw	r26, r20
 636:	12 96       	adiw	r26, 0x02	; 2
 638:	8d 91       	ld	r24, X+
 63a:	9c 91       	ld	r25, X
 63c:	13 97       	sbiw	r26, 0x03	; 3
 63e:	91 87       	std	Z+9, r25	; 0x09
 640:	80 87       	std	Z+8, r24	; 0x08
 642:	08 95       	ret

Disassembly of section .text._ZN25ExternalEepromInputStreamC1EP14ExternalEeprom:

00000c44 <_ZN25ExternalEepromInputStreamC1EP14ExternalEeprom>:
 c44:	fc 01       	movw	r30, r24
 c46:	80 e0       	ldi	r24, 0x00	; 0
 c48:	90 e0       	ldi	r25, 0x00	; 0
 c4a:	91 83       	std	Z+1, r25	; 0x01
 c4c:	80 83       	st	Z, r24
 c4e:	73 83       	std	Z+3, r23	; 0x03
 c50:	62 83       	std	Z+2, r22	; 0x02
 c52:	17 82       	std	Z+7, r1	; 0x07
 c54:	16 82       	std	Z+6, r1	; 0x06
 c56:	15 82       	std	Z+5, r1	; 0x05
 c58:	14 82       	std	Z+4, r1	; 0x04
 c5a:	db 01       	movw	r26, r22
 c5c:	12 96       	adiw	r26, 0x02	; 2
 c5e:	8d 91       	ld	r24, X+
 c60:	9c 91       	ld	r25, X
 c62:	13 97       	sbiw	r26, 0x03	; 3
 c64:	91 87       	std	Z+9, r25	; 0x09
 c66:	80 87       	std	Z+8, r24	; 0x08
 c68:	08 95       	ret

Disassembly of section .text._ZTv0_n8_N25ExternalEepromInputStream9availableEv:

000018ae <_ZTv0_n8_N25ExternalEepromInputStream9availableEv>:
    18ae:	dc 01       	movw	r26, r24
    18b0:	ed 91       	ld	r30, X+
    18b2:	fc 91       	ld	r31, X
    18b4:	38 97       	sbiw	r30, 0x08	; 8
    18b6:	20 81       	ld	r18, Z
    18b8:	31 81       	ldd	r19, Z+1	; 0x01
    18ba:	82 0f       	add	r24, r18
    18bc:	93 1f       	adc	r25, r19
    18be:	0c 94 00 00 	jmp	0	; 0x0 <__tmp_reg__>

Disassembly of section .text._ZTv0_n10_N25ExternalEepromInputStream4markEv:

00003170 <_ZTv0_n10_N25ExternalEepromInputStream4markEv>:
    3170:	dc 01       	movw	r26, r24
    3172:	ed 91       	ld	r30, X+
    3174:	fc 91       	ld	r31, X
    3176:	3a 97       	sbiw	r30, 0x0a	; 10
    3178:	20 81       	ld	r18, Z
    317a:	31 81       	ldd	r19, Z+1	; 0x01
    317c:	82 0f       	add	r24, r18
    317e:	93 1f       	adc	r25, r19
    3180:	0c 94 00 00 	jmp	0	; 0x0 <__tmp_reg__>

Disassembly of section .text._ZTv0_n12_N25ExternalEepromInputStream13markSupportedEv:

000062f4 <_ZTv0_n12_N25ExternalEepromInputStream13markSupportedEv>:
    62f4:	dc 01       	movw	r26, r24
    62f6:	ed 91       	ld	r30, X+
    62f8:	fc 91       	ld	r31, X
    62fa:	3c 97       	sbiw	r30, 0x0c	; 12
    62fc:	20 81       	ld	r18, Z
    62fe:	31 81       	ldd	r19, Z+1	; 0x01
    6300:	82 0f       	add	r24, r18
    6302:	93 1f       	adc	r25, r19
    6304:	0c 94 00 00 	jmp	0	; 0x0 <__tmp_reg__>

Disassembly of section .text._ZTv0_n14_N25ExternalEepromInputStream4readEv:

0000c5fc <_ZTv0_n14_N25ExternalEepromInputStream4readEv>:
    c5fc:	dc 01       	movw	r26, r24
    c5fe:	ed 91       	ld	r30, X+
    c600:	fc 91       	ld	r31, X
    c602:	3e 97       	sbiw	r30, 0x0e	; 14
    c604:	20 81       	ld	r18, Z
    c606:	31 81       	ldd	r19, Z+1	; 0x01
    c608:	82 0f       	add	r24, r18
    c60a:	93 1f       	adc	r25, r19
    c60c:	0c 94 00 00 	jmp	0	; 0x0 <__tmp_reg__>

Disassembly of section .text._ZTv0_n18_N25ExternalEepromInputStream4readEPhii:

00018c0c <_ZTv0_n18_N25ExternalEepromInputStream4readEPhii>:
   18c0c:	dc 01       	movw	r26, r24
   18c0e:	ed 91       	ld	r30, X+
   18c10:	fc 91       	ld	r31, X
   18c12:	72 97       	sbiw	r30, 0x12	; 18
   18c14:	01 90       	ld	r0, Z+
   18c16:	f0 81       	ld	r31, Z
   18c18:	e0 2d       	mov	r30, r0
   18c1a:	8e 0f       	add	r24, r30
   18c1c:	9f 1f       	adc	r25, r31
   18c1e:	0c 94 00 00 	jmp	0	; 0x0 <__tmp_reg__>

Disassembly of section .text._ZTv0_n20_N25ExternalEepromInputStream5resetEv:

0003182e <_ZTv0_n20_N25ExternalEepromInputStream5resetEv>:
   3182e:	dc 01       	movw	r26, r24
   31830:	ed 91       	ld	r30, X+
   31832:	fc 91       	ld	r31, X
   31834:	74 97       	sbiw	r30, 0x14	; 20
   31836:	20 81       	ld	r18, Z
   31838:	31 81       	ldd	r19, Z+1	; 0x01
   3183a:	82 0f       	add	r24, r18
   3183c:	93 1f       	adc	r25, r19
   3183e:	0c 94 00 00 	jmp	0	; 0x0 <__tmp_reg__>

DataOutputStream.o:     file format elf32-avr

Sections:
Idx Name          Size      VMA       LMA       File off  Algn
  0 .group        00000008  00000000  00000000  00000034  2**2
                  CONTENTS, READONLY, EXCLUDE, GROUP, LINK_ONCE_DISCARD
  1 .group        00000008  00000000  00000000  0000003c  2**2
                  CONTENTS, READONLY, EXCLUDE, GROUP, LINK_ONCE_DISCARD
  2 .text         00000000  00000000  00000000  00000044  2**0
                  CONTENTS, ALLOC, LOAD, READONLY, CODE
  3 .data         00000000  00000000  00000000  00000044  2**0
                  CONTENTS, ALLOC, LOAD, DATA
  4 .bss          00000000  00000000  00000000  00000044  2**0
                  ALLOC
  5 .text._ZN16DataOutputStream5writeEPhi 0000000e  00000000  00000000  00000044  2**0
                  CONTENTS, ALLOC, LOAD, READONLY, CODE
  6 .text._ZN16DataOutputStream5writeEh 0000000e  00000000  00000000  00000052  2**0
                  CONTENTS, ALLOC, LOAD, READONLY, CODE
  7 .text._ZN16DataOutputStream9writeByteEh 00000018  00000000  00000000  00000060  2**0
                  CONTENTS, ALLOC, LOAD, READONLY, CODE
  8 .text._ZN16DataOutputStream10writeBytesEPhi 00000052  00000000  00000000  00000078  2**0
                  CONTENTS, ALLOC, LOAD, RELOC, READONLY, CODE
  9 .text._ZN16DataOutputStream12writeBooleanEb 00000018  00000000  00000000  000000ca  2**0
                  CONTENTS, ALLOC, LOAD, READONLY, CODE
 10 .text._ZN16DataOutputStream9writeCharEc 00000018  00000000  00000000  000000e2  2**0
                  CONTENTS, ALLOC, LOAD, READONLY, CODE
 11 .text._ZN16DataOutputStream17writeUnsignedCharEh 00000018  00000000  00000000  000000fa  2**0
                  CONTENTS, ALLOC, LOAD, READONLY, CODE
 12 .text._ZN16DataOutputStream8writeIntEi 00000038  00000000  00000000  00000112  2**0
                  CONTENTS, ALLOC, LOAD, READONLY, CODE
 13 .text._ZN16DataOutputStream16writeUnsignedIntEj 0000000e  00000000  00000000  0000014a  2**0
                  CONTENTS, ALLOC, LOAD, READONLY, CODE
 14 .text._ZN16DataOutputStream9writeWordEj 0000000e  00000000  00000000  00000158  2**0
                  CONTENTS, ALLOC, LOAD, READONLY, CODE
 15 .text._ZN16DataOutputStream9writeLongEl 0000008c  00000000  00000000  00000166  2**0
                  CONTENTS, ALLOC, LOAD, READONLY, CODE
 16 .text._ZN16DataOutputStream17writeUnsignedLongEm 0000000e  00000000  00000000  000001f2  2**0
                  CONTENTS, ALLOC, LOAD, READONLY, CODE
 17 .text._ZN16DataOutputStream10writeFloatEf 00000030  00000000  00000000  00000200  2**0
                  CONTENTS, ALLOC, LOAD, RELOC, READONLY, CODE
 18 .text._ZN16DataOutputStream11writeDoubleEd 00000030  00000000  00000000  00000230  2**0
                  CONTENTS, ALLOC, LOAD, RELOC, READONLY, CODE
 19 .text._ZN16DataOutputStreamC2EP12OutputStream 00000010  00000000  00000000  00000260  2**0
                  CONTENTS, ALLOC, LOAD, RELOC, READONLY, CODE
 20 .rodata._ZTV10DataOutput 00000020  00000000  00000000  00000270  2**0
                  CONTENTS, ALLOC, LOAD, RELOC, READONLY, DATA
 21 .rodata._ZTV16DataOutputStream 00000020  00000000  00000000  00000290  2**0
                  CONTENTS, ALLOC, LOAD, RELOC, READONLY, DATA
 22 .comment      00000012  00000000  00000000  000002b0  2**0
                  CONTENTS, READONLY

Disassembly of section .text._ZN16DataOutputStream5writeEPhi:

00000000 <_ZN16DataOutputStream5writeEPhi>:
   0:	dc 01       	movw	r26, r24
   2:	ed 91       	ld	r30, X+
   4:	fc 91       	ld	r31, X
   6:	06 80       	ldd	r0, Z+6	; 0x06
   8:	f7 81       	ldd	r31, Z+7	; 0x07
   a:	e0 2d       	mov	r30, r0
   c:	09 94       	ijmp

Disassembly of section .text._ZN16DataOutputStream5writeEh:

0000000e <_ZN16DataOutputStream5writeEh>:
   e:	dc 01       	movw	r26, r24
  10:	ed 91       	ld	r30, X+
  12:	fc 91       	ld	r31, X
  14:	04 80       	ldd	r0, Z+4	; 0x04
  16:	f5 81       	ldd	r31, Z+5	; 0x05
  18:	e0 2d       	mov	r30, r0
  1a:	09 94       	ijmp

Disassembly of section .text._ZN16DataOutputStream9writeByteEh:

0000002a <_ZN16DataOutputStream9writeByteEh>:
  2a:	dc 01       	movw	r26, r24
  2c:	12 96       	adiw	r26, 0x02	; 2
  2e:	8d 91       	ld	r24, X+
  30:	9c 91       	ld	r25, X
  32:	13 97       	sbiw	r26, 0x03	; 3
  34:	dc 01       	movw	r26, r24
  36:	ed 91       	ld	r30, X+
  38:	fc 91       	ld	r31, X
  3a:	04 80       	ldd	r0, Z+4	; 0x04
  3c:	f5 81       	ldd	r31, Z+5	; 0x05
  3e:	e0 2d       	mov	r30, r0
  40:	09 94       	ijmp

Disassembly of section .text._ZN16DataOutputStream10writeBytesEPhi:

0000006c <_ZN16DataOutputStream10writeBytesEPhi>:
  6c:	cf 92       	push	r12
  6e:	df 92       	push	r13
  70:	ef 92       	push	r14
  72:	ff 92       	push	r15
  74:	0f 93       	push	r16
  76:	1f 93       	push	r17
  78:	cf 93       	push	r28
  7a:	df 93       	push	r29
  7c:	7c 01       	movw	r14, r24
  7e:	8b 01       	movw	r16, r22
  80:	6a 01       	movw	r12, r20
  82:	eb 01       	movw	r28, r22
  84:	ce 01       	movw	r24, r28
  86:	80 1b       	sub	r24, r16
  88:	91 0b       	sbc	r25, r17
  8a:	8c 15       	cp	r24, r12
  8c:	9d 05       	cpc	r25, r13
  8e:	04 f4       	brge	.+0      	; 0x90 <_ZN16DataOutputStream10writeBytesEPhi+0x24>
  90:	d7 01       	movw	r26, r14
  92:	12 96       	adiw	r26, 0x02	; 2
  94:	8d 91       	ld	r24, X+
  96:	9c 91       	ld	r25, X
  98:	13 97       	sbiw	r26, 0x03	; 3
  9a:	69 91       	ld	r22, Y+
  9c:	dc 01       	movw	r26, r24
  9e:	ed 91       	ld	r30, X+
  a0:	fc 91       	ld	r31, X
  a2:	04 80       	ldd	r0, Z+4	; 0x04
  a4:	f5 81       	ldd	r31, Z+5	; 0x05
  a6:	e0 2d       	mov	r30, r0
  a8:	09 95       	icall
  aa:	00 c0       	rjmp	.+0      	; 0xac <_ZN16DataOutputStream10writeBytesEPhi+0x40>
  ac:	df 91       	pop	r29
  ae:	cf 91       	pop	r28
  b0:	1f 91       	pop	r17
  b2:	0f 91       	pop	r16
  b4:	ff 90       	pop	r15
  b6:	ef 90       	pop	r14
  b8:	df 90       	pop	r13
  ba:	cf 90       	pop	r12
  bc:	08 95       	ret

Disassembly of section .text._ZN16DataOutputStream12writeBooleanEb:

0000012a <_ZN16DataOutputStream12writeBooleanEb>:
 12a:	dc 01       	movw	r26, r24
 12c:	12 96       	adiw	r26, 0x02	; 2
 12e:	8d 91       	ld	r24, X+
 130:	9c 91       	ld	r25, X
 132:	13 97       	sbiw	r26, 0x03	; 3
 134:	dc 01       	movw	r26, r24
 136:	ed 91       	ld	r30, X+
 138:	fc 91       	ld	r31, X
 13a:	04 80       	ldd	r0, Z+4	; 0x04
 13c:	f5 81       	ldd	r31, Z+5	; 0x05
 13e:	e0 2d       	mov	r30, r0
 140:	09 94       	ijmp

Disassembly of section .text._ZN16DataOutputStream9writeCharEc:

0000026c <_ZN16DataOutputStream9writeCharEc>:
 26c:	dc 01       	movw	r26, r24
 26e:	12 96       	adiw	r26, 0x02	; 2
 270:	8d 91       	ld	r24, X+
 272:	9c 91       	ld	r25, X
 274:	13 97       	sbiw	r26, 0x03	; 3
 276:	dc 01       	movw	r26, r24
 278:	ed 91       	ld	r30, X+
 27a:	fc 91       	ld	r31, X
 27c:	04 80       	ldd	r0, Z+4	; 0x04
 27e:	f5 81       	ldd	r31, Z+5	; 0x05
 280:	e0 2d       	mov	r30, r0
 282:	09 94       	ijmp

Disassembly of section .text._ZN16DataOutputStream17writeUnsignedCharEh:

000004f0 <_ZN16DataOutputStream17writeUnsignedCharEh>:
 4f0:	dc 01       	movw	r26, r24
 4f2:	12 96       	adiw	r26, 0x02	; 2
 4f4:	8d 91       	ld	r24, X+
 4f6:	9c 91       	ld	r25, X
 4f8:	13 97       	sbiw	r26, 0x03	; 3
 4fa:	dc 01       	movw	r26, r24
 4fc:	ed 91       	ld	r30, X+
 4fe:	fc 91       	ld	r31, X
 500:	04 80       	ldd	r0, Z+4	; 0x04
 502:	f5 81       	ldd	r31, Z+5	; 0x05
 504:	e0 2d       	mov	r30, r0
 506:	09 94       	ijmp

Disassembly of section .text._ZN16DataOutputStream8writeIntEi:

000009f8 <_ZN16DataOutputStream8writeIntEi>:
 9f8:	1f 93       	push	r17
 9fa:	cf 93       	push	r28
 9fc:	df 93       	push	r29
 9fe:	ec 01       	movw	r28, r24
 a00:	16 2f       	mov	r17, r22
 a02:	67 2f       	mov	r22, r23
 a04:	8a 81       	ldd	r24, Y+2	; 0x02
 a06:	9b 81       	ldd	r25, Y+3	; 0x03
 a08:	dc 01       	movw	r26, r24
 a0a:	ed 91       	ld	r30, X+
 a0c:	fc 91       	ld	r31, X
 a0e:	04 80       	ldd	r0, Z+4	; 0x04
 a10:	f5 81       	ldd	r31, Z+5	; 0x05
 a12:	e0 2d       	mov	r30, r0
 a14:	09 95       	icall
 a16:	8a 81       	ldd	r24, Y+2	; 0x02
 a18:	9b 81       	ldd	r25, Y+3	; 0x03
 a1a:	dc 01       	movw	r26, r24
 a1c:	ed 91       	ld	r30, X+
 a1e:	fc 91       	ld	r31, X
 a20:	04 80       	ldd	r0, Z+4	; 0x04
 a22:	f5 81       	ldd	r31, Z+5	; 0x05
 a24:	e0 2d       	mov	r30, r0
 a26:	61 2f       	mov	r22, r17
 a28:	df 91       	pop	r29
 a2a:	cf 91       	pop	r28
 a2c:	1f 91       	pop	r17
 a2e:	09 94       	ijmp

Disassembly of section .text._ZN16DataOutputStream16writeUnsignedIntEj:

00001428 <_ZN16DataOutputStream16writeUnsignedIntEj>:
    1428:	dc 01       	movw	r26, r24
    142a:	ed 91       	ld	r30, X+
    142c:	fc 91       	ld	r31, X
    142e:	06 84       	ldd	r0, Z+14	; 0x0e
    1430:	f7 85       	ldd	r31, Z+15	; 0x0f
    1432:	e0 2d       	mov	r30, r0
    1434:	09 94       	ijmp

Disassembly of section .text._ZN16DataOutputStream9writeWordEj:

0000285e <_ZN16DataOutputStream9writeWordEj>:
    285e:	dc 01       	movw	r26, r24
    2860:	ed 91       	ld	r30, X+
    2862:	fc 91       	ld	r31, X
    2864:	06 84       	ldd	r0, Z+14	; 0x0e
    2866:	f7 85       	ldd	r31, Z+15	; 0x0f
    2868:	e0 2d       	mov	r30, r0
    286a:	09 94       	ijmp

Disassembly of section .text._ZN16DataOutputStream9writeLongEl:

000050ca <_ZN16DataOutputStream9writeLongEl>:
    50ca:	cf 92       	push	r12
    50cc:	df 92       	push	r13
    50ce:	ef 92       	push	r14
    50d0:	ff 92       	push	r15
    50d2:	cf 93       	push	r28
    50d4:	df 93       	push	r29
    50d6:	ec 01       	movw	r28, r24
    50d8:	6a 01       	movw	r12, r20
    50da:	7b 01       	movw	r14, r22
    50dc:	aa 81       	ldd	r26, Y+2	; 0x02
    50de:	bb 81       	ldd	r27, Y+3	; 0x03
    50e0:	ed 91       	ld	r30, X+
    50e2:	fc 91       	ld	r31, X
    50e4:	11 97       	sbiw	r26, 0x01	; 1
    50e6:	67 2f       	mov	r22, r23
    50e8:	77 27       	eor	r23, r23
    50ea:	88 27       	eor	r24, r24
    50ec:	99 27       	eor	r25, r25
    50ee:	04 80       	ldd	r0, Z+4	; 0x04
    50f0:	f5 81       	ldd	r31, Z+5	; 0x05
    50f2:	e0 2d       	mov	r30, r0
    50f4:	cd 01       	movw	r24, r26
    50f6:	09 95       	icall
    50f8:	aa 81       	ldd	r26, Y+2	; 0x02
    50fa:	bb 81       	ldd	r27, Y+3	; 0x03
    50fc:	ed 91       	ld	r30, X+
    50fe:	fc 91       	ld	r31, X
    5100:	11 97       	sbiw	r26, 0x01	; 1
    5102:	b7 01       	movw	r22, r14
    5104:	99 27       	eor	r25, r25
    5106:	77 fd       	sbrc	r23, 7
    5108:	90 95       	com	r25
    510a:	89 2f       	mov	r24, r25
    510c:	04 80       	ldd	r0, Z+4	; 0x04
    510e:	f5 81       	ldd	r31, Z+5	; 0x05
    5110:	e0 2d       	mov	r30, r0
    5112:	cd 01       	movw	r24, r26
    5114:	09 95       	icall
    5116:	aa 81       	ldd	r26, Y+2	; 0x02
    5118:	bb 81       	ldd	r27, Y+3	; 0x03
    511a:	ed 91       	ld	r30, X+
    511c:	fc 91       	ld	r31, X
    511e:	11 97       	sbiw	r26, 0x01	; 1
    5120:	99 27       	eor	r25, r25
    5122:	f7 fc       	sbrc	r15, 7
    5124:	9a 95       	dec	r25
    5126:	8f 2d       	mov	r24, r15
    5128:	7e 2d       	mov	r23, r14
    512a:	6d 2d       	mov	r22, r13
    512c:	04 80       	ldd	r0, Z+4	; 0x04
    512e:	f5 81       	ldd	r31, Z+5	; 0x05
    5130:	e0 2d       	mov	r30, r0
    5132:	cd 01       	movw	r24, r26
    5134:	09 95       	icall
    5136:	8a 81       	ldd	r24, Y+2	; 0x02
    5138:	9b 81       	ldd	r25, Y+3	; 0x03
    513a:	dc 01       	movw	r26, r24
    513c:	ed 91       	ld	r30, X+
    513e:	fc 91       	ld	r31, X
    5140:	04 80       	ldd	r0, Z+4	; 0x04
    5142:	f5 81       	ldd	r31, Z+5	; 0x05
    5144:	e0 2d       	mov	r30, r0
    5146:	6c 2d       	mov	r22, r12
    5148:	df 91       	pop	r29
    514a:	cf 91       	pop	r28
    514c:	ff 90       	pop	r15
    514e:	ef 90       	pop	r14
    5150:	df 90       	pop	r13
    5152:	cf 90       	pop	r12
    5154:	09 94       	ijmp

Disassembly of section .text._ZN16DataOutputStream17writeUnsignedLongEm:

0000a220 <_ZN16DataOutputStream17writeUnsignedLongEm>:
    a220:	dc 01       	movw	r26, r24
    a222:	ed 91       	ld	r30, X+
    a224:	fc 91       	ld	r31, X
    a226:	04 88       	ldd	r0, Z+20	; 0x14
    a228:	f5 89       	ldd	r31, Z+21	; 0x15
    a22a:	e0 2d       	mov	r30, r0
    a22c:	09 94       	ijmp

Disassembly of section .text._ZN16DataOutputStream10writeFloatEf:

0001444e <_ZN16DataOutputStream10writeFloatEf>:
   1444e:	0f 93       	push	r16
   14450:	1f 93       	push	r17
   14452:	cf 93       	push	r28
   14454:	df 93       	push	r29
   14456:	ec 01       	movw	r28, r24
   14458:	08 81       	ld	r16, Y
   1445a:	19 81       	ldd	r17, Y+1	; 0x01
   1445c:	cb 01       	movw	r24, r22
   1445e:	ba 01       	movw	r22, r20
   14460:	0e 94 00 00 	call	0	; 0x0 <__tmp_reg__>
   14464:	ab 01       	movw	r20, r22
   14466:	bc 01       	movw	r22, r24
   14468:	d8 01       	movw	r26, r16
   1446a:	54 96       	adiw	r26, 0x14	; 20
   1446c:	ed 91       	ld	r30, X+
   1446e:	fc 91       	ld	r31, X
   14470:	55 97       	sbiw	r26, 0x15	; 21
   14472:	ce 01       	movw	r24, r28
   14474:	df 91       	pop	r29
   14476:	cf 91       	pop	r28
   14478:	1f 91       	pop	r17
   1447a:	0f 91       	pop	r16
   1447c:	09 94       	ijmp

Disassembly of section .text._ZN16DataOutputStream11writeDoubleEd:

000288cc <_ZN16DataOutputStream11writeDoubleEd>:
   288cc:	0f 93       	push	r16
   288ce:	1f 93       	push	r17
   288d0:	cf 93       	push	r28
   288d2:	df 93       	push	r29
   288d4:	ec 01       	movw	r28, r24
   288d6:	08 81       	ld	r16, Y
   288d8:	19 81       	ldd	r17, Y+1	; 0x01
   288da:	cb 01       	movw	r24, r22
   288dc:	ba 01       	movw	r22, r20
   288de:	0e 94 00 00 	call	0	; 0x0 <__tmp_reg__>
   288e2:	ab 01       	movw	r20, r22
   288e4:	bc 01       	movw	r22, r24
   288e6:	d8 01       	movw	r26, r16
   288e8:	54 96       	adiw	r26, 0x14	; 20
   288ea:	ed 91       	ld	r30, X+
   288ec:	fc 91       	ld	r31, X
   288ee:	55 97       	sbiw	r26, 0x15	; 21
   288f0:	ce 01       	movw	r24, r28
   288f2:	df 91       	pop	r29
   288f4:	cf 91       	pop	r28
   288f6:	1f 91       	pop	r17
   288f8:	0f 91       	pop	r16
   288fa:	09 94       	ijmp

Disassembly of section .text._ZN16DataOutputStreamC2EP12OutputStream:

000511c8 <_ZN16DataOutputStreamC1EP12OutputStream>:
   511c8:	20 e0       	ldi	r18, 0x00	; 0
   511ca:	30 e0       	ldi	r19, 0x00	; 0
   511cc:	fc 01       	movw	r30, r24
   511ce:	31 83       	std	Z+1, r19	; 0x01
   511d0:	20 83       	st	Z, r18
   511d2:	73 83       	std	Z+3, r23	; 0x03
   511d4:	62 83       	std	Z+2, r22	; 0x02
   511d6:	08 95       	ret

DataOutput.o:     file format elf32-avr

Sections:
Idx Name          Size      VMA       LMA       File off  Algn
  0 .text         00000000  00000000  00000000  00000034  2**0
                  CONTENTS, ALLOC, LOAD, READONLY, CODE
  1 .data         00000000  00000000  00000000  00000034  2**0
                  CONTENTS, ALLOC, LOAD, DATA
  2 .bss          00000000  00000000  00000000  00000034  2**0
                  ALLOC
  3 .comment      00000012  00000000  00000000  00000034  2**0
                  CONTENTS, READONLY

DataInputStream.o:     file format elf32-avr

Sections:
Idx Name          Size      VMA       LMA       File off  Algn
  0 .group        00000008  00000000  00000000  00000034  2**2
                  CONTENTS, READONLY, EXCLUDE, GROUP, LINK_ONCE_DISCARD
  1 .group        00000008  00000000  00000000  0000003c  2**2
                  CONTENTS, READONLY, EXCLUDE, GROUP, LINK_ONCE_DISCARD
  2 .text         00000000  00000000  00000000  00000044  2**0
                  CONTENTS, ALLOC, LOAD, READONLY, CODE
  3 .data         00000000  00000000  00000000  00000044  2**0
                  CONTENTS, ALLOC, LOAD, DATA
  4 .bss          00000000  00000000  00000000  00000044  2**0
                  ALLOC
  5 .text._ZN15DataInputStream8readByteEv 0000001a  00000000  00000000  00000044  2**0
                  CONTENTS, ALLOC, LOAD, READONLY, CODE
  6 .text._ZN15DataInputStream11readBooleanEv 00000024  00000000  00000000  0000005e  2**0
                  CONTENTS, ALLOC, LOAD, RELOC, READONLY, CODE
  7 .text._ZN15DataInputStream8readCharEv 0000001a  00000000  00000000  00000082  2**0
                  CONTENTS, ALLOC, LOAD, READONLY, CODE
  8 .text._ZN15DataInputStream16readUnsignedCharEv 0000001a  00000000  00000000  0000009c  2**0
                  CONTENTS, ALLOC, LOAD, READONLY, CODE
  9 .text._ZN15DataInputStream7readIntEv 0000004c  00000000  00000000  000000b6  2**0
                  CONTENTS, ALLOC, LOAD, READONLY, CODE
 10 .text._ZN15DataInputStream15readUnsignedIntEv 0000000e  00000000  00000000  00000102  2**0
                  CONTENTS, ALLOC, LOAD, READONLY, CODE
 11 .text._ZN15DataInputStream8readWordEv 0000000e  00000000  00000000  00000110  2**0
                  CONTENTS, ALLOC, LOAD, READONLY, CODE
 12 .text._ZN15DataInputStream8readLongEv 000000c2  00000000  00000000  0000011e  2**0
                  CONTENTS, ALLOC, LOAD, READONLY, CODE
 13 .text._ZN15DataInputStream16readUnsignedLongEv 0000000e  00000000  00000000  000001e0  2**0
                  CONTENTS, ALLOC, LOAD, READONLY, CODE
 14 .text._ZN15DataInputStream9readFloatEv 00000014  00000000  00000000  000001ee  2**0
                  CONTENTS, ALLOC, LOAD, RELOC, READONLY, CODE
 15 .text._ZN15DataInputStream10readDoubleEv 00000014  00000000  00000000  00000202  2**0
                  CONTENTS, ALLOC, LOAD, RELOC, READONLY, CODE
 16 .text._ZN15DataInputStream9readFullyEPhi 00000052  00000000  00000000  00000216  2**0
                  CONTENTS, ALLOC, LOAD, RELOC, READONLY, CODE
 17 .text._ZN15DataInputStream9skipBytesEj 00000018  00000000  00000000  00000268  2**0
                  CONTENTS, ALLOC, LOAD, READONLY, CODE
 18 .text._ZN15DataInputStreamC2EP11InputStream 00000010  00000000  00000000  00000280  2**0
                  CONTENTS, ALLOC, LOAD, RELOC, READONLY, CODE
 19 .rodata._ZTV9DataInput 0000001e  00000000  00000000  00000290  2**0
                  CONTENTS, ALLOC, LOAD, RELOC, READONLY, DATA
 20 .rodata._ZTV15DataInputStream 0000001e  00000000  00000000  000002ae  2**0
                  CONTENTS, ALLOC, LOAD, RELOC, READONLY, DATA
 21 .comment      00000012  00000000  00000000  000002cc  2**0
                  CONTENTS, READONLY

Disassembly of section .text._ZN15DataInputStream8readByteEv:

00000000 <_ZN15DataInputStream8readByteEv>:
   0:	dc 01       	movw	r26, r24
   2:	12 96       	adiw	r26, 0x02	; 2
   4:	8d 91       	ld	r24, X+
   6:	9c 91       	ld	r25, X
   8:	13 97       	sbiw	r26, 0x03	; 3
   a:	dc 01       	movw	r26, r24
   c:	ed 91       	ld	r30, X+
   e:	fc 91       	ld	r31, X
  10:	00 84       	ldd	r0, Z+8	; 0x08
  12:	f1 85       	ldd	r31, Z+9	; 0x09
  14:	e0 2d       	mov	r30, r0
  16:	09 95       	icall
  18:	08 95       	ret

Disassembly of section .text._ZN15DataInputStream11readBooleanEv:

0000001a <_ZN15DataInputStream11readBooleanEv>:
  1a:	dc 01       	movw	r26, r24
  1c:	12 96       	adiw	r26, 0x02	; 2
  1e:	8d 91       	ld	r24, X+
  20:	9c 91       	ld	r25, X
  22:	13 97       	sbiw	r26, 0x03	; 3
  24:	dc 01       	movw	r26, r24
  26:	ed 91       	ld	r30, X+
  28:	fc 91       	ld	r31, X
  2a:	00 84       	ldd	r0, Z+8	; 0x08
  2c:	f1 85       	ldd	r31, Z+9	; 0x09
  2e:	e0 2d       	mov	r30, r0
  30:	09 95       	icall
  32:	21 e0       	ldi	r18, 0x01	; 1
  34:	89 2b       	or	r24, r25
  36:	01 f4       	brne	.+0      	; 0x38 <_ZN15DataInputStream11readBooleanEv+0x1e>
  38:	20 e0       	ldi	r18, 0x00	; 0
  3a:	82 2f       	mov	r24, r18
  3c:	08 95       	ret

Disassembly of section .text._ZN15DataInputStream8readCharEv:

00000058 <_ZN15DataInputStream8readCharEv>:
  58:	dc 01       	movw	r26, r24
  5a:	12 96       	adiw	r26, 0x02	; 2
  5c:	8d 91       	ld	r24, X+
  5e:	9c 91       	ld	r25, X
  60:	13 97       	sbiw	r26, 0x03	; 3
  62:	dc 01       	movw	r26, r24
  64:	ed 91       	ld	r30, X+
  66:	fc 91       	ld	r31, X
  68:	00 84       	ldd	r0, Z+8	; 0x08
  6a:	f1 85       	ldd	r31, Z+9	; 0x09
  6c:	e0 2d       	mov	r30, r0
  6e:	09 95       	icall
  70:	08 95       	ret

Disassembly of section .text._ZN15DataInputStream16readUnsignedCharEv:

000000ca <_ZN15DataInputStream16readUnsignedCharEv>:
  ca:	dc 01       	movw	r26, r24
  cc:	12 96       	adiw	r26, 0x02	; 2
  ce:	8d 91       	ld	r24, X+
  d0:	9c 91       	ld	r25, X
  d2:	13 97       	sbiw	r26, 0x03	; 3
  d4:	dc 01       	movw	r26, r24
  d6:	ed 91       	ld	r30, X+
  d8:	fc 91       	ld	r31, X
  da:	00 84       	ldd	r0, Z+8	; 0x08
  dc:	f1 85       	ldd	r31, Z+9	; 0x09
  de:	e0 2d       	mov	r30, r0
  e0:	09 95       	icall
  e2:	08 95       	ret

Disassembly of section .text._ZN15DataInputStream7readIntEv:

000001ae <_ZN15DataInputStream7readIntEv>:
 1ae:	0f 93       	push	r16
 1b0:	1f 93       	push	r17
 1b2:	cf 93       	push	r28
 1b4:	df 93       	push	r29
 1b6:	8c 01       	movw	r16, r24
 1b8:	dc 01       	movw	r26, r24
 1ba:	12 96       	adiw	r26, 0x02	; 2
 1bc:	8d 91       	ld	r24, X+
 1be:	9c 91       	ld	r25, X
 1c0:	13 97       	sbiw	r26, 0x03	; 3
 1c2:	dc 01       	movw	r26, r24
 1c4:	ed 91       	ld	r30, X+
 1c6:	fc 91       	ld	r31, X
 1c8:	00 84       	ldd	r0, Z+8	; 0x08
 1ca:	f1 85       	ldd	r31, Z+9	; 0x09
 1cc:	e0 2d       	mov	r30, r0
 1ce:	09 95       	icall
 1d0:	d8 2f       	mov	r29, r24
 1d2:	b0 e0       	ldi	r27, 0x00	; 0
 1d4:	cb 2f       	mov	r28, r27
 1d6:	f8 01       	movw	r30, r16
 1d8:	82 81       	ldd	r24, Z+2	; 0x02
 1da:	93 81       	ldd	r25, Z+3	; 0x03
 1dc:	dc 01       	movw	r26, r24
 1de:	ed 91       	ld	r30, X+
 1e0:	fc 91       	ld	r31, X
 1e2:	00 84       	ldd	r0, Z+8	; 0x08
 1e4:	f1 85       	ldd	r31, Z+9	; 0x09
 1e6:	e0 2d       	mov	r30, r0
 1e8:	09 95       	icall
 1ea:	fe 01       	movw	r30, r28
 1ec:	e8 2b       	or	r30, r24
 1ee:	cf 01       	movw	r24, r30
 1f0:	df 91       	pop	r29
 1f2:	cf 91       	pop	r28
 1f4:	1f 91       	pop	r17
 1f6:	0f 91       	pop	r16
 1f8:	08 95       	ret

Disassembly of section .text._ZN15DataInputStream15readUnsignedIntEv:

000003a8 <_ZN15DataInputStream15readUnsignedIntEv>:
 3a8:	dc 01       	movw	r26, r24
 3aa:	ed 91       	ld	r30, X+
 3ac:	fc 91       	ld	r31, X
 3ae:	00 84       	ldd	r0, Z+8	; 0x08
 3b0:	f1 85       	ldd	r31, Z+9	; 0x09
 3b2:	e0 2d       	mov	r30, r0
 3b4:	09 94       	ijmp

Disassembly of section .text._ZN15DataInputStream8readWordEv:

0000075e <_ZN15DataInputStream8readWordEv>:
 75e:	dc 01       	movw	r26, r24
 760:	ed 91       	ld	r30, X+
 762:	fc 91       	ld	r31, X
 764:	00 84       	ldd	r0, Z+8	; 0x08
 766:	f1 85       	ldd	r31, Z+9	; 0x09
 768:	e0 2d       	mov	r30, r0
 76a:	09 94       	ijmp

Disassembly of section .text._ZN15DataInputStream8readLongEv:

00000eca <_ZN15DataInputStream8readLongEv>:
 eca:	cf 92       	push	r12
 ecc:	df 92       	push	r13
 ece:	ef 92       	push	r14
 ed0:	ff 92       	push	r15
 ed2:	cf 93       	push	r28
 ed4:	df 93       	push	r29
 ed6:	ec 01       	movw	r28, r24
 ed8:	8a 81       	ldd	r24, Y+2	; 0x02
 eda:	9b 81       	ldd	r25, Y+3	; 0x03
 edc:	dc 01       	movw	r26, r24
 ede:	ed 91       	ld	r30, X+
 ee0:	fc 91       	ld	r31, X
 ee2:	00 84       	ldd	r0, Z+8	; 0x08
 ee4:	f1 85       	ldd	r31, Z+9	; 0x09
 ee6:	e0 2d       	mov	r30, r0
 ee8:	09 95       	icall
 eea:	6c 01       	movw	r12, r24
 eec:	ee 24       	eor	r14, r14
 eee:	d7 fc       	sbrc	r13, 7
 ef0:	e0 94       	com	r14
 ef2:	fe 2c       	mov	r15, r14
 ef4:	fe 2c       	mov	r15, r14
 ef6:	ed 2c       	mov	r14, r13
 ef8:	dc 2c       	mov	r13, r12
 efa:	cc 24       	eor	r12, r12
 efc:	8a 81       	ldd	r24, Y+2	; 0x02
 efe:	9b 81       	ldd	r25, Y+3	; 0x03
 f00:	dc 01       	movw	r26, r24
 f02:	ed 91       	ld	r30, X+
 f04:	fc 91       	ld	r31, X
 f06:	00 84       	ldd	r0, Z+8	; 0x08
 f08:	f1 85       	ldd	r31, Z+9	; 0x09
 f0a:	e0 2d       	mov	r30, r0
 f0c:	09 95       	icall
 f0e:	99 27       	eor	r25, r25
 f10:	ac 01       	movw	r20, r24
 f12:	66 27       	eor	r22, r22
 f14:	57 fd       	sbrc	r21, 7
 f16:	60 95       	com	r22
 f18:	76 2f       	mov	r23, r22
 f1a:	4c 29       	or	r20, r12
 f1c:	5d 29       	or	r21, r13
 f1e:	6e 29       	or	r22, r14
 f20:	7f 29       	or	r23, r15
 f22:	cc 24       	eor	r12, r12
 f24:	d4 2e       	mov	r13, r20
 f26:	e5 2e       	mov	r14, r21
 f28:	f6 2e       	mov	r15, r22
 f2a:	8a 81       	ldd	r24, Y+2	; 0x02
 f2c:	9b 81       	ldd	r25, Y+3	; 0x03
 f2e:	dc 01       	movw	r26, r24
 f30:	ed 91       	ld	r30, X+
 f32:	fc 91       	ld	r31, X
 f34:	00 84       	ldd	r0, Z+8	; 0x08
 f36:	f1 85       	ldd	r31, Z+9	; 0x09
 f38:	e0 2d       	mov	r30, r0
 f3a:	09 95       	icall
 f3c:	99 27       	eor	r25, r25
 f3e:	ac 01       	movw	r20, r24
 f40:	66 27       	eor	r22, r22
 f42:	57 fd       	sbrc	r21, 7
 f44:	60 95       	com	r22
 f46:	76 2f       	mov	r23, r22
 f48:	4c 29       	or	r20, r12
 f4a:	5d 29       	or	r21, r13
 f4c:	6e 29       	or	r22, r14
 f4e:	7f 29       	or	r23, r15
 f50:	cc 24       	eor	r12, r12
 f52:	d4 2e       	mov	r13, r20
 f54:	e5 2e       	mov	r14, r21
 f56:	f6 2e       	mov	r15, r22
 f58:	8a 81       	ldd	r24, Y+2	; 0x02
 f5a:	9b 81       	ldd	r25, Y+3	; 0x03
 f5c:	dc 01       	movw	r26, r24
 f5e:	ed 91       	ld	r30, X+
 f60:	fc 91       	ld	r31, X
 f62:	00 84       	ldd	r0, Z+8	; 0x08
 f64:	f1 85       	ldd	r31, Z+9	; 0x09
 f66:	e0 2d       	mov	r30, r0
 f68:	09 95       	icall
 f6a:	99 27       	eor	r25, r25
 f6c:	bc 01       	movw	r22, r24
 f6e:	88 27       	eor	r24, r24
 f70:	77 fd       	sbrc	r23, 7
 f72:	80 95       	com	r24
 f74:	98 2f       	mov	r25, r24
 f76:	6c 29       	or	r22, r12
 f78:	7d 29       	or	r23, r13
 f7a:	8e 29       	or	r24, r14
 f7c:	9f 29       	or	r25, r15
 f7e:	df 91       	pop	r29
 f80:	cf 91       	pop	r28
 f82:	ff 90       	pop	r15
 f84:	ef 90       	pop	r14
 f86:	df 90       	pop	r13
 f88:	cf 90       	pop	r12
 f8a:	08 95       	ret

Disassembly of section .text._ZN15DataInputStream16readUnsignedLongEv:

00001e56 <_ZN15DataInputStream16readUnsignedLongEv>:
    1e56:	dc 01       	movw	r26, r24
    1e58:	ed 91       	ld	r30, X+
    1e5a:	fc 91       	ld	r31, X
    1e5c:	06 84       	ldd	r0, Z+14	; 0x0e
    1e5e:	f7 85       	ldd	r31, Z+15	; 0x0f
    1e60:	e0 2d       	mov	r30, r0
    1e62:	09 94       	ijmp

Disassembly of section .text._ZN15DataInputStream9readFloatEv:

00003cba <_ZN15DataInputStream9readFloatEv>:
    3cba:	dc 01       	movw	r26, r24
    3cbc:	ed 91       	ld	r30, X+
    3cbe:	fc 91       	ld	r31, X
    3cc0:	06 84       	ldd	r0, Z+14	; 0x0e
    3cc2:	f7 85       	ldd	r31, Z+15	; 0x0f
    3cc4:	e0 2d       	mov	r30, r0
    3cc6:	09 95       	icall
    3cc8:	0e 94 00 00 	call	0	; 0x0 <__tmp_reg__>
    3ccc:	08 95       	ret

Disassembly of section .text._ZN15DataInputStream10readDoubleEv:

00007988 <_ZN15DataInputStream10readDoubleEv>:
    7988:	dc 01       	movw	r26, r24
    798a:	ed 91       	ld	r30, X+
    798c:	fc 91       	ld	r31, X
    798e:	06 84       	ldd	r0, Z+14	; 0x0e
    7990:	f7 85       	ldd	r31, Z+15	; 0x0f
    7992:	e0 2d       	mov	r30, r0
    7994:	09 95       	icall
    7996:	0e 94 00 00 	call	0	; 0x0 <__tmp_reg__>
    799a:	08 95       	ret

Disassembly of section .text._ZN15DataInputStream9readFullyEPhi:

0000f324 <_ZN15DataInputStream9readFullyEPhi>:
    f324:	cf 92       	push	r12
    f326:	df 92       	push	r13
    f328:	ef 92       	push	r14
    f32a:	ff 92       	push	r15
    f32c:	0f 93       	push	r16
    f32e:	1f 93       	push	r17
    f330:	cf 93       	push	r28
    f332:	df 93       	push	r29
    f334:	7c 01       	movw	r14, r24
    f336:	8b 01       	movw	r16, r22
    f338:	6a 01       	movw	r12, r20
    f33a:	eb 01       	movw	r28, r22
    f33c:	ce 01       	movw	r24, r28
    f33e:	80 1b       	sub	r24, r16
    f340:	91 0b       	sbc	r25, r17
    f342:	8c 15       	cp	r24, r12
    f344:	9d 05       	cpc	r25, r13
    f346:	04 f4       	brge	.+0      	; 0xf348 <_ZN15DataInputStream9readFullyEPhi+0x24>
    f348:	d7 01       	movw	r26, r14
    f34a:	12 96       	adiw	r26, 0x02	; 2
    f34c:	8d 91       	ld	r24, X+
    f34e:	9c 91       	ld	r25, X
    f350:	13 97       	sbiw	r26, 0x03	; 3
    f352:	dc 01       	movw	r26, r24
    f354:	ed 91       	ld	r30, X+
    f356:	fc 91       	ld	r31, X
    f358:	00 84       	ldd	r0, Z+8	; 0x08
    f35a:	f1 85       	ldd	r31, Z+9	; 0x09
    f35c:	e0 2d       	mov	r30, r0
    f35e:	09 95       	icall
    f360:	89 93       	st	Y+, r24
    f362:	00 c0       	rjmp	.+0      	; 0xf364 <_ZN15DataInputStream9readFullyEPhi+0x40>
    f364:	df 91       	pop	r29
    f366:	cf 91       	pop	r28
    f368:	1f 91       	pop	r17
    f36a:	0f 91       	pop	r16
    f36c:	ff 90       	pop	r15
    f36e:	ef 90       	pop	r14
    f370:	df 90       	pop	r13
    f372:	cf 90       	pop	r12
    f374:	08 95       	ret

Disassembly of section .text._ZN15DataInputStream9skipBytesEj:

0001e69a <_ZN15DataInputStream9skipBytesEj>:
   1e69a:	dc 01       	movw	r26, r24
   1e69c:	12 96       	adiw	r26, 0x02	; 2
   1e69e:	8d 91       	ld	r24, X+
   1e6a0:	9c 91       	ld	r25, X
   1e6a2:	13 97       	sbiw	r26, 0x03	; 3
   1e6a4:	dc 01       	movw	r26, r24
   1e6a6:	ed 91       	ld	r30, X+
   1e6a8:	fc 91       	ld	r31, X
   1e6aa:	00 88       	ldd	r0, Z+16	; 0x10
   1e6ac:	f1 89       	ldd	r31, Z+17	; 0x11
   1e6ae:	e0 2d       	mov	r30, r0
   1e6b0:	09 94       	ijmp

Disassembly of section .text._ZN15DataInputStreamC2EP11InputStream:

0003cd4c <_ZN15DataInputStreamC1EP11InputStream>:
   3cd4c:	20 e0       	ldi	r18, 0x00	; 0
   3cd4e:	30 e0       	ldi	r19, 0x00	; 0
   3cd50:	fc 01       	movw	r30, r24
   3cd52:	31 83       	std	Z+1, r19	; 0x01
   3cd54:	20 83       	st	Z, r18
   3cd56:	73 83       	std	Z+3, r23	; 0x03
   3cd58:	62 83       	std	Z+2, r22	; 0x02
   3cd5a:	08 95       	ret

DataInput.o:     file format elf32-avr

Sections:
Idx Name          Size      VMA       LMA       File off  Algn
  0 .text         00000000  00000000  00000000  00000034  2**0
                  CONTENTS, ALLOC, LOAD, READONLY, CODE
  1 .data         00000000  00000000  00000000  00000034  2**0
                  CONTENTS, ALLOC, LOAD, DATA
  2 .bss          00000000  00000000  00000000  00000034  2**0
                  ALLOC
  3 .comment      00000012  00000000  00000000  00000034  2**0
                  CONTENTS, READONLY

Closeable.o:     file format elf32-avr

Sections:
Idx Name          Size      VMA       LMA       File off  Algn
  0 .text         00000000  00000000  00000000  00000034  2**0
                  CONTENTS, ALLOC, LOAD, READONLY, CODE
  1 .data         00000000  00000000  00000000  00000034  2**0
                  CONTENTS, ALLOC, LOAD, DATA
  2 .bss          00000000  00000000  00000000  00000034  2**0
                  ALLOC
  3 .comment      00000012  00000000  00000000  00000034  2**0
                  CONTENTS, READONLY

ByteArraySeekableInputStream.o:     file format elf32-avr

Sections:
Idx Name          Size      VMA       LMA       File off  Algn
  0 .group        00000008  00000000  00000000  00000034  2**2
                  CONTENTS, READONLY, EXCLUDE, GROUP, LINK_ONCE_DISCARD
  1 .group        00000008  00000000  00000000  0000003c  2**2
                  CONTENTS, READONLY, EXCLUDE, GROUP, LINK_ONCE_DISCARD
  2 .group        00000008  00000000  00000000  00000044  2**2
                  CONTENTS, READONLY, EXCLUDE, GROUP, LINK_ONCE_DISCARD
  3 .group        00000014  00000000  00000000  0000004c  2**2
                  CONTENTS, READONLY, EXCLUDE, GROUP, LINK_ONCE_DISCARD
  4 .text         00000000  00000000  00000000  00000060  2**0
                  CONTENTS, ALLOC, LOAD, READONLY, CODE
  5 .data         00000000  00000000  00000000  00000060  2**0
                  CONTENTS, ALLOC, LOAD, DATA
  6 .bss          00000000  00000000  00000000  00000060  2**0
                  ALLOC
  7 .text._ZN28ByteArraySeekableInputStream4seekEj 00000008  00000000  00000000  00000060  2**0
                  CONTENTS, ALLOC, LOAD, READONLY, CODE
  8 .text._ZN19SeekableInputStreamC2Ev 0000003e  00000000  00000000  00000068  2**0
                  CONTENTS, ALLOC, LOAD, READONLY, CODE
  9 .text._ZN28ByteArraySeekableInputStreamC2EPhj 000000aa  00000000  00000000  000000a6  2**0
                  CONTENTS, ALLOC, LOAD, RELOC, READONLY, CODE
 10 .text._ZN28ByteArraySeekableInputStreamC1EPhj 0000005a  00000000  00000000  00000150  2**0
                  CONTENTS, ALLOC, LOAD, RELOC, READONLY, CODE
 11 .text._ZTv0_n6_N28ByteArraySeekableInputStream4seekEj 00000014  00000000  00000000  000001aa  2**0
                  CONTENTS, ALLOC, LOAD, RELOC, READONLY, CODE
 12 .rodata._ZTV8Seekable 00000006  00000000  00000000  000001be  2**0
                  CONTENTS, ALLOC, LOAD, RELOC, READONLY, DATA
 13 .rodata._ZTV9Closeable 00000006  00000000  00000000  000001c4  2**0
                  CONTENTS, ALLOC, LOAD, RELOC, READONLY, DATA
 14 .rodata._ZTC28ByteArraySeekableInputStream2_20ByteArrayInputStream 0000002a  00000000  00000000  000001ca  2**0
                  CONTENTS, ALLOC, LOAD, RELOC, READONLY, DATA
 15 .rodata._ZTC28ByteArraySeekableInputStream0_19SeekableInputStream 00000034  00000000  00000000  000001f4  2**0
                  CONTENTS, ALLOC, LOAD, RELOC, READONLY, DATA
 16 .rodata._ZTT28ByteArraySeekableInputStream 00000012  00000000  00000000  00000228  2**0
                  CONTENTS, ALLOC, LOAD, RELOC, READONLY, DATA
 17 .rodata._ZTV28ByteArraySeekableInputStream 00000036  00000000  00000000  0000023a  2**0
                  CONTENTS, ALLOC, LOAD, RELOC, READONLY, DATA
 18 .comment      00000012  00000000  00000000  00000270  2**0
                  CONTENTS, READONLY

Disassembly of section .text._ZN28ByteArraySeekableInputStream4seekEj:

00000000 <_ZN28ByteArraySeekableInputStream4seekEj>:
   0:	fc 01       	movw	r30, r24
   2:	71 87       	std	Z+9, r23	; 0x09
   4:	60 87       	std	Z+8, r22	; 0x08
   6:	08 95       	ret

Disassembly of section .text._ZN19SeekableInputStreamC2Ev:

00000008 <_ZN19SeekableInputStreamC2Ev>:
   8:	fb 01       	movw	r30, r22
   a:	20 81       	ld	r18, Z
   c:	31 81       	ldd	r19, Z+1	; 0x01
   e:	dc 01       	movw	r26, r24
  10:	2d 93       	st	X+, r18
  12:	3c 93       	st	X, r19
  14:	42 81       	ldd	r20, Z+2	; 0x02
  16:	53 81       	ldd	r21, Z+3	; 0x03
  18:	d9 01       	movw	r26, r18
  1a:	18 97       	sbiw	r26, 0x08	; 8
  1c:	0d 90       	ld	r0, X+
  1e:	bc 91       	ld	r27, X
  20:	a0 2d       	mov	r26, r0
  22:	a8 0f       	add	r26, r24
  24:	b9 1f       	adc	r27, r25
  26:	4d 93       	st	X+, r20
  28:	5c 93       	st	X, r21
  2a:	24 81       	ldd	r18, Z+4	; 0x04
  2c:	35 81       	ldd	r19, Z+5	; 0x05
  2e:	dc 01       	movw	r26, r24
  30:	ed 91       	ld	r30, X+
  32:	fc 91       	ld	r31, X
  34:	3a 97       	sbiw	r30, 0x0a	; 10
  36:	01 90       	ld	r0, Z+
  38:	f0 81       	ld	r31, Z
  3a:	e0 2d       	mov	r30, r0
  3c:	e8 0f       	add	r30, r24
  3e:	f9 1f       	adc	r31, r25
  40:	31 83       	std	Z+1, r19	; 0x01
  42:	20 83       	st	Z, r18
  44:	08 95       	ret

Disassembly of section .text._ZN28ByteArraySeekableInputStreamC2EPhj:

0000004e <_ZN28ByteArraySeekableInputStreamC2EPhj>:
  4e:	ef 92       	push	r14
  50:	ff 92       	push	r15
  52:	0f 93       	push	r16
  54:	1f 93       	push	r17
  56:	cf 93       	push	r28
  58:	df 93       	push	r29
  5a:	00 d0       	rcall	.+0      	; 0x5c <_ZN28ByteArraySeekableInputStreamC2EPhj+0xe>
  5c:	00 d0       	rcall	.+0      	; 0x5e <_ZN28ByteArraySeekableInputStreamC2EPhj+0x10>
  5e:	cd b7       	in	r28, 0x3d	; 61
  60:	de b7       	in	r29, 0x3e	; 62
  62:	7c 01       	movw	r14, r24
  64:	8b 01       	movw	r16, r22
  66:	6e 5f       	subi	r22, 0xFE	; 254
  68:	7f 4f       	sbci	r23, 0xFF	; 255
  6a:	2b 83       	std	Y+3, r18	; 0x03
  6c:	3c 83       	std	Y+4, r19	; 0x04
  6e:	49 83       	std	Y+1, r20	; 0x01
  70:	5a 83       	std	Y+2, r21	; 0x02
  72:	0e 94 00 00 	call	0	; 0x0 <__tmp_reg__>
  76:	b8 01       	movw	r22, r16
  78:	68 5f       	subi	r22, 0xF8	; 248
  7a:	7f 4f       	sbci	r23, 0xFF	; 255
  7c:	2b 81       	ldd	r18, Y+3	; 0x03
  7e:	3c 81       	ldd	r19, Y+4	; 0x04
  80:	49 81       	ldd	r20, Y+1	; 0x01
  82:	5a 81       	ldd	r21, Y+2	; 0x02
  84:	c7 01       	movw	r24, r14
  86:	02 96       	adiw	r24, 0x02	; 2
  88:	0e 94 00 00 	call	0	; 0x0 <__tmp_reg__>
  8c:	d8 01       	movw	r26, r16
  8e:	8d 91       	ld	r24, X+
  90:	9c 91       	ld	r25, X
  92:	11 97       	sbiw	r26, 0x01	; 1
  94:	f7 01       	movw	r30, r14
  96:	91 83       	std	Z+1, r25	; 0x01
  98:	80 83       	st	Z, r24
  9a:	1c 96       	adiw	r26, 0x0c	; 12
  9c:	2d 91       	ld	r18, X+
  9e:	3c 91       	ld	r19, X
  a0:	1d 97       	sbiw	r26, 0x0d	; 13
  a2:	fc 01       	movw	r30, r24
  a4:	38 97       	sbiw	r30, 0x08	; 8
  a6:	01 90       	ld	r0, Z+
  a8:	f0 81       	ld	r31, Z
  aa:	e0 2d       	mov	r30, r0
  ac:	ee 0d       	add	r30, r14
  ae:	ff 1d       	adc	r31, r15
  b0:	31 83       	std	Z+1, r19	; 0x01
  b2:	20 83       	st	Z, r18
  b4:	1e 96       	adiw	r26, 0x0e	; 14
  b6:	8d 91       	ld	r24, X+
  b8:	9c 91       	ld	r25, X
  ba:	1f 97       	sbiw	r26, 0x0f	; 15
  bc:	d7 01       	movw	r26, r14
  be:	ed 91       	ld	r30, X+
  c0:	fc 91       	ld	r31, X
  c2:	11 97       	sbiw	r26, 0x01	; 1
  c4:	3a 97       	sbiw	r30, 0x0a	; 10
  c6:	01 90       	ld	r0, Z+
  c8:	f0 81       	ld	r31, Z
  ca:	e0 2d       	mov	r30, r0
  cc:	ee 0d       	add	r30, r14
  ce:	ff 1d       	adc	r31, r15
  d0:	91 83       	std	Z+1, r25	; 0x01
  d2:	80 83       	st	Z, r24
  d4:	f8 01       	movw	r30, r16
  d6:	80 89       	ldd	r24, Z+16	; 0x10
  d8:	91 89       	ldd	r25, Z+17	; 0x11
  da:	13 96       	adiw	r26, 0x03	; 3
  dc:	9c 93       	st	X, r25
  de:	8e 93       	st	-X, r24
  e0:	12 97       	sbiw	r26, 0x02	; 2
  e2:	0f 90       	pop	r0
  e4:	0f 90       	pop	r0
  e6:	0f 90       	pop	r0
  e8:	0f 90       	pop	r0
  ea:	df 91       	pop	r29
  ec:	cf 91       	pop	r28
  ee:	1f 91       	pop	r17
  f0:	0f 91       	pop	r16
  f2:	ff 90       	pop	r15
  f4:	ef 90       	pop	r14
  f6:	08 95       	ret

Disassembly of section .text._ZN28ByteArraySeekableInputStreamC1EPhj:

00000146 <_ZN28ByteArraySeekableInputStreamC1EPhj>:
 146:	ef 92       	push	r14
 148:	ff 92       	push	r15
 14a:	0f 93       	push	r16
 14c:	1f 93       	push	r17
 14e:	cf 93       	push	r28
 150:	df 93       	push	r29
 152:	ec 01       	movw	r28, r24
 154:	8b 01       	movw	r16, r22
 156:	7a 01       	movw	r14, r20
 158:	80 e0       	ldi	r24, 0x00	; 0
 15a:	90 e0       	ldi	r25, 0x00	; 0
 15c:	99 83       	std	Y+1, r25	; 0x01
 15e:	88 83       	st	Y, r24
 160:	80 e0       	ldi	r24, 0x00	; 0
 162:	90 e0       	ldi	r25, 0x00	; 0
 164:	9b 83       	std	Y+3, r25	; 0x03
 166:	8a 83       	std	Y+2, r24	; 0x02
 168:	60 e0       	ldi	r22, 0x00	; 0
 16a:	70 e0       	ldi	r23, 0x00	; 0
 16c:	ce 01       	movw	r24, r28
 16e:	0e 94 00 00 	call	0	; 0x0 <__tmp_reg__>
 172:	97 01       	movw	r18, r14
 174:	a8 01       	movw	r20, r16
 176:	60 e0       	ldi	r22, 0x00	; 0
 178:	70 e0       	ldi	r23, 0x00	; 0
 17a:	ce 01       	movw	r24, r28
 17c:	02 96       	adiw	r24, 0x02	; 2
 17e:	0e 94 00 00 	call	0	; 0x0 <__tmp_reg__>
 182:	80 e0       	ldi	r24, 0x00	; 0
 184:	90 e0       	ldi	r25, 0x00	; 0
 186:	99 83       	std	Y+1, r25	; 0x01
 188:	88 83       	st	Y, r24
 18a:	80 e0       	ldi	r24, 0x00	; 0
 18c:	90 e0       	ldi	r25, 0x00	; 0
 18e:	9b 83       	std	Y+3, r25	; 0x03
 190:	8a 83       	std	Y+2, r24	; 0x02
 192:	df 91       	pop	r29
 194:	cf 91       	pop	r28
 196:	1f 91       	pop	r17
 198:	0f 91       	pop	r16
 19a:	ff 90       	pop	r15
 19c:	ef 90       	pop	r14
 19e:	08 95       	ret

Disassembly of section .text._ZTv0_n6_N28ByteArraySeekableInputStream4seekEj:

000002e6 <_ZTv0_n6_N28ByteArraySeekableInputStream4seekEj>:
 2e6:	dc 01       	movw	r26, r24
 2e8:	ed 91       	ld	r30, X+
 2ea:	fc 91       	ld	r31, X
 2ec:	36 97       	sbiw	r30, 0x06	; 6
 2ee:	20 81       	ld	r18, Z
 2f0:	31 81       	ldd	r19, Z+1	; 0x01
 2f2:	82 0f       	add	r24, r18
 2f4:	93 1f       	adc	r25, r19
 2f6:	0c 94 00 00 	jmp	0	; 0x0 <__tmp_reg__>

ByteArrayOutputStream.o:     file format elf32-avr

Sections:
Idx Name          Size      VMA       LMA       File off  Algn
  0 .group        00000008  00000000  00000000  00000034  2**2
                  CONTENTS, READONLY, EXCLUDE, GROUP, LINK_ONCE_DISCARD
  1 .group        00000008  00000000  00000000  0000003c  2**2
                  CONTENTS, READONLY, EXCLUDE, GROUP, LINK_ONCE_DISCARD
  2 .text         00000000  00000000  00000000  00000044  2**0
                  CONTENTS, ALLOC, LOAD, READONLY, CODE
  3 .data         00000000  00000000  00000000  00000044  2**0
                  CONTENTS, ALLOC, LOAD, DATA
  4 .bss          00000000  00000000  00000000  00000044  2**0
                  ALLOC
  5 .text._ZN21ByteArrayOutputStream5writeEh 0000001c  00000000  00000000  00000044  2**0
                  CONTENTS, ALLOC, LOAD, READONLY, CODE
  6 .text._ZN21ByteArrayOutputStreamC2EPhj 00000018  00000000  00000000  00000060  2**0
                  CONTENTS, ALLOC, LOAD, RELOC, READONLY, CODE
  7 .text._ZN21ByteArrayOutputStream5resetEv 00000008  00000000  00000000  00000078  2**0
                  CONTENTS, ALLOC, LOAD, READONLY, CODE
  8 .text._ZN21ByteArrayOutputStream4sizeEv 00000008  00000000  00000000  00000080  2**0
                  CONTENTS, ALLOC, LOAD, READONLY, CODE
  9 .text._ZN21ByteArrayOutputStream11toByteArrayEv 00000008  00000000  00000000  00000088  2**0
                  CONTENTS, ALLOC, LOAD, READONLY, CODE
 10 .rodata._ZTV9Closeable 00000006  00000000  00000000  00000090  2**0
                  CONTENTS, ALLOC, LOAD, RELOC, READONLY, DATA
 11 .rodata._ZTV21ByteArrayOutputStream 0000000e  00000000  00000000  00000096  2**0
                  CONTENTS, ALLOC, LOAD, RELOC, READONLY, DATA
 12 .comment      00000012  00000000  00000000  000000a4  2**0
                  CONTENTS, READONLY

Disassembly of section .text._ZN21ByteArrayOutputStream5writeEh:

00000000 <_ZN21ByteArrayOutputStream5writeEh>:
   0:	fc 01       	movw	r30, r24
   2:	a2 81       	ldd	r26, Z+2	; 0x02
   4:	b3 81       	ldd	r27, Z+3	; 0x03
   6:	86 81       	ldd	r24, Z+6	; 0x06
   8:	97 81       	ldd	r25, Z+7	; 0x07
   a:	9c 01       	movw	r18, r24
   c:	2f 5f       	subi	r18, 0xFF	; 255
   e:	3f 4f       	sbci	r19, 0xFF	; 255
  10:	37 83       	std	Z+7, r19	; 0x07
  12:	26 83       	std	Z+6, r18	; 0x06
  14:	a8 0f       	add	r26, r24
  16:	b9 1f       	adc	r27, r25
  18:	6c 93       	st	X, r22
  1a:	08 95       	ret

Disassembly of section .text._ZN21ByteArrayOutputStreamC2EPhj:

0000001c <_ZN21ByteArrayOutputStreamC1EPhj>:
  1c:	fc 01       	movw	r30, r24
  1e:	80 e0       	ldi	r24, 0x00	; 0
  20:	90 e0       	ldi	r25, 0x00	; 0
  22:	91 83       	std	Z+1, r25	; 0x01
  24:	80 83       	st	Z, r24
  26:	73 83       	std	Z+3, r23	; 0x03
  28:	62 83       	std	Z+2, r22	; 0x02
  2a:	55 83       	std	Z+5, r21	; 0x05
  2c:	44 83       	std	Z+4, r20	; 0x04
  2e:	17 82       	std	Z+7, r1	; 0x07
  30:	16 82       	std	Z+6, r1	; 0x06
  32:	08 95       	ret

Disassembly of section .text._ZN21ByteArrayOutputStream5resetEv:

00000050 <_ZN21ByteArrayOutputStream5resetEv>:
  50:	fc 01       	movw	r30, r24
  52:	17 82       	std	Z+7, r1	; 0x07
  54:	16 82       	std	Z+6, r1	; 0x06
  56:	08 95       	ret

Disassembly of section .text._ZN21ByteArrayOutputStream4sizeEv:

000000a8 <_ZN21ByteArrayOutputStream4sizeEv>:
  a8:	fc 01       	movw	r30, r24
  aa:	84 81       	ldd	r24, Z+4	; 0x04
  ac:	95 81       	ldd	r25, Z+5	; 0x05
  ae:	08 95       	ret

Disassembly of section .text._ZN21ByteArrayOutputStream11toByteArrayEv:

00000158 <_ZN21ByteArrayOutputStream11toByteArrayEv>:
 158:	fc 01       	movw	r30, r24
 15a:	82 81       	ldd	r24, Z+2	; 0x02
 15c:	93 81       	ldd	r25, Z+3	; 0x03
 15e:	08 95       	ret

ByteArrayInputStream.o:     file format elf32-avr

Sections:
Idx Name          Size      VMA       LMA       File off  Algn
  0 .group        00000008  00000000  00000000  00000034  2**2
                  CONTENTS, READONLY, EXCLUDE, GROUP, LINK_ONCE_DISCARD
  1 .group        0000000c  00000000  00000000  0000003c  2**2
                  CONTENTS, READONLY, EXCLUDE, GROUP, LINK_ONCE_DISCARD
  2 .text         00000000  00000000  00000000  00000048  2**0
                  CONTENTS, ALLOC, LOAD, READONLY, CODE
  3 .data         00000000  00000000  00000000  00000048  2**0
                  CONTENTS, ALLOC, LOAD, DATA
  4 .bss          00000000  00000000  00000000  00000048  2**0
                  ALLOC
  5 .text._ZN20ByteArrayInputStream9availableEv 0000001a  00000000  00000000  00000048  2**0
                  CONTENTS, ALLOC, LOAD, RELOC, READONLY, CODE
  6 .text._ZN20ByteArrayInputStream4markEv 0000000c  00000000  00000000  00000062  2**0
                  CONTENTS, ALLOC, LOAD, READONLY, CODE
  7 .text._ZN20ByteArrayInputStream13markSupportedEv 00000004  00000000  00000000  0000006e  2**0
                  CONTENTS, ALLOC, LOAD, READONLY, CODE
  8 .text._ZN20ByteArrayInputStream4readEv 0000002e  00000000  00000000  00000072  2**0
                  CONTENTS, ALLOC, LOAD, RELOC, READONLY, CODE
  9 .text._ZN20ByteArrayInputStream5resetEv 0000000c  00000000  00000000  000000a0  2**0
                  CONTENTS, ALLOC, LOAD, READONLY, CODE
 10 .text._ZN20ByteArrayInputStreamC2EPhj 0000003a  00000000  00000000  000000ac  2**0
                  CONTENTS, ALLOC, LOAD, READONLY, CODE
 11 .text._ZN20ByteArrayInputStreamC1EPhj 0000001c  00000000  00000000  000000e6  2**0
                  CONTENTS, ALLOC, LOAD, RELOC, READONLY, CODE
 12 .text._ZTv0_n8_N20ByteArrayInputStream9availableEv 00000014  00000000  00000000  00000102  2**0
                  CONTENTS, ALLOC, LOAD, RELOC, READONLY, CODE
 13 .text._ZTv0_n10_N20ByteArrayInputStream4markEv 00000014  00000000  00000000  00000116  2**0
                  CONTENTS, ALLOC, LOAD, RELOC, READONLY, CODE
 14 .text._ZTv0_n12_N20ByteArrayInputStream13markSupportedEv 00000014  00000000  00000000  0000012a  2**0
                  CONTENTS, ALLOC, LOAD, RELOC, READONLY, CODE
 15 .text._ZTv0_n14_N20ByteArrayInputStream4readEv 00000014  00000000  00000000  0000013e  2**0
                  CONTENTS, ALLOC, LOAD, RELOC, READONLY, CODE
 16 .text._ZTv0_n20_N20ByteArrayInputStream5resetEv 00000014  00000000  00000000  00000152  2**0
                  CONTENTS, ALLOC, LOAD, RELOC, READONLY, CODE
 17 .rodata._ZTV9Closeable 00000006  00000000  00000000  00000166  2**0
                  CONTENTS, ALLOC, LOAD, RELOC, READONLY, DATA
 18 .rodata._ZTT20ByteArrayInputStream 00000004  00000000  00000000  0000016c  2**0
                  CONTENTS, ALLOC, LOAD, RELOC, READONLY, DATA
 19 .rodata._ZTV20ByteArrayInputStream 0000002a  00000000  00000000  00000170  2**0
                  CONTENTS, ALLOC, LOAD, RELOC, READONLY, DATA
 20 .comment      00000012  00000000  00000000  0000019a  2**0
                  CONTENTS, READONLY

Disassembly of section .text._ZN20ByteArrayInputStream9availableEv:

00000000 <_ZN20ByteArrayInputStream9availableEv>:
   0:	fc 01       	movw	r30, r24
   2:	81 e0       	ldi	r24, 0x01	; 1
   4:	90 e0       	ldi	r25, 0x00	; 0
   6:	44 81       	ldd	r20, Z+4	; 0x04
   8:	55 81       	ldd	r21, Z+5	; 0x05
   a:	26 81       	ldd	r18, Z+6	; 0x06
   c:	37 81       	ldd	r19, Z+7	; 0x07
   e:	42 17       	cp	r20, r18
  10:	53 07       	cpc	r21, r19
  12:	01 f4       	brne	.+0      	; 0x14 <_ZN20ByteArrayInputStream9availableEv+0x14>
  14:	80 e0       	ldi	r24, 0x00	; 0
  16:	90 e0       	ldi	r25, 0x00	; 0
  18:	08 95       	ret

Disassembly of section .text._ZN20ByteArrayInputStream4markEv:

0000001a <_ZN20ByteArrayInputStream4markEv>:
  1a:	fc 01       	movw	r30, r24
  1c:	26 81       	ldd	r18, Z+6	; 0x06
  1e:	37 81       	ldd	r19, Z+7	; 0x07
  20:	31 87       	std	Z+9, r19	; 0x09
  22:	20 87       	std	Z+8, r18	; 0x08
  24:	08 95       	ret

Disassembly of section .text._ZN20ByteArrayInputStream13markSupportedEv:

00000040 <_ZN20ByteArrayInputStream13markSupportedEv>:
  40:	81 e0       	ldi	r24, 0x01	; 1
  42:	08 95       	ret

Disassembly of section .text._ZN20ByteArrayInputStream4readEv:

00000084 <_ZN20ByteArrayInputStream4readEv>:
  84:	fc 01       	movw	r30, r24
  86:	86 81       	ldd	r24, Z+6	; 0x06
  88:	97 81       	ldd	r25, Z+7	; 0x07
  8a:	24 81       	ldd	r18, Z+4	; 0x04
  8c:	35 81       	ldd	r19, Z+5	; 0x05
  8e:	82 17       	cp	r24, r18
  90:	93 07       	cpc	r25, r19
  92:	00 f4       	brcc	.+0      	; 0x94 <_ZN20ByteArrayInputStream4readEv+0x10>
  94:	a2 81       	ldd	r26, Z+2	; 0x02
  96:	b3 81       	ldd	r27, Z+3	; 0x03
  98:	9c 01       	movw	r18, r24
  9a:	2f 5f       	subi	r18, 0xFF	; 255
  9c:	3f 4f       	sbci	r19, 0xFF	; 255
  9e:	37 83       	std	Z+7, r19	; 0x07
  a0:	26 83       	std	Z+6, r18	; 0x06
  a2:	a8 0f       	add	r26, r24
  a4:	b9 1f       	adc	r27, r25
  a6:	8c 91       	ld	r24, X
  a8:	90 e0       	ldi	r25, 0x00	; 0
  aa:	08 95       	ret
  ac:	8f ef       	ldi	r24, 0xFF	; 255
  ae:	9f ef       	ldi	r25, 0xFF	; 255
  b0:	08 95       	ret

Disassembly of section .text._ZN20ByteArrayInputStream5resetEv:

00000136 <_ZN20ByteArrayInputStream5resetEv>:
 136:	fc 01       	movw	r30, r24
 138:	20 85       	ldd	r18, Z+8	; 0x08
 13a:	31 85       	ldd	r19, Z+9	; 0x09
 13c:	37 83       	std	Z+7, r19	; 0x07
 13e:	26 83       	std	Z+6, r18	; 0x06
 140:	08 95       	ret

Disassembly of section .text._ZN20ByteArrayInputStreamC2EPhj:

00000278 <_ZN20ByteArrayInputStreamC2EPhj>:
 278:	fc 01       	movw	r30, r24
 27a:	db 01       	movw	r26, r22
 27c:	8d 91       	ld	r24, X+
 27e:	9c 91       	ld	r25, X
 280:	11 97       	sbiw	r26, 0x01	; 1
 282:	91 83       	std	Z+1, r25	; 0x01
 284:	80 83       	st	Z, r24
 286:	12 96       	adiw	r26, 0x02	; 2
 288:	6d 91       	ld	r22, X+
 28a:	7c 91       	ld	r23, X
 28c:	13 97       	sbiw	r26, 0x03	; 3
 28e:	dc 01       	movw	r26, r24
 290:	58 97       	sbiw	r26, 0x18	; 24
 292:	0d 90       	ld	r0, X+
 294:	bc 91       	ld	r27, X
 296:	a0 2d       	mov	r26, r0
 298:	ae 0f       	add	r26, r30
 29a:	bf 1f       	adc	r27, r31
 29c:	6d 93       	st	X+, r22
 29e:	7c 93       	st	X, r23
 2a0:	53 83       	std	Z+3, r21	; 0x03
 2a2:	42 83       	std	Z+2, r20	; 0x02
 2a4:	35 83       	std	Z+5, r19	; 0x05
 2a6:	24 83       	std	Z+4, r18	; 0x04
 2a8:	11 86       	std	Z+9, r1	; 0x09
 2aa:	10 86       	std	Z+8, r1	; 0x08
 2ac:	17 82       	std	Z+7, r1	; 0x07
 2ae:	16 82       	std	Z+6, r1	; 0x06
 2b0:	08 95       	ret

Disassembly of section .text._ZN20ByteArrayInputStreamC1EPhj:

0000052a <_ZN20ByteArrayInputStreamC1EPhj>:
 52a:	fc 01       	movw	r30, r24
 52c:	80 e0       	ldi	r24, 0x00	; 0
 52e:	90 e0       	ldi	r25, 0x00	; 0
 530:	91 83       	std	Z+1, r25	; 0x01
 532:	80 83       	st	Z, r24
 534:	73 83       	std	Z+3, r23	; 0x03
 536:	62 83       	std	Z+2, r22	; 0x02
 538:	55 83       	std	Z+5, r21	; 0x05
 53a:	44 83       	std	Z+4, r20	; 0x04
 53c:	11 86       	std	Z+9, r1	; 0x09
 53e:	10 86       	std	Z+8, r1	; 0x08
 540:	17 82       	std	Z+7, r1	; 0x07
 542:	16 82       	std	Z+6, r1	; 0x06
 544:	08 95       	ret

Disassembly of section .text._ZTv0_n8_N20ByteArrayInputStream9availableEv:

00000a70 <_ZTv0_n8_N20ByteArrayInputStream9availableEv>:
 a70:	dc 01       	movw	r26, r24
 a72:	ed 91       	ld	r30, X+
 a74:	fc 91       	ld	r31, X
 a76:	38 97       	sbiw	r30, 0x08	; 8
 a78:	20 81       	ld	r18, Z
 a7a:	31 81       	ldd	r19, Z+1	; 0x01
 a7c:	82 0f       	add	r24, r18
 a7e:	93 1f       	adc	r25, r19
 a80:	0c 94 00 00 	jmp	0	; 0x0 <__tmp_reg__>

Disassembly of section .text._ZTv0_n10_N20ByteArrayInputStream4markEv:

000014f4 <_ZTv0_n10_N20ByteArrayInputStream4markEv>:
    14f4:	dc 01       	movw	r26, r24
    14f6:	ed 91       	ld	r30, X+
    14f8:	fc 91       	ld	r31, X
    14fa:	3a 97       	sbiw	r30, 0x0a	; 10
    14fc:	20 81       	ld	r18, Z
    14fe:	31 81       	ldd	r19, Z+1	; 0x01
    1500:	82 0f       	add	r24, r18
    1502:	93 1f       	adc	r25, r19
    1504:	0c 94 00 00 	jmp	0	; 0x0 <__tmp_reg__>

Disassembly of section .text._ZTv0_n12_N20ByteArrayInputStream13markSupportedEv:

000029fc <_ZTv0_n12_N20ByteArrayInputStream13markSupportedEv>:
    29fc:	dc 01       	movw	r26, r24
    29fe:	ed 91       	ld	r30, X+
    2a00:	fc 91       	ld	r31, X
    2a02:	3c 97       	sbiw	r30, 0x0c	; 12
    2a04:	20 81       	ld	r18, Z
    2a06:	31 81       	ldd	r19, Z+1	; 0x01
    2a08:	82 0f       	add	r24, r18
    2a0a:	93 1f       	adc	r25, r19
    2a0c:	0c 94 00 00 	jmp	0	; 0x0 <__tmp_reg__>

Disassembly of section .text._ZTv0_n14_N20ByteArrayInputStream4readEv:

0000540c <_ZTv0_n14_N20ByteArrayInputStream4readEv>:
    540c:	dc 01       	movw	r26, r24
    540e:	ed 91       	ld	r30, X+
    5410:	fc 91       	ld	r31, X
    5412:	3e 97       	sbiw	r30, 0x0e	; 14
    5414:	20 81       	ld	r18, Z
    5416:	31 81       	ldd	r19, Z+1	; 0x01
    5418:	82 0f       	add	r24, r18
    541a:	93 1f       	adc	r25, r19
    541c:	0c 94 00 00 	jmp	0	; 0x0 <__tmp_reg__>

Disassembly of section .text._ZTv0_n20_N20ByteArrayInputStream5resetEv:

0000a82c <_ZTv0_n20_N20ByteArrayInputStream5resetEv>:
    a82c:	dc 01       	movw	r26, r24
    a82e:	ed 91       	ld	r30, X+
    a830:	fc 91       	ld	r31, X
    a832:	74 97       	sbiw	r30, 0x14	; 20
    a834:	20 81       	ld	r18, Z
    a836:	31 81       	ldd	r19, Z+1	; 0x01
    a838:	82 0f       	add	r24, r18
    a83a:	93 1f       	adc	r25, r19
    a83c:	0c 94 00 00 	jmp	0	; 0x0 <__tmp_reg__>

BufferedOutputStream.o:     file format elf32-avr

Sections:
Idx Name          Size      VMA       LMA       File off  Algn
  0 .group        00000008  00000000  00000000  00000034  2**2
                  CONTENTS, READONLY, EXCLUDE, GROUP, LINK_ONCE_DISCARD
  1 .text         00000000  00000000  00000000  0000003c  2**0
                  CONTENTS, ALLOC, LOAD, READONLY, CODE
  2 .data         00000000  00000000  00000000  0000003c  2**0
                  CONTENTS, ALLOC, LOAD, DATA
  3 .bss          00000000  00000000  00000000  0000003c  2**0
                  ALLOC
  4 .text._ZN20BufferedOutputStream5writeEPhi 00000014  00000000  00000000  0000003c  2**0
                  CONTENTS, ALLOC, LOAD, READONLY, CODE
  5 .text._ZN20BufferedOutputStream5closeEv 00000028  00000000  00000000  00000050  2**0
                  CONTENTS, ALLOC, LOAD, READONLY, CODE
  6 .text._ZN20BufferedOutputStreamC2EP12OutputStreamPhi 00000038  00000000  00000000  00000078  2**0
                  CONTENTS, ALLOC, LOAD, RELOC, READONLY, CODE
  7 .text._ZN20BufferedOutputStream11flushBufferEv 00000034  00000000  00000000  000000b0  2**0
                  CONTENTS, ALLOC, LOAD, RELOC, READONLY, CODE
  8 .text._ZN20BufferedOutputStream5writeEh 00000064  00000000  00000000  000000e4  2**0
                  CONTENTS, ALLOC, LOAD, RELOC, READONLY, CODE
  9 .text._ZN20BufferedOutputStream5writeEPhii 000000a6  00000000  00000000  00000148  2**0
                  CONTENTS, ALLOC, LOAD, RELOC, READONLY, CODE
 10 .text._ZN20BufferedOutputStream5flushEv 00000020  00000000  00000000  000001ee  2**0
                  CONTENTS, ALLOC, LOAD, RELOC, READONLY, CODE
 11 .rodata._ZTV20BufferedOutputStream 0000000e  00000000  00000000  0000020e  2**0
                  CONTENTS, ALLOC, LOAD, RELOC, READONLY, DATA
 12 .comment      00000012  00000000  00000000  0000021c  2**0
                  CONTENTS, READONLY

Disassembly of section .text._ZN20BufferedOutputStream5writeEPhi:

00000000 <_ZN20BufferedOutputStream5writeEPhi>:
   0:	9a 01       	movw	r18, r20
   2:	dc 01       	movw	r26, r24
   4:	ed 91       	ld	r30, X+
   6:	fc 91       	ld	r31, X
   8:	00 84       	ldd	r0, Z+8	; 0x08
   a:	f1 85       	ldd	r31, Z+9	; 0x09
   c:	e0 2d       	mov	r30, r0
   e:	40 e0       	ldi	r20, 0x00	; 0
  10:	50 e0       	ldi	r21, 0x00	; 0
  12:	09 94       	ijmp

Disassembly of section .text._ZN20BufferedOutputStream5closeEv:

00000014 <_ZN20BufferedOutputStream5closeEv>:
  14:	cf 93       	push	r28
  16:	df 93       	push	r29
  18:	ec 01       	movw	r28, r24
  1a:	e8 81       	ld	r30, Y
  1c:	f9 81       	ldd	r31, Y+1	; 0x01
  1e:	02 80       	ldd	r0, Z+2	; 0x02
  20:	f3 81       	ldd	r31, Z+3	; 0x03
  22:	e0 2d       	mov	r30, r0
  24:	09 95       	icall
  26:	8a 81       	ldd	r24, Y+2	; 0x02
  28:	9b 81       	ldd	r25, Y+3	; 0x03
  2a:	dc 01       	movw	r26, r24
  2c:	ed 91       	ld	r30, X+
  2e:	fc 91       	ld	r31, X
  30:	01 90       	ld	r0, Z+
  32:	f0 81       	ld	r31, Z
  34:	e0 2d       	mov	r30, r0
  36:	df 91       	pop	r29
  38:	cf 91       	pop	r28
  3a:	09 94       	ijmp

Disassembly of section .text._ZN20BufferedOutputStreamC2EP12OutputStreamPhi:

00000050 <_ZN20BufferedOutputStreamC1EP12OutputStreamPhi>:
  50:	ef 92       	push	r14
  52:	ff 92       	push	r15
  54:	0f 93       	push	r16
  56:	1f 93       	push	r17
  58:	cf 93       	push	r28
  5a:	df 93       	push	r29
  5c:	ec 01       	movw	r28, r24
  5e:	7a 01       	movw	r14, r20
  60:	89 01       	movw	r16, r18
  62:	0e 94 00 00 	call	0	; 0x0 <__tmp_reg__>
  66:	80 e0       	ldi	r24, 0x00	; 0
  68:	90 e0       	ldi	r25, 0x00	; 0
  6a:	99 83       	std	Y+1, r25	; 0x01
  6c:	88 83       	st	Y, r24
  6e:	fd 82       	std	Y+5, r15	; 0x05
  70:	ec 82       	std	Y+4, r14	; 0x04
  72:	1f 83       	std	Y+7, r17	; 0x07
  74:	0e 83       	std	Y+6, r16	; 0x06
  76:	19 86       	std	Y+9, r1	; 0x09
  78:	18 86       	std	Y+8, r1	; 0x08
  7a:	df 91       	pop	r29
  7c:	cf 91       	pop	r28
  7e:	1f 91       	pop	r17
  80:	0f 91       	pop	r16
  82:	ff 90       	pop	r15
  84:	ef 90       	pop	r14
  86:	08 95       	ret

Disassembly of section .text._ZN20BufferedOutputStream11flushBufferEv:

000000d8 <_ZN20BufferedOutputStream11flushBufferEv>:
  d8:	cf 93       	push	r28
  da:	df 93       	push	r29
  dc:	ec 01       	movw	r28, r24
  de:	28 85       	ldd	r18, Y+8	; 0x08
  e0:	39 85       	ldd	r19, Y+9	; 0x09
  e2:	12 16       	cp	r1, r18
  e4:	13 06       	cpc	r1, r19
  e6:	04 f4       	brge	.+0      	; 0xe8 <_ZN20BufferedOutputStream11flushBufferEv+0x10>
  e8:	8a 81       	ldd	r24, Y+2	; 0x02
  ea:	9b 81       	ldd	r25, Y+3	; 0x03
  ec:	dc 01       	movw	r26, r24
  ee:	ed 91       	ld	r30, X+
  f0:	fc 91       	ld	r31, X
  f2:	6c 81       	ldd	r22, Y+4	; 0x04
  f4:	7d 81       	ldd	r23, Y+5	; 0x05
  f6:	00 84       	ldd	r0, Z+8	; 0x08
  f8:	f1 85       	ldd	r31, Z+9	; 0x09
  fa:	e0 2d       	mov	r30, r0
  fc:	40 e0       	ldi	r20, 0x00	; 0
  fe:	50 e0       	ldi	r21, 0x00	; 0
 100:	09 95       	icall
 102:	19 86       	std	Y+9, r1	; 0x09
 104:	18 86       	std	Y+8, r1	; 0x08
 106:	df 91       	pop	r29
 108:	cf 91       	pop	r28
 10a:	08 95       	ret

Disassembly of section .text._ZN20BufferedOutputStream5writeEh:

000001e4 <_ZN20BufferedOutputStream5writeEh>:
 1e4:	0f 93       	push	r16
 1e6:	1f 93       	push	r17
 1e8:	cf 93       	push	r28
 1ea:	df 93       	push	r29
 1ec:	1f 92       	push	r1
 1ee:	cd b7       	in	r28, 0x3d	; 61
 1f0:	de b7       	in	r29, 0x3e	; 62
 1f2:	8c 01       	movw	r16, r24
 1f4:	dc 01       	movw	r26, r24
 1f6:	18 96       	adiw	r26, 0x08	; 8
 1f8:	2d 91       	ld	r18, X+
 1fa:	3c 91       	ld	r19, X
 1fc:	19 97       	sbiw	r26, 0x09	; 9
 1fe:	16 96       	adiw	r26, 0x06	; 6
 200:	8d 91       	ld	r24, X+
 202:	9c 91       	ld	r25, X
 204:	17 97       	sbiw	r26, 0x07	; 7
 206:	28 17       	cp	r18, r24
 208:	39 07       	cpc	r19, r25
 20a:	04 f0       	brlt	.+0      	; 0x20c <_ZN20BufferedOutputStream5writeEh+0x28>
 20c:	c8 01       	movw	r24, r16
 20e:	69 83       	std	Y+1, r22	; 0x01
 210:	0e 94 00 00 	call	0	; 0x0 <__tmp_reg__>
 214:	69 81       	ldd	r22, Y+1	; 0x01
 216:	d8 01       	movw	r26, r16
 218:	14 96       	adiw	r26, 0x04	; 4
 21a:	ed 91       	ld	r30, X+
 21c:	fc 91       	ld	r31, X
 21e:	15 97       	sbiw	r26, 0x05	; 5
 220:	18 96       	adiw	r26, 0x08	; 8
 222:	8d 91       	ld	r24, X+
 224:	9c 91       	ld	r25, X
 226:	19 97       	sbiw	r26, 0x09	; 9
 228:	9c 01       	movw	r18, r24
 22a:	2f 5f       	subi	r18, 0xFF	; 255
 22c:	3f 4f       	sbci	r19, 0xFF	; 255
 22e:	19 96       	adiw	r26, 0x09	; 9
 230:	3c 93       	st	X, r19
 232:	2e 93       	st	-X, r18
 234:	18 97       	sbiw	r26, 0x08	; 8
 236:	e8 0f       	add	r30, r24
 238:	f9 1f       	adc	r31, r25
 23a:	60 83       	st	Z, r22
 23c:	0f 90       	pop	r0
 23e:	df 91       	pop	r29
 240:	cf 91       	pop	r28
 242:	1f 91       	pop	r17
 244:	0f 91       	pop	r16
 246:	08 95       	ret

Disassembly of section .text._ZN20BufferedOutputStream5writeEPhii:

0000042c <_ZN20BufferedOutputStream5writeEPhii>:
 42c:	cf 92       	push	r12
 42e:	df 92       	push	r13
 430:	ef 92       	push	r14
 432:	ff 92       	push	r15
 434:	0f 93       	push	r16
 436:	1f 93       	push	r17
 438:	cf 93       	push	r28
 43a:	df 93       	push	r29
 43c:	ec 01       	movw	r28, r24
 43e:	6b 01       	movw	r12, r22
 440:	7a 01       	movw	r14, r20
 442:	89 01       	movw	r16, r18
 444:	8e 81       	ldd	r24, Y+6	; 0x06
 446:	9f 81       	ldd	r25, Y+7	; 0x07
 448:	28 17       	cp	r18, r24
 44a:	39 07       	cpc	r19, r25
 44c:	04 f0       	brlt	.+0      	; 0x44e <_ZN20BufferedOutputStream5writeEPhii+0x22>
 44e:	ce 01       	movw	r24, r28
 450:	0e 94 00 00 	call	0	; 0x0 <__tmp_reg__>
 454:	8a 81       	ldd	r24, Y+2	; 0x02
 456:	9b 81       	ldd	r25, Y+3	; 0x03
 458:	dc 01       	movw	r26, r24
 45a:	ed 91       	ld	r30, X+
 45c:	fc 91       	ld	r31, X
 45e:	00 84       	ldd	r0, Z+8	; 0x08
 460:	f1 85       	ldd	r31, Z+9	; 0x09
 462:	e0 2d       	mov	r30, r0
 464:	98 01       	movw	r18, r16
 466:	a7 01       	movw	r20, r14
 468:	b6 01       	movw	r22, r12
 46a:	df 91       	pop	r29
 46c:	cf 91       	pop	r28
 46e:	1f 91       	pop	r17
 470:	0f 91       	pop	r16
 472:	ff 90       	pop	r15
 474:	ef 90       	pop	r14
 476:	df 90       	pop	r13
 478:	cf 90       	pop	r12
 47a:	09 94       	ijmp
 47c:	28 85       	ldd	r18, Y+8	; 0x08
 47e:	39 85       	ldd	r19, Y+9	; 0x09
 480:	82 1b       	sub	r24, r18
 482:	93 0b       	sbc	r25, r19
 484:	80 17       	cp	r24, r16
 486:	91 07       	cpc	r25, r17
 488:	04 f4       	brge	.+0      	; 0x48a <_ZN20BufferedOutputStream5writeEPhii+0x5e>
 48a:	ce 01       	movw	r24, r28
 48c:	0e 94 00 00 	call	0	; 0x0 <__tmp_reg__>
 490:	d6 01       	movw	r26, r12
 492:	ae 0d       	add	r26, r14
 494:	bf 1d       	adc	r27, r15
 496:	80 e0       	ldi	r24, 0x00	; 0
 498:	90 e0       	ldi	r25, 0x00	; 0
 49a:	28 85       	ldd	r18, Y+8	; 0x08
 49c:	39 85       	ldd	r19, Y+9	; 0x09
 49e:	80 17       	cp	r24, r16
 4a0:	91 07       	cpc	r25, r17
 4a2:	04 f4       	brge	.+0      	; 0x4a4 <_ZN20BufferedOutputStream5writeEPhii+0x78>
 4a4:	4d 91       	ld	r20, X+
 4a6:	ec 81       	ldd	r30, Y+4	; 0x04
 4a8:	fd 81       	ldd	r31, Y+5	; 0x05
 4aa:	e2 0f       	add	r30, r18
 4ac:	f3 1f       	adc	r31, r19
 4ae:	e8 0f       	add	r30, r24
 4b0:	f9 1f       	adc	r31, r25
 4b2:	40 83       	st	Z, r20
 4b4:	01 96       	adiw	r24, 0x01	; 1
 4b6:	00 c0       	rjmp	.+0      	; 0x4b8 <_ZN20BufferedOutputStream5writeEPhii+0x8c>
 4b8:	02 0f       	add	r16, r18
 4ba:	13 1f       	adc	r17, r19
 4bc:	19 87       	std	Y+9, r17	; 0x09
 4be:	08 87       	std	Y+8, r16	; 0x08
 4c0:	df 91       	pop	r29
 4c2:	cf 91       	pop	r28
 4c4:	1f 91       	pop	r17
 4c6:	0f 91       	pop	r16
 4c8:	ff 90       	pop	r15
 4ca:	ef 90       	pop	r14
 4cc:	df 90       	pop	r13
 4ce:	cf 90       	pop	r12
 4d0:	08 95       	ret

Disassembly of section .text._ZN20BufferedOutputStream5flushEv:

000008fe <_ZN20BufferedOutputStream5flushEv>:
 8fe:	cf 93       	push	r28
 900:	df 93       	push	r29
 902:	ec 01       	movw	r28, r24
 904:	0e 94 00 00 	call	0	; 0x0 <__tmp_reg__>
 908:	8a 81       	ldd	r24, Y+2	; 0x02
 90a:	9b 81       	ldd	r25, Y+3	; 0x03
 90c:	dc 01       	movw	r26, r24
 90e:	ed 91       	ld	r30, X+
 910:	fc 91       	ld	r31, X
 912:	02 80       	ldd	r0, Z+2	; 0x02
 914:	f3 81       	ldd	r31, Z+3	; 0x03
 916:	e0 2d       	mov	r30, r0
 918:	df 91       	pop	r29
 91a:	cf 91       	pop	r28
 91c:	09 94       	ijmp

BufferedInputStream.o:     file format elf32-avr

Sections:
Idx Name          Size      VMA       LMA       File off  Algn
  0 .group        00000008  00000000  00000000  00000034  2**2
                  CONTENTS, READONLY, EXCLUDE, GROUP, LINK_ONCE_DISCARD
  1 .group        00000010  00000000  00000000  0000003c  2**2
                  CONTENTS, READONLY, EXCLUDE, GROUP, LINK_ONCE_DISCARD
  2 .text         00000000  00000000  00000000  0000004c  2**0
                  CONTENTS, ALLOC, LOAD, READONLY, CODE
  3 .data         00000000  00000000  00000000  0000004c  2**0
                  CONTENTS, ALLOC, LOAD, DATA
  4 .bss          00000000  00000000  00000000  0000004c  2**0
                  ALLOC
  5 .text._ZN19BufferedInputStream9availableEv 0000002e  00000000  00000000  0000004c  2**0
                  CONTENTS, ALLOC, LOAD, READONLY, CODE
  6 .text._ZN19BufferedInputStream5closeEv 00000018  00000000  00000000  0000007a  2**0
                  CONTENTS, ALLOC, LOAD, READONLY, CODE
  7 .text._ZN19BufferedInputStream5resetEv 00000012  00000000  00000000  00000092  2**0
                  CONTENTS, ALLOC, LOAD, RELOC, READONLY, CODE
  8 .text._ZN19BufferedInputStream4readEPhi 00000014  00000000  00000000  000000a4  2**0
                  CONTENTS, ALLOC, LOAD, READONLY, CODE
  9 .text._ZN19BufferedInputStream13markSupportedEv 00000004  00000000  00000000  000000b8  2**0
                  CONTENTS, ALLOC, LOAD, READONLY, CODE
 10 .text._ZN19BufferedInputStream4skipEj 0000004e  00000000  00000000  000000bc  2**0
                  CONTENTS, ALLOC, LOAD, RELOC, READONLY, CODE
 11 .text._ZN19BufferedInputStreamC2EP11InputStreamPhi 00000060  00000000  00000000  0000010a  2**0
                  CONTENTS, ALLOC, LOAD, RELOC, READONLY, CODE
 12 .text._ZN19BufferedInputStreamC1EP11InputStreamPhi 0000004c  00000000  00000000  0000016a  2**0
                  CONTENTS, ALLOC, LOAD, RELOC, READONLY, CODE
 13 .text._ZN19BufferedInputStream20realineBufferContentEv 0000004e  00000000  00000000  000001b6  2**0
                  CONTENTS, ALLOC, LOAD, RELOC, READONLY, CODE
 14 .text._ZN19BufferedInputStream4fillEi 0000004a  00000000  00000000  00000204  2**0
                  CONTENTS, ALLOC, LOAD, RELOC, READONLY, CODE
 15 .text._ZN19BufferedInputStream4readEPhii 000000d0  00000000  00000000  0000024e  2**0
                  CONTENTS, ALLOC, LOAD, RELOC, READONLY, CODE
 16 .text._ZN19BufferedInputStream4readEv 00000052  00000000  00000000  0000031e  2**0
                  CONTENTS, ALLOC, LOAD, RELOC, READONLY, CODE
 17 .text._ZN19BufferedInputStream4markEv 00000022  00000000  00000000  00000370  2**0
                  CONTENTS, ALLOC, LOAD, RELOC, READONLY, CODE
 18 .text._ZTv0_n8_N19BufferedInputStream9availableEv 00000014  00000000  00000000  00000392  2**0
                  CONTENTS, ALLOC, LOAD, RELOC, READONLY, CODE
 19 .text._ZTv0_n6_N19BufferedInputStream5closeEv 00000014  00000000  00000000  000003a6  2**0
                  CONTENTS, ALLOC, LOAD, RELOC, READONLY, CODE
 20 .text._ZTv0_n20_N19BufferedInputStream5resetEv 00000014  00000000  00000000  000003ba  2**0
                  CONTENTS, ALLOC, LOAD, RELOC, READONLY, CODE
 21 .text._ZTv0_n16_N19BufferedInputStream4readEPhi 00000014  00000000  00000000  000003ce  2**0
                  CONTENTS, ALLOC, LOAD, RELOC, READONLY, CODE
 22 .text._ZTv0_n12_N19BufferedInputStream13markSupportedEv 00000014  00000000  00000000  000003e2  2**0
                  CONTENTS, ALLOC, LOAD, RELOC, READONLY, CODE
 23 .text._ZTv0_n22_N19BufferedInputStream4skipEj 00000014  00000000  00000000  000003f6  2**0
                  CONTENTS, ALLOC, LOAD, RELOC, READONLY, CODE
 24 .text._ZTv0_n18_N19BufferedInputStream4readEPhii 00000016  00000000  00000000  0000040a  2**0
                  CONTENTS, ALLOC, LOAD, RELOC, READONLY, CODE
 25 .text._ZTv0_n14_N19BufferedInputStream4readEv 00000014  00000000  00000000  00000420  2**0
                  CONTENTS, ALLOC, LOAD, RELOC, READONLY, CODE
 26 .text._ZTv0_n10_N19BufferedInputStream4markEv 00000014  00000000  00000000  00000434  2**0
                  CONTENTS, ALLOC, LOAD, RELOC, READONLY, CODE
 27 .rodata._ZTV9Closeable 00000006  00000000  00000000  00000448  2**0
                  CONTENTS, ALLOC, LOAD, RELOC, READONLY, DATA
 28 .rodata._ZTC19BufferedInputStream0_17FilterInputStream 0000002a  00000000  00000000  0000044e  2**0
                  CONTENTS, ALLOC, LOAD, RELOC, READONLY, DATA
 29 .rodata._ZTT19BufferedInputStream 00000008  00000000  00000000  00000478  2**0
                  CONTENTS, ALLOC, LOAD, RELOC, READONLY, DATA
 30 .rodata._ZTV19BufferedInputStream 0000002a  00000000  00000000  00000480  2**0
                  CONTENTS, ALLOC, LOAD, RELOC, READONLY, DATA
 31 .comment      00000012  00000000  00000000  000004aa  2**0
                  CONTENTS, READONLY

Disassembly of section .text._ZN19BufferedInputStream9availableEv:

00000000 <_ZN19BufferedInputStream9availableEv>:
   0:	cf 93       	push	r28
   2:	df 93       	push	r29
   4:	ec 01       	movw	r28, r24
   6:	8a 81       	ldd	r24, Y+2	; 0x02
   8:	9b 81       	ldd	r25, Y+3	; 0x03
   a:	dc 01       	movw	r26, r24
   c:	ed 91       	ld	r30, X+
   e:	fc 91       	ld	r31, X
  10:	02 80       	ldd	r0, Z+2	; 0x02
  12:	f3 81       	ldd	r31, Z+3	; 0x03
  14:	e0 2d       	mov	r30, r0
  16:	09 95       	icall
  18:	28 85       	ldd	r18, Y+8	; 0x08
  1a:	39 85       	ldd	r19, Y+9	; 0x09
  1c:	4a 85       	ldd	r20, Y+10	; 0x0a
  1e:	5b 85       	ldd	r21, Y+11	; 0x0b
  20:	24 1b       	sub	r18, r20
  22:	35 0b       	sbc	r19, r21
  24:	82 0f       	add	r24, r18
  26:	93 1f       	adc	r25, r19
  28:	df 91       	pop	r29
  2a:	cf 91       	pop	r28
  2c:	08 95       	ret

Disassembly of section .text._ZN19BufferedInputStream5closeEv:

0000002e <_ZN19BufferedInputStream5closeEv>:
  2e:	dc 01       	movw	r26, r24
  30:	12 96       	adiw	r26, 0x02	; 2
  32:	8d 91       	ld	r24, X+
  34:	9c 91       	ld	r25, X
  36:	13 97       	sbiw	r26, 0x03	; 3
  38:	dc 01       	movw	r26, r24
  3a:	ed 91       	ld	r30, X+
  3c:	fc 91       	ld	r31, X
  3e:	01 90       	ld	r0, Z+
  40:	f0 81       	ld	r31, Z
  42:	e0 2d       	mov	r30, r0
  44:	09 94       	ijmp

Disassembly of section .text._ZN19BufferedInputStream5resetEv:

00000074 <_ZN19BufferedInputStream5resetEv>:
  74:	fc 01       	movw	r30, r24
  76:	86 85       	ldd	r24, Z+14	; 0x0e
  78:	88 23       	and	r24, r24
  7a:	01 f0       	breq	.+0      	; 0x7c <_ZN19BufferedInputStream5resetEv+0x8>
  7c:	84 85       	ldd	r24, Z+12	; 0x0c
  7e:	95 85       	ldd	r25, Z+13	; 0x0d
  80:	93 87       	std	Z+11, r25	; 0x0b
  82:	82 87       	std	Z+10, r24	; 0x0a
  84:	08 95       	ret

Disassembly of section .text._ZN19BufferedInputStream4readEPhi:

000000fa <_ZN19BufferedInputStream4readEPhi>:
  fa:	9a 01       	movw	r18, r20
  fc:	dc 01       	movw	r26, r24
  fe:	ed 91       	ld	r30, X+
 100:	fc 91       	ld	r31, X
 102:	04 84       	ldd	r0, Z+12	; 0x0c
 104:	f5 85       	ldd	r31, Z+13	; 0x0d
 106:	e0 2d       	mov	r30, r0
 108:	40 e0       	ldi	r20, 0x00	; 0
 10a:	50 e0       	ldi	r21, 0x00	; 0
 10c:	09 94       	ijmp

Disassembly of section .text._ZN19BufferedInputStream13markSupportedEv:

00000208 <_ZN19BufferedInputStream13markSupportedEv>:
 208:	81 e0       	ldi	r24, 0x01	; 1
 20a:	08 95       	ret

Disassembly of section .text._ZN19BufferedInputStream4skipEj:

00000414 <_ZN19BufferedInputStream4skipEj>:
 414:	cf 93       	push	r28
 416:	df 93       	push	r29
 418:	fc 01       	movw	r30, r24
 41a:	82 85       	ldd	r24, Z+10	; 0x0a
 41c:	93 85       	ldd	r25, Z+11	; 0x0b
 41e:	c0 85       	ldd	r28, Z+8	; 0x08
 420:	d1 85       	ldd	r29, Z+9	; 0x09
 422:	c8 1b       	sub	r28, r24
 424:	d9 0b       	sbc	r29, r25
 426:	c6 17       	cp	r28, r22
 428:	d7 07       	cpc	r29, r23
 42a:	00 f0       	brcs	.+0      	; 0x42c <_ZN19BufferedInputStream4skipEj+0x18>
 42c:	86 0f       	add	r24, r22
 42e:	97 1f       	adc	r25, r23
 430:	93 87       	std	Z+11, r25	; 0x0b
 432:	82 87       	std	Z+10, r24	; 0x0a
 434:	cb 01       	movw	r24, r22
 436:	00 c0       	rjmp	.+0      	; 0x438 <_ZN19BufferedInputStream4skipEj+0x24>
 438:	13 86       	std	Z+11, r1	; 0x0b
 43a:	12 86       	std	Z+10, r1	; 0x0a
 43c:	11 86       	std	Z+9, r1	; 0x09
 43e:	10 86       	std	Z+8, r1	; 0x08
 440:	16 86       	std	Z+14, r1	; 0x0e
 442:	82 81       	ldd	r24, Z+2	; 0x02
 444:	93 81       	ldd	r25, Z+3	; 0x03
 446:	dc 01       	movw	r26, r24
 448:	ed 91       	ld	r30, X+
 44a:	fc 91       	ld	r31, X
 44c:	6c 1b       	sub	r22, r28
 44e:	7d 0b       	sbc	r23, r29
 450:	00 88       	ldd	r0, Z+16	; 0x10
 452:	f1 89       	ldd	r31, Z+17	; 0x11
 454:	e0 2d       	mov	r30, r0
 456:	09 95       	icall
 458:	8c 0f       	add	r24, r28
 45a:	9d 1f       	adc	r25, r29
 45c:	df 91       	pop	r29
 45e:	cf 91       	pop	r28
 460:	08 95       	ret

Disassembly of section .text._ZN19BufferedInputStreamC2EP11InputStreamPhi:

00000876 <_ZN19BufferedInputStreamC2EP11InputStreamPhi>:
 876:	cf 92       	push	r12
 878:	df 92       	push	r13
 87a:	ef 92       	push	r14
 87c:	ff 92       	push	r15
 87e:	0f 93       	push	r16
 880:	1f 93       	push	r17
 882:	cf 93       	push	r28
 884:	df 93       	push	r29
 886:	ec 01       	movw	r28, r24
 888:	7b 01       	movw	r14, r22
 88a:	69 01       	movw	r12, r18
 88c:	6e 5f       	subi	r22, 0xFE	; 254
 88e:	7f 4f       	sbci	r23, 0xFF	; 255
 890:	0e 94 00 00 	call	0	; 0x0 <__tmp_reg__>
 894:	f7 01       	movw	r30, r14
 896:	80 81       	ld	r24, Z
 898:	91 81       	ldd	r25, Z+1	; 0x01
 89a:	99 83       	std	Y+1, r25	; 0x01
 89c:	88 83       	st	Y, r24
 89e:	26 81       	ldd	r18, Z+6	; 0x06
 8a0:	37 81       	ldd	r19, Z+7	; 0x07
 8a2:	fc 01       	movw	r30, r24
 8a4:	78 97       	sbiw	r30, 0x18	; 24
 8a6:	01 90       	ld	r0, Z+
 8a8:	f0 81       	ld	r31, Z
 8aa:	e0 2d       	mov	r30, r0
 8ac:	ec 0f       	add	r30, r28
 8ae:	fd 1f       	adc	r31, r29
 8b0:	31 83       	std	Z+1, r19	; 0x01
 8b2:	20 83       	st	Z, r18
 8b4:	df 82       	std	Y+7, r13	; 0x07
 8b6:	ce 82       	std	Y+6, r12	; 0x06
 8b8:	1d 83       	std	Y+5, r17	; 0x05
 8ba:	0c 83       	std	Y+4, r16	; 0x04
 8bc:	19 86       	std	Y+9, r1	; 0x09
 8be:	18 86       	std	Y+8, r1	; 0x08
 8c0:	1b 86       	std	Y+11, r1	; 0x0b
 8c2:	1a 86       	std	Y+10, r1	; 0x0a
 8c4:	df 91       	pop	r29
 8c6:	cf 91       	pop	r28
 8c8:	1f 91       	pop	r17
 8ca:	0f 91       	pop	r16
 8cc:	ff 90       	pop	r15
 8ce:	ef 90       	pop	r14
 8d0:	df 90       	pop	r13
 8d2:	cf 90       	pop	r12
 8d4:	08 95       	ret

Disassembly of section .text._ZN19BufferedInputStreamC1EP11InputStreamPhi:

0000114c <_ZN19BufferedInputStreamC1EP11InputStreamPhi>:
    114c:	ef 92       	push	r14
    114e:	ff 92       	push	r15
    1150:	0f 93       	push	r16
    1152:	1f 93       	push	r17
    1154:	cf 93       	push	r28
    1156:	df 93       	push	r29
    1158:	ec 01       	movw	r28, r24
    115a:	8a 01       	movw	r16, r20
    115c:	79 01       	movw	r14, r18
    115e:	80 e0       	ldi	r24, 0x00	; 0
    1160:	90 e0       	ldi	r25, 0x00	; 0
    1162:	99 83       	std	Y+1, r25	; 0x01
    1164:	88 83       	st	Y, r24
    1166:	ab 01       	movw	r20, r22
    1168:	60 e0       	ldi	r22, 0x00	; 0
    116a:	70 e0       	ldi	r23, 0x00	; 0
    116c:	ce 01       	movw	r24, r28
    116e:	0e 94 00 00 	call	0	; 0x0 <__tmp_reg__>
    1172:	80 e0       	ldi	r24, 0x00	; 0
    1174:	90 e0       	ldi	r25, 0x00	; 0
    1176:	99 83       	std	Y+1, r25	; 0x01
    1178:	88 83       	st	Y, r24
    117a:	1f 83       	std	Y+7, r17	; 0x07
    117c:	0e 83       	std	Y+6, r16	; 0x06
    117e:	fd 82       	std	Y+5, r15	; 0x05
    1180:	ec 82       	std	Y+4, r14	; 0x04
    1182:	19 86       	std	Y+9, r1	; 0x09
    1184:	18 86       	std	Y+8, r1	; 0x08
    1186:	1b 86       	std	Y+11, r1	; 0x0b
    1188:	1a 86       	std	Y+10, r1	; 0x0a
    118a:	df 91       	pop	r29
    118c:	cf 91       	pop	r28
    118e:	1f 91       	pop	r17
    1190:	0f 91       	pop	r16
    1192:	ff 90       	pop	r15
    1194:	ef 90       	pop	r14
    1196:	08 95       	ret

Disassembly of section .text._ZN19BufferedInputStream20realineBufferContentEv:

000022e4 <_ZN19BufferedInputStream20realineBufferContentEv>:
    22e4:	fc 01       	movw	r30, r24
    22e6:	82 85       	ldd	r24, Z+10	; 0x0a
    22e8:	93 85       	ldd	r25, Z+11	; 0x0b
    22ea:	18 16       	cp	r1, r24
    22ec:	19 06       	cpc	r1, r25
    22ee:	04 f4       	brge	.+0      	; 0x22f0 <_ZN19BufferedInputStream20realineBufferContentEv+0xc>
    22f0:	20 85       	ldd	r18, Z+8	; 0x08
    22f2:	31 85       	ldd	r19, Z+9	; 0x09
    22f4:	28 1b       	sub	r18, r24
    22f6:	39 0b       	sbc	r19, r25
    22f8:	80 e0       	ldi	r24, 0x00	; 0
    22fa:	90 e0       	ldi	r25, 0x00	; 0
    22fc:	a2 85       	ldd	r26, Z+10	; 0x0a
    22fe:	b3 85       	ldd	r27, Z+11	; 0x0b
    2300:	82 17       	cp	r24, r18
    2302:	93 07       	cpc	r25, r19
    2304:	04 f4       	brge	.+0      	; 0x2306 <_ZN19BufferedInputStream20realineBufferContentEv+0x22>
    2306:	46 81       	ldd	r20, Z+6	; 0x06
    2308:	57 81       	ldd	r21, Z+7	; 0x07
    230a:	a4 0f       	add	r26, r20
    230c:	b5 1f       	adc	r27, r21
    230e:	a8 0f       	add	r26, r24
    2310:	b9 1f       	adc	r27, r25
    2312:	6c 91       	ld	r22, X
    2314:	da 01       	movw	r26, r20
    2316:	a8 0f       	add	r26, r24
    2318:	b9 1f       	adc	r27, r25
    231a:	6c 93       	st	X, r22
    231c:	01 96       	adiw	r24, 0x01	; 1
    231e:	00 c0       	rjmp	.+0      	; 0x2320 <_ZN19BufferedInputStream20realineBufferContentEv+0x3c>
    2320:	80 85       	ldd	r24, Z+8	; 0x08
    2322:	91 85       	ldd	r25, Z+9	; 0x09
    2324:	8a 1b       	sub	r24, r26
    2326:	9b 0b       	sbc	r25, r27
    2328:	91 87       	std	Z+9, r25	; 0x09
    232a:	80 87       	std	Z+8, r24	; 0x08
    232c:	13 86       	std	Z+11, r1	; 0x0b
    232e:	12 86       	std	Z+10, r1	; 0x0a
    2330:	08 95       	ret

Disassembly of section .text._ZN19BufferedInputStream4fillEi:

00004616 <_ZN19BufferedInputStream4fillEi>:
    4616:	0f 93       	push	r16
    4618:	1f 93       	push	r17
    461a:	cf 93       	push	r28
    461c:	df 93       	push	r29
    461e:	ec 01       	movw	r28, r24
    4620:	8b 01       	movw	r16, r22
    4622:	2c 81       	ldd	r18, Y+4	; 0x04
    4624:	3d 81       	ldd	r19, Y+5	; 0x05
    4626:	26 1b       	sub	r18, r22
    4628:	37 0b       	sbc	r19, r23
    462a:	12 16       	cp	r1, r18
    462c:	13 06       	cpc	r1, r19
    462e:	04 f4       	brge	.+0      	; 0x4630 <_ZN19BufferedInputStream4fillEi+0x1a>
    4630:	8a 81       	ldd	r24, Y+2	; 0x02
    4632:	9b 81       	ldd	r25, Y+3	; 0x03
    4634:	dc 01       	movw	r26, r24
    4636:	ed 91       	ld	r30, X+
    4638:	fc 91       	ld	r31, X
    463a:	6e 81       	ldd	r22, Y+6	; 0x06
    463c:	7f 81       	ldd	r23, Y+7	; 0x07
    463e:	04 84       	ldd	r0, Z+12	; 0x0c
    4640:	f5 85       	ldd	r31, Z+13	; 0x0d
    4642:	e0 2d       	mov	r30, r0
    4644:	a8 01       	movw	r20, r16
    4646:	09 95       	icall
    4648:	18 16       	cp	r1, r24
    464a:	19 06       	cpc	r1, r25
    464c:	04 f4       	brge	.+0      	; 0x464e <_ZN19BufferedInputStream4fillEi+0x38>
    464e:	08 0f       	add	r16, r24
    4650:	19 1f       	adc	r17, r25
    4652:	19 87       	std	Y+9, r17	; 0x09
    4654:	08 87       	std	Y+8, r16	; 0x08
    4656:	df 91       	pop	r29
    4658:	cf 91       	pop	r28
    465a:	1f 91       	pop	r17
    465c:	0f 91       	pop	r16
    465e:	08 95       	ret

Disassembly of section .text._ZN19BufferedInputStream4readEPhii:

00008c76 <_ZN19BufferedInputStream4readEPhii>:
    8c76:	cf 92       	push	r12
    8c78:	df 92       	push	r13
    8c7a:	ef 92       	push	r14
    8c7c:	ff 92       	push	r15
    8c7e:	0f 93       	push	r16
    8c80:	1f 93       	push	r17
    8c82:	cf 93       	push	r28
    8c84:	df 93       	push	r29
    8c86:	ec 01       	movw	r28, r24
    8c88:	79 01       	movw	r14, r18
    8c8a:	08 85       	ldd	r16, Y+8	; 0x08
    8c8c:	19 85       	ldd	r17, Y+9	; 0x09
    8c8e:	8a 85       	ldd	r24, Y+10	; 0x0a
    8c90:	9b 85       	ldd	r25, Y+11	; 0x0b
    8c92:	08 1b       	sub	r16, r24
    8c94:	19 0b       	sbc	r17, r25
    8c96:	db 01       	movw	r26, r22
    8c98:	a4 0f       	add	r26, r20
    8c9a:	b5 1f       	adc	r27, r21
    8c9c:	80 e0       	ldi	r24, 0x00	; 0
    8c9e:	90 e0       	ldi	r25, 0x00	; 0
    8ca0:	02 17       	cp	r16, r18
    8ca2:	13 07       	cpc	r17, r19
    8ca4:	04 f0       	brlt	.+0      	; 0x8ca6 <_ZN19BufferedInputStream4readEPhii+0x30>
    8ca6:	2a 85       	ldd	r18, Y+10	; 0x0a
    8ca8:	3b 85       	ldd	r19, Y+11	; 0x0b
    8caa:	8e 15       	cp	r24, r14
    8cac:	9f 05       	cpc	r25, r15
    8cae:	04 f4       	brge	.+0      	; 0x8cb0 <_ZN19BufferedInputStream4readEPhii+0x3a>
    8cb0:	ee 81       	ldd	r30, Y+6	; 0x06
    8cb2:	ff 81       	ldd	r31, Y+7	; 0x07
    8cb4:	e2 0f       	add	r30, r18
    8cb6:	f3 1f       	adc	r31, r19
    8cb8:	e8 0f       	add	r30, r24
    8cba:	f9 1f       	adc	r31, r25
    8cbc:	20 81       	ld	r18, Z
    8cbe:	2d 93       	st	X+, r18
    8cc0:	01 96       	adiw	r24, 0x01	; 1
    8cc2:	00 c0       	rjmp	.+0      	; 0x8cc4 <_ZN19BufferedInputStream4readEPhii+0x4e>
    8cc4:	2e 0d       	add	r18, r14
    8cc6:	3f 1d       	adc	r19, r15
    8cc8:	3b 87       	std	Y+11, r19	; 0x0b
    8cca:	2a 87       	std	Y+10, r18	; 0x0a
    8ccc:	00 c0       	rjmp	.+0      	; 0x8cce <_ZN19BufferedInputStream4readEPhii+0x58>
    8cce:	80 17       	cp	r24, r16
    8cd0:	91 07       	cpc	r25, r17
    8cd2:	04 f4       	brge	.+0      	; 0x8cd4 <_ZN19BufferedInputStream4readEPhii+0x5e>
    8cd4:	ee 81       	ldd	r30, Y+6	; 0x06
    8cd6:	ff 81       	ldd	r31, Y+7	; 0x07
    8cd8:	2a 85       	ldd	r18, Y+10	; 0x0a
    8cda:	3b 85       	ldd	r19, Y+11	; 0x0b
    8cdc:	e2 0f       	add	r30, r18
    8cde:	f3 1f       	adc	r31, r19
    8ce0:	e8 0f       	add	r30, r24
    8ce2:	f9 1f       	adc	r31, r25
    8ce4:	20 81       	ld	r18, Z
    8ce6:	2d 93       	st	X+, r18
    8ce8:	01 96       	adiw	r24, 0x01	; 1
    8cea:	00 c0       	rjmp	.+0      	; 0x8cec <_ZN19BufferedInputStream4readEPhii+0x76>
    8cec:	1e 86       	std	Y+14, r1	; 0x0e
    8cee:	1b 86       	std	Y+11, r1	; 0x0b
    8cf0:	1a 86       	std	Y+10, r1	; 0x0a
    8cf2:	19 86       	std	Y+9, r1	; 0x09
    8cf4:	18 86       	std	Y+8, r1	; 0x08
    8cf6:	8a 81       	ldd	r24, Y+2	; 0x02
    8cf8:	9b 81       	ldd	r25, Y+3	; 0x03
    8cfa:	67 01       	movw	r12, r14
    8cfc:	c0 1a       	sub	r12, r16
    8cfe:	d1 0a       	sbc	r13, r17
    8d00:	dc 01       	movw	r26, r24
    8d02:	ed 91       	ld	r30, X+
    8d04:	fc 91       	ld	r31, X
    8d06:	40 0f       	add	r20, r16
    8d08:	51 1f       	adc	r21, r17
    8d0a:	04 84       	ldd	r0, Z+12	; 0x0c
    8d0c:	f5 85       	ldd	r31, Z+13	; 0x0d
    8d0e:	e0 2d       	mov	r30, r0
    8d10:	96 01       	movw	r18, r12
    8d12:	09 95       	icall
    8d14:	97 fd       	sbrc	r25, 7
    8d16:	00 c0       	rjmp	.+0      	; 0x8d18 <_ZN19BufferedInputStream4readEPhii+0xa2>
    8d18:	8c 15       	cp	r24, r12
    8d1a:	9d 05       	cpc	r25, r13
    8d1c:	04 f4       	brge	.+0      	; 0x8d1e <_ZN19BufferedInputStream4readEPhii+0xa8>
    8d1e:	80 0f       	add	r24, r16
    8d20:	91 1f       	adc	r25, r17
    8d22:	00 c0       	rjmp	.+0      	; 0x8d24 <_ZN19BufferedInputStream4readEPhii+0xae>
    8d24:	60 e0       	ldi	r22, 0x00	; 0
    8d26:	70 e0       	ldi	r23, 0x00	; 0
    8d28:	ce 01       	movw	r24, r28
    8d2a:	0e 94 00 00 	call	0	; 0x0 <__tmp_reg__>
    8d2e:	c7 01       	movw	r24, r14
    8d30:	00 c0       	rjmp	.+0      	; 0x8d32 <_ZN19BufferedInputStream4readEPhii+0xbc>
    8d32:	c8 01       	movw	r24, r16
    8d34:	df 91       	pop	r29
    8d36:	cf 91       	pop	r28
    8d38:	1f 91       	pop	r17
    8d3a:	0f 91       	pop	r16
    8d3c:	ff 90       	pop	r15
    8d3e:	ef 90       	pop	r14
    8d40:	df 90       	pop	r13
    8d42:	cf 90       	pop	r12
    8d44:	08 95       	ret

Disassembly of section .text._ZN19BufferedInputStream4readEv:

000119bc <_ZN19BufferedInputStream4readEv>:
   119bc:	cf 93       	push	r28
   119be:	df 93       	push	r29
   119c0:	ec 01       	movw	r28, r24
   119c2:	2a 85       	ldd	r18, Y+10	; 0x0a
   119c4:	3b 85       	ldd	r19, Y+11	; 0x0b
   119c6:	88 85       	ldd	r24, Y+8	; 0x08
   119c8:	99 85       	ldd	r25, Y+9	; 0x09
   119ca:	28 17       	cp	r18, r24
   119cc:	39 07       	cpc	r19, r25
   119ce:	04 f0       	brlt	.+0      	; 0x119d0 <_ZN19BufferedInputStream4readEv+0x14>
   119d0:	1e 86       	std	Y+14, r1	; 0x0e
   119d2:	60 e0       	ldi	r22, 0x00	; 0
   119d4:	70 e0       	ldi	r23, 0x00	; 0
   119d6:	ce 01       	movw	r24, r28
   119d8:	0e 94 00 00 	call	0	; 0x0 <__tmp_reg__>
   119dc:	88 85       	ldd	r24, Y+8	; 0x08
   119de:	99 85       	ldd	r25, Y+9	; 0x09
   119e0:	89 2b       	or	r24, r25
   119e2:	01 f0       	breq	.+0      	; 0x119e4 <_ZN19BufferedInputStream4readEv+0x28>
   119e4:	1b 86       	std	Y+11, r1	; 0x0b
   119e6:	1a 86       	std	Y+10, r1	; 0x0a
   119e8:	ee 81       	ldd	r30, Y+6	; 0x06
   119ea:	ff 81       	ldd	r31, Y+7	; 0x07
   119ec:	8a 85       	ldd	r24, Y+10	; 0x0a
   119ee:	9b 85       	ldd	r25, Y+11	; 0x0b
   119f0:	9c 01       	movw	r18, r24
   119f2:	2f 5f       	subi	r18, 0xFF	; 255
   119f4:	3f 4f       	sbci	r19, 0xFF	; 255
   119f6:	3b 87       	std	Y+11, r19	; 0x0b
   119f8:	2a 87       	std	Y+10, r18	; 0x0a
   119fa:	e8 0f       	add	r30, r24
   119fc:	f9 1f       	adc	r31, r25
   119fe:	80 81       	ld	r24, Z
   11a00:	90 e0       	ldi	r25, 0x00	; 0
   11a02:	00 c0       	rjmp	.+0      	; 0x11a04 <_ZN19BufferedInputStream4readEv+0x48>
   11a04:	8f ef       	ldi	r24, 0xFF	; 255
   11a06:	9f ef       	ldi	r25, 0xFF	; 255
   11a08:	df 91       	pop	r29
   11a0a:	cf 91       	pop	r28
   11a0c:	08 95       	ret

Disassembly of section .text._ZN19BufferedInputStream4markEv:

000233ca <_ZN19BufferedInputStream4markEv>:
   233ca:	cf 93       	push	r28
   233cc:	df 93       	push	r29
   233ce:	ec 01       	movw	r28, r24
   233d0:	0e 94 00 00 	call	0	; 0x0 <__tmp_reg__>
   233d4:	68 85       	ldd	r22, Y+8	; 0x08
   233d6:	79 85       	ldd	r23, Y+9	; 0x09
   233d8:	ce 01       	movw	r24, r28
   233da:	0e 94 00 00 	call	0	; 0x0 <__tmp_reg__>
   233de:	1d 86       	std	Y+13, r1	; 0x0d
   233e0:	1c 86       	std	Y+12, r1	; 0x0c
   233e2:	81 e0       	ldi	r24, 0x01	; 1
   233e4:	8e 87       	std	Y+14, r24	; 0x0e
   233e6:	df 91       	pop	r29
   233e8:	cf 91       	pop	r28
   233ea:	08 95       	ret

Disassembly of section .text._ZTv0_n8_N19BufferedInputStream9availableEv:

000467b6 <_ZTv0_n8_N19BufferedInputStream9availableEv>:
   467b6:	dc 01       	movw	r26, r24
   467b8:	ed 91       	ld	r30, X+
   467ba:	fc 91       	ld	r31, X
   467bc:	38 97       	sbiw	r30, 0x08	; 8
   467be:	20 81       	ld	r18, Z
   467c0:	31 81       	ldd	r19, Z+1	; 0x01
   467c2:	82 0f       	add	r24, r18
   467c4:	93 1f       	adc	r25, r19
   467c6:	0c 94 00 00 	jmp	0	; 0x0 <__tmp_reg__>

Disassembly of section .text._ZTv0_n6_N19BufferedInputStream5closeEv:

0008cf80 <_ZTv0_n6_N19BufferedInputStream5closeEv>:
   8cf80:	dc 01       	movw	r26, r24
   8cf82:	ed 91       	ld	r30, X+
   8cf84:	fc 91       	ld	r31, X
   8cf86:	36 97       	sbiw	r30, 0x06	; 6
   8cf88:	20 81       	ld	r18, Z
   8cf8a:	31 81       	ldd	r19, Z+1	; 0x01
   8cf8c:	82 0f       	add	r24, r18
   8cf8e:	93 1f       	adc	r25, r19
   8cf90:	0c 94 00 00 	jmp	0	; 0x0 <__tmp_reg__>

Disassembly of section .text._ZTv0_n20_N19BufferedInputStream5resetEv:

00119f14 <_ZTv0_n20_N19BufferedInputStream5resetEv>:
  119f14:	dc 01       	movw	r26, r24
  119f16:	ed 91       	ld	r30, X+
  119f18:	fc 91       	ld	r31, X
  119f1a:	74 97       	sbiw	r30, 0x14	; 20
  119f1c:	20 81       	ld	r18, Z
  119f1e:	31 81       	ldd	r19, Z+1	; 0x01
  119f20:	82 0f       	add	r24, r18
  119f22:	93 1f       	adc	r25, r19
  119f24:	0c 94 00 00 	jmp	0	; 0x0 <__tmp_reg__>

Disassembly of section .text._ZTv0_n16_N19BufferedInputStream4readEPhi:

00233e3c <_ZTv0_n16_N19BufferedInputStream4readEPhi>:
  233e3c:	dc 01       	movw	r26, r24
  233e3e:	ed 91       	ld	r30, X+
  233e40:	fc 91       	ld	r31, X
  233e42:	70 97       	sbiw	r30, 0x10	; 16
  233e44:	20 81       	ld	r18, Z
  233e46:	31 81       	ldd	r19, Z+1	; 0x01
  233e48:	82 0f       	add	r24, r18
  233e4a:	93 1f       	adc	r25, r19
  233e4c:	0c 94 00 00 	jmp	0	; 0x0 <__tmp_reg__>

Disassembly of section .text._ZTv0_n12_N19BufferedInputStream13markSupportedEv:

00467c8c <_ZTv0_n12_N19BufferedInputStream13markSupportedEv>:
  467c8c:	dc 01       	movw	r26, r24
  467c8e:	ed 91       	ld	r30, X+
  467c90:	fc 91       	ld	r31, X
  467c92:	3c 97       	sbiw	r30, 0x0c	; 12
  467c94:	20 81       	ld	r18, Z
  467c96:	31 81       	ldd	r19, Z+1	; 0x01
  467c98:	82 0f       	add	r24, r18
  467c9a:	93 1f       	adc	r25, r19
  467c9c:	0c 94 00 00 	jmp	0	; 0x0 <__tmp_reg__>

Disassembly of section .text._ZTv0_n22_N19BufferedInputStream4skipEj:

008cf92c <_ZTv0_n22_N19BufferedInputStream4skipEj>:
  8cf92c:	dc 01       	movw	r26, r24
  8cf92e:	ed 91       	ld	r30, X+
  8cf930:	fc 91       	ld	r31, X
  8cf932:	76 97       	sbiw	r30, 0x16	; 22
  8cf934:	20 81       	ld	r18, Z
  8cf936:	31 81       	ldd	r19, Z+1	; 0x01
  8cf938:	82 0f       	add	r24, r18
  8cf93a:	93 1f       	adc	r25, r19
  8cf93c:	0c 94 00 00 	jmp	0	; 0x0 <__tmp_reg__>

Disassembly of section .text._ZTv0_n18_N19BufferedInputStream4readEPhii:

0119f26c <_ZTv0_n18_N19BufferedInputStream4readEPhii>:
 119f26c:	dc 01       	movw	r26, r24
 119f26e:	ed 91       	ld	r30, X+
 119f270:	fc 91       	ld	r31, X
 119f272:	72 97       	sbiw	r30, 0x12	; 18
 119f274:	01 90       	ld	r0, Z+
 119f276:	f0 81       	ld	r31, Z
 119f278:	e0 2d       	mov	r30, r0
 119f27a:	8e 0f       	add	r24, r30
 119f27c:	9f 1f       	adc	r25, r31
 119f27e:	0c 94 00 00 	jmp	0	; 0x0 <__tmp_reg__>

Disassembly of section .text._ZTv0_n14_N19BufferedInputStream4readEv:

0233e4ee <_ZTv0_n14_N19BufferedInputStream4readEv>:
 233e4ee:	dc 01       	movw	r26, r24
 233e4f0:	ed 91       	ld	r30, X+
 233e4f2:	fc 91       	ld	r31, X
 233e4f4:	3e 97       	sbiw	r30, 0x0e	; 14
 233e4f6:	20 81       	ld	r18, Z
 233e4f8:	31 81       	ldd	r19, Z+1	; 0x01
 233e4fa:	82 0f       	add	r24, r18
 233e4fc:	93 1f       	adc	r25, r19
 233e4fe:	0c 94 00 00 	jmp	0	; 0x0 <__tmp_reg__>

Disassembly of section .text._ZTv0_n10_N19BufferedInputStream4markEv:

0467c9f0 <_ZTv0_n10_N19BufferedInputStream4markEv>:
 467c9f0:	dc 01       	movw	r26, r24
 467c9f2:	ed 91       	ld	r30, X+
 467c9f4:	fc 91       	ld	r31, X
 467c9f6:	3a 97       	sbiw	r30, 0x0a	; 10
 467c9f8:	20 81       	ld	r18, Z
 467c9fa:	31 81       	ldd	r19, Z+1	; 0x01
 467c9fc:	82 0f       	add	r24, r18
 467c9fe:	93 1f       	adc	r25, r19
 467ca00:	0c 94 00 00 	jmp	0	; 0x0 <__tmp_reg__>
