In archive libio.a:

WireOutputStream.o:     file format elf32-avr

Sections:
Idx Name          Size      VMA       LMA       File off  Algn
  0 .text         00000000  00000000  00000000  00000034  2**0
                  CONTENTS, ALLOC, LOAD, READONLY, CODE
  1 .data         00000000  00000000  00000000  00000034  2**0
                  CONTENTS, ALLOC, LOAD, DATA
  2 .bss          00000000  00000000  00000000  00000034  2**0
                  ALLOC
  3 .comment      00000012  00000000  00000000  00000034  2**0
                  CONTENTS, READONLY

WireInputStream.o:     file format elf32-avr

Sections:
Idx Name          Size      VMA       LMA       File off  Algn
  0 .group        00000008  00000000  00000000  00000034  2**2
                  CONTENTS, READONLY, EXCLUDE, GROUP, LINK_ONCE_DISCARD
  1 .group        00000008  00000000  00000000  0000003c  2**2
                  CONTENTS, READONLY, EXCLUDE, GROUP, LINK_ONCE_DISCARD
  2 .text         000000f8  00000000  00000000  00000044  2**0
                  CONTENTS, ALLOC, LOAD, RELOC, READONLY, CODE
  3 .data         00000000  00000000  00000000  0000013c  2**0
                  CONTENTS, ALLOC, LOAD, DATA
  4 .bss          00000000  00000000  00000000  0000013c  2**0
                  ALLOC
  5 .rodata._ZTV15WireInputStream 00000016  00000000  00000000  0000013c  2**0
                  CONTENTS, ALLOC, LOAD, RELOC, READONLY, DATA
  6 .rodata._ZTV9Closeable 00000006  00000000  00000000  00000152  2**0
                  CONTENTS, ALLOC, LOAD, RELOC, READONLY, DATA
  7 .comment      00000012  00000000  00000000  00000158  2**0
                  CONTENTS, READONLY

Disassembly of section .text:

00000000 <_ZN15WireInputStream9availableEv>:
   0:	80 e0       	ldi	r24, 0x00	; 0
   2:	90 e0       	ldi	r25, 0x00	; 0
   4:	0c 94 00 00 	jmp	0	; 0x0 <_ZN15WireInputStream9availableEv>

00000008 <_ZN15WireInputStream4readEPhii>:
   8:	cf 92       	push	r12
   a:	df 92       	push	r13
   c:	ef 92       	push	r14
   e:	ff 92       	push	r15
  10:	0f 93       	push	r16
  12:	1f 93       	push	r17
  14:	cf 93       	push	r28
  16:	df 93       	push	r29
  18:	7c 01       	movw	r14, r24
  1a:	eb 01       	movw	r28, r22
  1c:	6a 01       	movw	r12, r20
  1e:	89 01       	movw	r16, r18
  20:	fc 01       	movw	r30, r24
  22:	62 81       	ldd	r22, Z+2	; 0x02
  24:	80 e0       	ldi	r24, 0x00	; 0
  26:	90 e0       	ldi	r25, 0x00	; 0
  28:	0e 94 00 00 	call	0	; 0x0 <_ZN15WireInputStream9availableEv>
  2c:	f7 01       	movw	r30, r14
  2e:	62 81       	ldd	r22, Z+2	; 0x02
  30:	80 e0       	ldi	r24, 0x00	; 0
  32:	90 e0       	ldi	r25, 0x00	; 0
  34:	0e 94 00 00 	call	0	; 0x0 <_ZN15WireInputStream9availableEv>
  38:	80 e0       	ldi	r24, 0x00	; 0
  3a:	90 e0       	ldi	r25, 0x00	; 0
  3c:	0e 94 00 00 	call	0	; 0x0 <_ZN15WireInputStream9availableEv>
  40:	f7 01       	movw	r30, r14
  42:	62 81       	ldd	r22, Z+2	; 0x02
  44:	a8 01       	movw	r20, r16
  46:	70 e0       	ldi	r23, 0x00	; 0
  48:	80 e0       	ldi	r24, 0x00	; 0
  4a:	90 e0       	ldi	r25, 0x00	; 0
  4c:	0e 94 00 00 	call	0	; 0x0 <_ZN15WireInputStream9availableEv>
  50:	cc 0d       	add	r28, r12
  52:	dd 1d       	adc	r29, r13
  54:	e1 2c       	mov	r14, r1
  56:	f1 2c       	mov	r15, r1
  58:	00 c0       	rjmp	.+0      	; 0x5a <_ZN15WireInputStream4readEPhii+0x52>
  5a:	80 e0       	ldi	r24, 0x00	; 0
  5c:	90 e0       	ldi	r25, 0x00	; 0
  5e:	0e 94 00 00 	call	0	; 0x0 <_ZN15WireInputStream9availableEv>
  62:	89 2b       	or	r24, r25
  64:	01 f0       	breq	.+0      	; 0x66 <_ZN15WireInputStream4readEPhii+0x5e>
  66:	80 e0       	ldi	r24, 0x00	; 0
  68:	90 e0       	ldi	r25, 0x00	; 0
  6a:	0e 94 00 00 	call	0	; 0x0 <_ZN15WireInputStream9availableEv>
  6e:	89 93       	st	Y+, r24
  70:	ff ef       	ldi	r31, 0xFF	; 255
  72:	ef 1a       	sub	r14, r31
  74:	ff 0a       	sbc	r15, r31
  76:	e0 16       	cp	r14, r16
  78:	f1 06       	cpc	r15, r17
  7a:	04 f0       	brlt	.+0      	; 0x7c <_ZN15WireInputStream4readEPhii+0x74>
  7c:	98 01       	movw	r18, r16
  7e:	17 ff       	sbrs	r17, 7
  80:	00 c0       	rjmp	.+0      	; 0x82 <_ZN15WireInputStream4readEPhii+0x7a>
  82:	20 e0       	ldi	r18, 0x00	; 0
  84:	30 e0       	ldi	r19, 0x00	; 0
  86:	c9 01       	movw	r24, r18
  88:	df 91       	pop	r29
  8a:	cf 91       	pop	r28
  8c:	1f 91       	pop	r17
  8e:	0f 91       	pop	r16
  90:	ff 90       	pop	r15
  92:	ef 90       	pop	r14
  94:	df 90       	pop	r13
  96:	cf 90       	pop	r12
  98:	08 95       	ret

0000009a <_ZN15WireInputStream4readEv>:
  9a:	cf 93       	push	r28
  9c:	df 93       	push	r29
  9e:	ec 01       	movw	r28, r24
  a0:	6a 81       	ldd	r22, Y+2	; 0x02
  a2:	80 e0       	ldi	r24, 0x00	; 0
  a4:	90 e0       	ldi	r25, 0x00	; 0
  a6:	0e 94 00 00 	call	0	; 0x0 <_ZN15WireInputStream9availableEv>
  aa:	6a 81       	ldd	r22, Y+2	; 0x02
  ac:	80 e0       	ldi	r24, 0x00	; 0
  ae:	90 e0       	ldi	r25, 0x00	; 0
  b0:	0e 94 00 00 	call	0	; 0x0 <_ZN15WireInputStream9availableEv>
  b4:	80 e0       	ldi	r24, 0x00	; 0
  b6:	90 e0       	ldi	r25, 0x00	; 0
  b8:	0e 94 00 00 	call	0	; 0x0 <_ZN15WireInputStream9availableEv>
  bc:	6a 81       	ldd	r22, Y+2	; 0x02
  be:	41 e0       	ldi	r20, 0x01	; 1
  c0:	50 e0       	ldi	r21, 0x00	; 0
  c2:	70 e0       	ldi	r23, 0x00	; 0
  c4:	80 e0       	ldi	r24, 0x00	; 0
  c6:	90 e0       	ldi	r25, 0x00	; 0
  c8:	0e 94 00 00 	call	0	; 0x0 <_ZN15WireInputStream9availableEv>
  cc:	80 e0       	ldi	r24, 0x00	; 0
  ce:	90 e0       	ldi	r25, 0x00	; 0
  d0:	0e 94 00 00 	call	0	; 0x0 <_ZN15WireInputStream9availableEv>
  d4:	89 2b       	or	r24, r25
  d6:	01 f0       	breq	.+0      	; 0xd8 <_ZN15WireInputStream4readEv+0x3e>
  d8:	80 e0       	ldi	r24, 0x00	; 0
  da:	90 e0       	ldi	r25, 0x00	; 0
  dc:	df 91       	pop	r29
  de:	cf 91       	pop	r28
  e0:	0c 94 00 00 	jmp	0	; 0x0 <_ZN15WireInputStream9availableEv>

000000e4 <_ZN15WireInputStreamC1Eh>:
  e4:	20 e0       	ldi	r18, 0x00	; 0
  e6:	30 e0       	ldi	r19, 0x00	; 0
  e8:	fc 01       	movw	r30, r24
  ea:	31 83       	std	Z+1, r19	; 0x01
  ec:	20 83       	st	Z, r18
  ee:	62 83       	std	Z+2, r22	; 0x02
  f0:	80 e0       	ldi	r24, 0x00	; 0
  f2:	90 e0       	ldi	r25, 0x00	; 0
  f4:	0c 94 00 00 	jmp	0	; 0x0 <_ZN15WireInputStream9availableEv>

SoftwareSerialOutputStream.o:     file format elf32-avr

Sections:
Idx Name          Size      VMA       LMA       File off  Algn
  0 .group        00000008  00000000  00000000  00000034  2**2
                  CONTENTS, READONLY, EXCLUDE, GROUP, LINK_ONCE_DISCARD
  1 .group        00000008  00000000  00000000  0000003c  2**2
                  CONTENTS, READONLY, EXCLUDE, GROUP, LINK_ONCE_DISCARD
  2 .group        00000008  00000000  00000000  00000044  2**2
                  CONTENTS, READONLY, EXCLUDE, GROUP, LINK_ONCE_DISCARD
  3 .text         00000030  00000000  00000000  0000004c  2**0
                  CONTENTS, ALLOC, LOAD, RELOC, READONLY, CODE
  4 .data         00000000  00000000  00000000  0000007c  2**0
                  CONTENTS, ALLOC, LOAD, DATA
  5 .bss          00000000  00000000  00000000  0000007c  2**0
                  ALLOC
  6 .rodata._ZTV26SoftwareSerialOutputStream 0000000e  00000000  00000000  0000007c  2**0
                  CONTENTS, ALLOC, LOAD, RELOC, READONLY, DATA
  7 .rodata._ZTV9Closeable 00000006  00000000  00000000  0000008a  2**0
                  CONTENTS, ALLOC, LOAD, RELOC, READONLY, DATA
  8 .rodata._ZTV18SerialOutputStream 0000000e  00000000  00000000  00000090  2**0
                  CONTENTS, ALLOC, LOAD, RELOC, READONLY, DATA
  9 .comment      00000012  00000000  00000000  0000009e  2**0
                  CONTENTS, READONLY

Disassembly of section .text:

00000000 <_ZN26SoftwareSerialOutputStream5writeEh>:
   0:	dc 01       	movw	r26, r24
   2:	12 96       	adiw	r26, 0x02	; 2
   4:	8d 91       	ld	r24, X+
   6:	9c 91       	ld	r25, X
   8:	13 97       	sbiw	r26, 0x03	; 3
   a:	dc 01       	movw	r26, r24
   c:	ed 91       	ld	r30, X+
   e:	fc 91       	ld	r31, X
  10:	01 90       	ld	r0, Z+
  12:	f0 81       	ld	r31, Z
  14:	e0 2d       	mov	r30, r0
  16:	09 94       	ijmp

00000018 <_ZN26SoftwareSerialOutputStreamC1EP14SoftwareSerialj>:
  18:	fc 01       	movw	r30, r24
  1a:	cb 01       	movw	r24, r22
  1c:	20 e0       	ldi	r18, 0x00	; 0
  1e:	30 e0       	ldi	r19, 0x00	; 0
  20:	31 83       	std	Z+1, r19	; 0x01
  22:	20 83       	st	Z, r18
  24:	73 83       	std	Z+3, r23	; 0x03
  26:	62 83       	std	Z+2, r22	; 0x02
  28:	60 e0       	ldi	r22, 0x00	; 0
  2a:	70 e0       	ldi	r23, 0x00	; 0
  2c:	0c 94 00 00 	jmp	0	; 0x0 <_ZN26SoftwareSerialOutputStream5writeEh>

SoftwareSerialInputStream.o:     file format elf32-avr

Sections:
Idx Name          Size      VMA       LMA       File off  Algn
  0 .group        00000008  00000000  00000000  00000034  2**2
                  CONTENTS, READONLY, EXCLUDE, GROUP, LINK_ONCE_DISCARD
  1 .group        00000008  00000000  00000000  0000003c  2**2
                  CONTENTS, READONLY, EXCLUDE, GROUP, LINK_ONCE_DISCARD
  2 .group        00000008  00000000  00000000  00000044  2**2
                  CONTENTS, READONLY, EXCLUDE, GROUP, LINK_ONCE_DISCARD
  3 .text         00000048  00000000  00000000  0000004c  2**0
                  CONTENTS, ALLOC, LOAD, RELOC, READONLY, CODE
  4 .data         00000000  00000000  00000000  00000094  2**0
                  CONTENTS, ALLOC, LOAD, DATA
  5 .bss          00000000  00000000  00000000  00000094  2**0
                  ALLOC
  6 .rodata._ZTV25SoftwareSerialInputStream 00000016  00000000  00000000  00000094  2**0
                  CONTENTS, ALLOC, LOAD, RELOC, READONLY, DATA
  7 .rodata._ZTV9Closeable 00000006  00000000  00000000  000000aa  2**0
                  CONTENTS, ALLOC, LOAD, RELOC, READONLY, DATA
  8 .rodata._ZTV17SerialInputStream 00000016  00000000  00000000  000000b0  2**0
                  CONTENTS, ALLOC, LOAD, RELOC, READONLY, DATA
  9 .comment      00000012  00000000  00000000  000000c6  2**0
                  CONTENTS, READONLY

Disassembly of section .text:

00000000 <_ZN25SoftwareSerialInputStream9availableEv>:
   0:	dc 01       	movw	r26, r24
   2:	12 96       	adiw	r26, 0x02	; 2
   4:	8d 91       	ld	r24, X+
   6:	9c 91       	ld	r25, X
   8:	13 97       	sbiw	r26, 0x03	; 3
   a:	dc 01       	movw	r26, r24
   c:	ed 91       	ld	r30, X+
   e:	fc 91       	ld	r31, X
  10:	04 80       	ldd	r0, Z+4	; 0x04
  12:	f5 81       	ldd	r31, Z+5	; 0x05
  14:	e0 2d       	mov	r30, r0
  16:	09 94       	ijmp

00000018 <_ZN25SoftwareSerialInputStream4readEv>:
  18:	dc 01       	movw	r26, r24
  1a:	12 96       	adiw	r26, 0x02	; 2
  1c:	8d 91       	ld	r24, X+
  1e:	9c 91       	ld	r25, X
  20:	13 97       	sbiw	r26, 0x03	; 3
  22:	dc 01       	movw	r26, r24
  24:	ed 91       	ld	r30, X+
  26:	fc 91       	ld	r31, X
  28:	06 80       	ldd	r0, Z+6	; 0x06
  2a:	f7 81       	ldd	r31, Z+7	; 0x07
  2c:	e0 2d       	mov	r30, r0
  2e:	09 94       	ijmp

00000030 <_ZN25SoftwareSerialInputStreamC1EP14SoftwareSerialj>:
  30:	fc 01       	movw	r30, r24
  32:	cb 01       	movw	r24, r22
  34:	20 e0       	ldi	r18, 0x00	; 0
  36:	30 e0       	ldi	r19, 0x00	; 0
  38:	31 83       	std	Z+1, r19	; 0x01
  3a:	20 83       	st	Z, r18
  3c:	73 83       	std	Z+3, r23	; 0x03
  3e:	62 83       	std	Z+2, r22	; 0x02
  40:	60 e0       	ldi	r22, 0x00	; 0
  42:	70 e0       	ldi	r23, 0x00	; 0
  44:	0c 94 00 00 	jmp	0	; 0x0 <_ZN25SoftwareSerialInputStream9availableEv>

SerialOutputStream.o:     file format elf32-avr

Sections:
Idx Name          Size      VMA       LMA       File off  Algn
  0 .text         00000000  00000000  00000000  00000034  2**0
                  CONTENTS, ALLOC, LOAD, READONLY, CODE
  1 .data         00000000  00000000  00000000  00000034  2**0
                  CONTENTS, ALLOC, LOAD, DATA
  2 .bss          00000000  00000000  00000000  00000034  2**0
                  ALLOC
  3 .comment      00000012  00000000  00000000  00000034  2**0
                  CONTENTS, READONLY

SerialInputStream.o:     file format elf32-avr

Sections:
Idx Name          Size      VMA       LMA       File off  Algn
  0 .text         00000000  00000000  00000000  00000034  2**0
                  CONTENTS, ALLOC, LOAD, READONLY, CODE
  1 .data         00000000  00000000  00000000  00000034  2**0
                  CONTENTS, ALLOC, LOAD, DATA
  2 .bss          00000000  00000000  00000000  00000034  2**0
                  ALLOC
  3 .comment      00000012  00000000  00000000  00000034  2**0
                  CONTENTS, READONLY

SeekableInputStream.o:     file format elf32-avr

Sections:
Idx Name          Size      VMA       LMA       File off  Algn
  0 .text         00000000  00000000  00000000  00000034  2**0
                  CONTENTS, ALLOC, LOAD, READONLY, CODE
  1 .data         00000000  00000000  00000000  00000034  2**0
                  CONTENTS, ALLOC, LOAD, DATA
  2 .bss          00000000  00000000  00000000  00000034  2**0
                  ALLOC
  3 .comment      00000012  00000000  00000000  00000034  2**0
                  CONTENTS, READONLY

Seekable.o:     file format elf32-avr

Sections:
Idx Name          Size      VMA       LMA       File off  Algn
  0 .text         00000000  00000000  00000000  00000034  2**0
                  CONTENTS, ALLOC, LOAD, READONLY, CODE
  1 .data         00000000  00000000  00000000  00000034  2**0
                  CONTENTS, ALLOC, LOAD, DATA
  2 .bss          00000000  00000000  00000000  00000034  2**0
                  ALLOC
  3 .comment      00000012  00000000  00000000  00000034  2**0
                  CONTENTS, READONLY

ResourceSeekableInputStream.o:     file format elf32-avr

Sections:
Idx Name          Size      VMA       LMA       File off  Algn
  0 .text         00000000  00000000  00000000  00000034  2**0
                  CONTENTS, ALLOC, LOAD, READONLY, CODE
  1 .data         00000000  00000000  00000000  00000034  2**0
                  CONTENTS, ALLOC, LOAD, DATA
  2 .bss          00000000  00000000  00000000  00000034  2**0
                  ALLOC
  3 .comment      00000012  00000000  00000000  00000034  2**0
                  CONTENTS, READONLY

ResourceOutputStream.o:     file format elf32-avr

Sections:
Idx Name          Size      VMA       LMA       File off  Algn
  0 .text         00000000  00000000  00000000  00000034  2**0
                  CONTENTS, ALLOC, LOAD, READONLY, CODE
  1 .data         00000000  00000000  00000000  00000034  2**0
                  CONTENTS, ALLOC, LOAD, DATA
  2 .bss          00000000  00000000  00000000  00000034  2**0
                  ALLOC
  3 .comment      00000012  00000000  00000000  00000034  2**0
                  CONTENTS, READONLY

ResourceInputStream.o:     file format elf32-avr

Sections:
Idx Name          Size      VMA       LMA       File off  Algn
  0 .text         00000000  00000000  00000000  00000034  2**0
                  CONTENTS, ALLOC, LOAD, READONLY, CODE
  1 .data         00000000  00000000  00000000  00000034  2**0
                  CONTENTS, ALLOC, LOAD, DATA
  2 .bss          00000000  00000000  00000000  00000034  2**0
                  ALLOC
  3 .comment      00000012  00000000  00000000  00000034  2**0
                  CONTENTS, READONLY

RandomAccessResource.o:     file format elf32-avr

Sections:
Idx Name          Size      VMA       LMA       File off  Algn
  0 .text         00000000  00000000  00000000  00000034  2**0
                  CONTENTS, ALLOC, LOAD, READONLY, CODE
  1 .data         00000000  00000000  00000000  00000034  2**0
                  CONTENTS, ALLOC, LOAD, DATA
  2 .bss          00000000  00000000  00000000  00000034  2**0
                  ALLOC
  3 .comment      00000012  00000000  00000000  00000034  2**0
                  CONTENTS, READONLY

RandomAccessExternalEeprom.o:     file format elf32-avr

Sections:
Idx Name          Size      VMA       LMA       File off  Algn
  0 .group        00000008  00000000  00000000  00000034  2**2
                  CONTENTS, READONLY, EXCLUDE, GROUP, LINK_ONCE_DISCARD
  1 .group        00000010  00000000  00000000  0000003c  2**2
                  CONTENTS, READONLY, EXCLUDE, GROUP, LINK_ONCE_DISCARD
  2 .group        00000008  00000000  00000000  0000004c  2**2
                  CONTENTS, READONLY, EXCLUDE, GROUP, LINK_ONCE_DISCARD
  3 .group        00000008  00000000  00000000  00000054  2**2
                  CONTENTS, READONLY, EXCLUDE, GROUP, LINK_ONCE_DISCARD
  4 .group        00000008  00000000  00000000  0000005c  2**2
                  CONTENTS, READONLY, EXCLUDE, GROUP, LINK_ONCE_DISCARD
  5 .group        00000008  00000000  00000000  00000064  2**2
                  CONTENTS, READONLY, EXCLUDE, GROUP, LINK_ONCE_DISCARD
  6 .text         00000986  00000000  00000000  0000006c  2**0
                  CONTENTS, ALLOC, LOAD, RELOC, READONLY, CODE
  7 .data         00000000  00000000  00000000  000009f2  2**0
                  CONTENTS, ALLOC, LOAD, DATA
  8 .bss          00000000  00000000  00000000  000009f2  2**0
                  ALLOC
  9 .text._ZN12RandomAccessC2Ev 0000006c  00000000  00000000  000009f2  2**0
                  CONTENTS, ALLOC, LOAD, READONLY, CODE
 10 .rodata._ZTC26RandomAccessExternalEeprom0_12RandomAccess 0000008c  00000000  00000000  00000a5e  2**0
                  CONTENTS, ALLOC, LOAD, RELOC, READONLY, DATA
 11 .rodata._ZTT26RandomAccessExternalEeprom 00000014  00000000  00000000  00000aea  2**0
                  CONTENTS, ALLOC, LOAD, RELOC, READONLY, DATA
 12 .rodata._ZTV26RandomAccessExternalEeprom 000000aa  00000000  00000000  00000afe  2**0
                  CONTENTS, ALLOC, LOAD, RELOC, READONLY, DATA
 13 .rodata._ZTV10DataOutput 00000020  00000000  00000000  00000ba8  2**0
                  CONTENTS, ALLOC, LOAD, RELOC, READONLY, DATA
 14 .rodata._ZTV9DataInput 0000001e  00000000  00000000  00000bc8  2**0
                  CONTENTS, ALLOC, LOAD, RELOC, READONLY, DATA
 15 .rodata._ZTV9Closeable 00000006  00000000  00000000  00000be6  2**0
                  CONTENTS, ALLOC, LOAD, RELOC, READONLY, DATA
 16 .rodata._ZTV8Seekable 00000006  00000000  00000000  00000bec  2**0
                  CONTENTS, ALLOC, LOAD, RELOC, READONLY, DATA
 17 .comment      00000012  00000000  00000000  00000bf2  2**0
                  CONTENTS, READONLY

Disassembly of section .text:

00000000 <_ZN26RandomAccessExternalEeprom4seekEj>:
   0:	fc 01       	movw	r30, r24
   2:	75 83       	std	Z+5, r23	; 0x05
   4:	64 83       	std	Z+4, r22	; 0x04
   6:	08 95       	ret

00000008 <_ZN26RandomAccessExternalEeprom5closeEv>:
   8:	08 95       	ret

0000000a <_ZN26RandomAccessExternalEeprom5writeEPhi>:
   a:	dc 01       	movw	r26, r24
   c:	ed 91       	ld	r30, X+
   e:	fc 91       	ld	r31, X
  10:	06 80       	ldd	r0, Z+6	; 0x06
  12:	f7 81       	ldd	r31, Z+7	; 0x07
  14:	e0 2d       	mov	r30, r0
  16:	09 94       	ijmp

00000018 <_ZN26RandomAccessExternalEeprom5writeEh>:
  18:	dc 01       	movw	r26, r24
  1a:	ed 91       	ld	r30, X+
  1c:	fc 91       	ld	r31, X
  1e:	04 80       	ldd	r0, Z+4	; 0x04
  20:	f5 81       	ldd	r31, Z+5	; 0x05
  22:	e0 2d       	mov	r30, r0
  24:	09 94       	ijmp

00000026 <_ZN26RandomAccessExternalEeprom9writeByteEh>:
  26:	cf 93       	push	r28
  28:	df 93       	push	r29
  2a:	dc 01       	movw	r26, r24
  2c:	46 2f       	mov	r20, r22
  2e:	12 96       	adiw	r26, 0x02	; 2
  30:	8d 91       	ld	r24, X+
  32:	9c 91       	ld	r25, X
  34:	13 97       	sbiw	r26, 0x03	; 3
  36:	ec 01       	movw	r28, r24
  38:	e8 81       	ld	r30, Y
  3a:	f9 81       	ldd	r31, Y+1	; 0x01
  3c:	01 90       	ld	r0, Z+
  3e:	f0 81       	ld	r31, Z
  40:	e0 2d       	mov	r30, r0
  42:	14 96       	adiw	r26, 0x04	; 4
  44:	6d 91       	ld	r22, X+
  46:	7c 91       	ld	r23, X
  48:	15 97       	sbiw	r26, 0x05	; 5
  4a:	eb 01       	movw	r28, r22
  4c:	21 96       	adiw	r28, 0x01	; 1
  4e:	15 96       	adiw	r26, 0x05	; 5
  50:	dc 93       	st	X, r29
  52:	ce 93       	st	-X, r28
  54:	14 97       	sbiw	r26, 0x04	; 4
  56:	df 91       	pop	r29
  58:	cf 91       	pop	r28
  5a:	09 94       	ijmp

0000005c <_ZN26RandomAccessExternalEeprom10writeBytesEPhi>:
  5c:	cf 92       	push	r12
  5e:	df 92       	push	r13
  60:	ef 92       	push	r14
  62:	ff 92       	push	r15
  64:	0f 93       	push	r16
  66:	1f 93       	push	r17
  68:	cf 93       	push	r28
  6a:	df 93       	push	r29
  6c:	8c 01       	movw	r16, r24
  6e:	6a 01       	movw	r12, r20
  70:	eb 01       	movw	r28, r22
  72:	7b 01       	movw	r14, r22
  74:	00 c0       	rjmp	.+0      	; 0x76 <_ZN26RandomAccessExternalEeprom10writeBytesEPhi+0x1a>
  76:	d8 01       	movw	r26, r16
  78:	12 96       	adiw	r26, 0x02	; 2
  7a:	8d 91       	ld	r24, X+
  7c:	9c 91       	ld	r25, X
  7e:	13 97       	sbiw	r26, 0x03	; 3
  80:	dc 01       	movw	r26, r24
  82:	ed 91       	ld	r30, X+
  84:	fc 91       	ld	r31, X
  86:	01 90       	ld	r0, Z+
  88:	f0 81       	ld	r31, Z
  8a:	e0 2d       	mov	r30, r0
  8c:	d7 01       	movw	r26, r14
  8e:	4d 91       	ld	r20, X+
  90:	7d 01       	movw	r14, r26
  92:	d8 01       	movw	r26, r16
  94:	14 96       	adiw	r26, 0x04	; 4
  96:	6d 91       	ld	r22, X+
  98:	7c 91       	ld	r23, X
  9a:	15 97       	sbiw	r26, 0x05	; 5
  9c:	9b 01       	movw	r18, r22
  9e:	2f 5f       	subi	r18, 0xFF	; 255
  a0:	3f 4f       	sbci	r19, 0xFF	; 255
  a2:	15 96       	adiw	r26, 0x05	; 5
  a4:	3c 93       	st	X, r19
  a6:	2e 93       	st	-X, r18
  a8:	14 97       	sbiw	r26, 0x04	; 4
  aa:	09 95       	icall
  ac:	c7 01       	movw	r24, r14
  ae:	8c 1b       	sub	r24, r28
  b0:	9d 0b       	sbc	r25, r29
  b2:	8c 15       	cp	r24, r12
  b4:	9d 05       	cpc	r25, r13
  b6:	04 f0       	brlt	.+0      	; 0xb8 <_ZN26RandomAccessExternalEeprom10writeBytesEPhi+0x5c>
  b8:	df 91       	pop	r29
  ba:	cf 91       	pop	r28
  bc:	1f 91       	pop	r17
  be:	0f 91       	pop	r16
  c0:	ff 90       	pop	r15
  c2:	ef 90       	pop	r14
  c4:	df 90       	pop	r13
  c6:	cf 90       	pop	r12
  c8:	08 95       	ret

000000ca <_ZN26RandomAccessExternalEeprom12writeBooleanEb>:
  ca:	cf 93       	push	r28
  cc:	df 93       	push	r29
  ce:	dc 01       	movw	r26, r24
  d0:	46 2f       	mov	r20, r22
  d2:	12 96       	adiw	r26, 0x02	; 2
  d4:	8d 91       	ld	r24, X+
  d6:	9c 91       	ld	r25, X
  d8:	13 97       	sbiw	r26, 0x03	; 3
  da:	ec 01       	movw	r28, r24
  dc:	e8 81       	ld	r30, Y
  de:	f9 81       	ldd	r31, Y+1	; 0x01
  e0:	01 90       	ld	r0, Z+
  e2:	f0 81       	ld	r31, Z
  e4:	e0 2d       	mov	r30, r0
  e6:	14 96       	adiw	r26, 0x04	; 4
  e8:	6d 91       	ld	r22, X+
  ea:	7c 91       	ld	r23, X
  ec:	15 97       	sbiw	r26, 0x05	; 5
  ee:	eb 01       	movw	r28, r22
  f0:	21 96       	adiw	r28, 0x01	; 1
  f2:	15 96       	adiw	r26, 0x05	; 5
  f4:	dc 93       	st	X, r29
  f6:	ce 93       	st	-X, r28
  f8:	14 97       	sbiw	r26, 0x04	; 4
  fa:	df 91       	pop	r29
  fc:	cf 91       	pop	r28
  fe:	09 94       	ijmp

00000100 <_ZN26RandomAccessExternalEeprom9writeCharEc>:
 100:	cf 93       	push	r28
 102:	df 93       	push	r29
 104:	dc 01       	movw	r26, r24
 106:	46 2f       	mov	r20, r22
 108:	12 96       	adiw	r26, 0x02	; 2
 10a:	8d 91       	ld	r24, X+
 10c:	9c 91       	ld	r25, X
 10e:	13 97       	sbiw	r26, 0x03	; 3
 110:	ec 01       	movw	r28, r24
 112:	e8 81       	ld	r30, Y
 114:	f9 81       	ldd	r31, Y+1	; 0x01
 116:	01 90       	ld	r0, Z+
 118:	f0 81       	ld	r31, Z
 11a:	e0 2d       	mov	r30, r0
 11c:	14 96       	adiw	r26, 0x04	; 4
 11e:	6d 91       	ld	r22, X+
 120:	7c 91       	ld	r23, X
 122:	15 97       	sbiw	r26, 0x05	; 5
 124:	eb 01       	movw	r28, r22
 126:	21 96       	adiw	r28, 0x01	; 1
 128:	15 96       	adiw	r26, 0x05	; 5
 12a:	dc 93       	st	X, r29
 12c:	ce 93       	st	-X, r28
 12e:	14 97       	sbiw	r26, 0x04	; 4
 130:	df 91       	pop	r29
 132:	cf 91       	pop	r28
 134:	09 94       	ijmp

00000136 <_ZN26RandomAccessExternalEeprom17writeUnsignedCharEh>:
 136:	cf 93       	push	r28
 138:	df 93       	push	r29
 13a:	dc 01       	movw	r26, r24
 13c:	46 2f       	mov	r20, r22
 13e:	12 96       	adiw	r26, 0x02	; 2
 140:	8d 91       	ld	r24, X+
 142:	9c 91       	ld	r25, X
 144:	13 97       	sbiw	r26, 0x03	; 3
 146:	ec 01       	movw	r28, r24
 148:	e8 81       	ld	r30, Y
 14a:	f9 81       	ldd	r31, Y+1	; 0x01
 14c:	01 90       	ld	r0, Z+
 14e:	f0 81       	ld	r31, Z
 150:	e0 2d       	mov	r30, r0
 152:	14 96       	adiw	r26, 0x04	; 4
 154:	6d 91       	ld	r22, X+
 156:	7c 91       	ld	r23, X
 158:	15 97       	sbiw	r26, 0x05	; 5
 15a:	eb 01       	movw	r28, r22
 15c:	21 96       	adiw	r28, 0x01	; 1
 15e:	15 96       	adiw	r26, 0x05	; 5
 160:	dc 93       	st	X, r29
 162:	ce 93       	st	-X, r28
 164:	14 97       	sbiw	r26, 0x04	; 4
 166:	df 91       	pop	r29
 168:	cf 91       	pop	r28
 16a:	09 94       	ijmp

0000016c <_ZN26RandomAccessExternalEeprom8writeIntEi>:
 16c:	1f 93       	push	r17
 16e:	cf 93       	push	r28
 170:	df 93       	push	r29
 172:	ec 01       	movw	r28, r24
 174:	16 2f       	mov	r17, r22
 176:	47 2f       	mov	r20, r23
 178:	8a 81       	ldd	r24, Y+2	; 0x02
 17a:	9b 81       	ldd	r25, Y+3	; 0x03
 17c:	dc 01       	movw	r26, r24
 17e:	ed 91       	ld	r30, X+
 180:	fc 91       	ld	r31, X
 182:	01 90       	ld	r0, Z+
 184:	f0 81       	ld	r31, Z
 186:	e0 2d       	mov	r30, r0
 188:	6c 81       	ldd	r22, Y+4	; 0x04
 18a:	7d 81       	ldd	r23, Y+5	; 0x05
 18c:	db 01       	movw	r26, r22
 18e:	11 96       	adiw	r26, 0x01	; 1
 190:	bd 83       	std	Y+5, r27	; 0x05
 192:	ac 83       	std	Y+4, r26	; 0x04
 194:	09 95       	icall
 196:	8a 81       	ldd	r24, Y+2	; 0x02
 198:	9b 81       	ldd	r25, Y+3	; 0x03
 19a:	dc 01       	movw	r26, r24
 19c:	ed 91       	ld	r30, X+
 19e:	fc 91       	ld	r31, X
 1a0:	01 90       	ld	r0, Z+
 1a2:	f0 81       	ld	r31, Z
 1a4:	e0 2d       	mov	r30, r0
 1a6:	6c 81       	ldd	r22, Y+4	; 0x04
 1a8:	7d 81       	ldd	r23, Y+5	; 0x05
 1aa:	db 01       	movw	r26, r22
 1ac:	11 96       	adiw	r26, 0x01	; 1
 1ae:	bd 83       	std	Y+5, r27	; 0x05
 1b0:	ac 83       	std	Y+4, r26	; 0x04
 1b2:	41 2f       	mov	r20, r17
 1b4:	df 91       	pop	r29
 1b6:	cf 91       	pop	r28
 1b8:	1f 91       	pop	r17
 1ba:	09 94       	ijmp

000001bc <_ZN26RandomAccessExternalEeprom16writeUnsignedIntEj>:
 1bc:	dc 01       	movw	r26, r24
 1be:	ed 91       	ld	r30, X+
 1c0:	fc 91       	ld	r31, X
 1c2:	06 84       	ldd	r0, Z+14	; 0x0e
 1c4:	f7 85       	ldd	r31, Z+15	; 0x0f
 1c6:	e0 2d       	mov	r30, r0
 1c8:	09 94       	ijmp

000001ca <_ZN26RandomAccessExternalEeprom9writeWordEj>:
 1ca:	dc 01       	movw	r26, r24
 1cc:	ed 91       	ld	r30, X+
 1ce:	fc 91       	ld	r31, X
 1d0:	06 84       	ldd	r0, Z+14	; 0x0e
 1d2:	f7 85       	ldd	r31, Z+15	; 0x0f
 1d4:	e0 2d       	mov	r30, r0
 1d6:	09 94       	ijmp

000001d8 <_ZN26RandomAccessExternalEeprom9writeLongEl>:
 1d8:	cf 92       	push	r12
 1da:	df 92       	push	r13
 1dc:	ef 92       	push	r14
 1de:	ff 92       	push	r15
 1e0:	cf 93       	push	r28
 1e2:	df 93       	push	r29
 1e4:	ec 01       	movw	r28, r24
 1e6:	6a 01       	movw	r12, r20
 1e8:	7b 01       	movw	r14, r22
 1ea:	8a 81       	ldd	r24, Y+2	; 0x02
 1ec:	9b 81       	ldd	r25, Y+3	; 0x03
 1ee:	dc 01       	movw	r26, r24
 1f0:	ed 91       	ld	r30, X+
 1f2:	fc 91       	ld	r31, X
 1f4:	01 90       	ld	r0, Z+
 1f6:	f0 81       	ld	r31, Z
 1f8:	e0 2d       	mov	r30, r0
 1fa:	2c 81       	ldd	r18, Y+4	; 0x04
 1fc:	3d 81       	ldd	r19, Y+5	; 0x05
 1fe:	a9 01       	movw	r20, r18
 200:	4f 5f       	subi	r20, 0xFF	; 255
 202:	5f 4f       	sbci	r21, 0xFF	; 255
 204:	5d 83       	std	Y+5, r21	; 0x05
 206:	4c 83       	std	Y+4, r20	; 0x04
 208:	4f 2d       	mov	r20, r15
 20a:	55 27       	eor	r21, r21
 20c:	66 27       	eor	r22, r22
 20e:	77 27       	eor	r23, r23
 210:	b9 01       	movw	r22, r18
 212:	09 95       	icall
 214:	8a 81       	ldd	r24, Y+2	; 0x02
 216:	9b 81       	ldd	r25, Y+3	; 0x03
 218:	dc 01       	movw	r26, r24
 21a:	ed 91       	ld	r30, X+
 21c:	fc 91       	ld	r31, X
 21e:	01 90       	ld	r0, Z+
 220:	f0 81       	ld	r31, Z
 222:	e0 2d       	mov	r30, r0
 224:	2c 81       	ldd	r18, Y+4	; 0x04
 226:	3d 81       	ldd	r19, Y+5	; 0x05
 228:	a9 01       	movw	r20, r18
 22a:	4f 5f       	subi	r20, 0xFF	; 255
 22c:	5f 4f       	sbci	r21, 0xFF	; 255
 22e:	5d 83       	std	Y+5, r21	; 0x05
 230:	4c 83       	std	Y+4, r20	; 0x04
 232:	a7 01       	movw	r20, r14
 234:	77 27       	eor	r23, r23
 236:	57 fd       	sbrc	r21, 7
 238:	70 95       	com	r23
 23a:	67 2f       	mov	r22, r23
 23c:	b9 01       	movw	r22, r18
 23e:	09 95       	icall
 240:	8a 81       	ldd	r24, Y+2	; 0x02
 242:	9b 81       	ldd	r25, Y+3	; 0x03
 244:	dc 01       	movw	r26, r24
 246:	ed 91       	ld	r30, X+
 248:	fc 91       	ld	r31, X
 24a:	01 90       	ld	r0, Z+
 24c:	f0 81       	ld	r31, Z
 24e:	e0 2d       	mov	r30, r0
 250:	2c 81       	ldd	r18, Y+4	; 0x04
 252:	3d 81       	ldd	r19, Y+5	; 0x05
 254:	a9 01       	movw	r20, r18
 256:	4f 5f       	subi	r20, 0xFF	; 255
 258:	5f 4f       	sbci	r21, 0xFF	; 255
 25a:	5d 83       	std	Y+5, r21	; 0x05
 25c:	4c 83       	std	Y+4, r20	; 0x04
 25e:	77 27       	eor	r23, r23
 260:	f7 fc       	sbrc	r15, 7
 262:	7a 95       	dec	r23
 264:	6f 2d       	mov	r22, r15
 266:	5e 2d       	mov	r21, r14
 268:	4d 2d       	mov	r20, r13
 26a:	b9 01       	movw	r22, r18
 26c:	09 95       	icall
 26e:	8a 81       	ldd	r24, Y+2	; 0x02
 270:	9b 81       	ldd	r25, Y+3	; 0x03
 272:	dc 01       	movw	r26, r24
 274:	ed 91       	ld	r30, X+
 276:	fc 91       	ld	r31, X
 278:	01 90       	ld	r0, Z+
 27a:	f0 81       	ld	r31, Z
 27c:	e0 2d       	mov	r30, r0
 27e:	6c 81       	ldd	r22, Y+4	; 0x04
 280:	7d 81       	ldd	r23, Y+5	; 0x05
 282:	9b 01       	movw	r18, r22
 284:	2f 5f       	subi	r18, 0xFF	; 255
 286:	3f 4f       	sbci	r19, 0xFF	; 255
 288:	3d 83       	std	Y+5, r19	; 0x05
 28a:	2c 83       	std	Y+4, r18	; 0x04
 28c:	4c 2d       	mov	r20, r12
 28e:	df 91       	pop	r29
 290:	cf 91       	pop	r28
 292:	ff 90       	pop	r15
 294:	ef 90       	pop	r14
 296:	df 90       	pop	r13
 298:	cf 90       	pop	r12
 29a:	09 94       	ijmp

0000029c <_ZN26RandomAccessExternalEeprom17writeUnsignedLongEm>:
 29c:	dc 01       	movw	r26, r24
 29e:	ed 91       	ld	r30, X+
 2a0:	fc 91       	ld	r31, X
 2a2:	04 88       	ldd	r0, Z+20	; 0x14
 2a4:	f5 89       	ldd	r31, Z+21	; 0x15
 2a6:	e0 2d       	mov	r30, r0
 2a8:	09 94       	ijmp

000002aa <_ZN26RandomAccessExternalEeprom10writeFloatEf>:
 2aa:	0f 93       	push	r16
 2ac:	1f 93       	push	r17
 2ae:	cf 93       	push	r28
 2b0:	df 93       	push	r29
 2b2:	ec 01       	movw	r28, r24
 2b4:	08 81       	ld	r16, Y
 2b6:	19 81       	ldd	r17, Y+1	; 0x01
 2b8:	cb 01       	movw	r24, r22
 2ba:	ba 01       	movw	r22, r20
 2bc:	0e 94 00 00 	call	0	; 0x0 <_ZN26RandomAccessExternalEeprom4seekEj>
 2c0:	ab 01       	movw	r20, r22
 2c2:	bc 01       	movw	r22, r24
 2c4:	d8 01       	movw	r26, r16
 2c6:	54 96       	adiw	r26, 0x14	; 20
 2c8:	ed 91       	ld	r30, X+
 2ca:	fc 91       	ld	r31, X
 2cc:	55 97       	sbiw	r26, 0x15	; 21
 2ce:	ce 01       	movw	r24, r28
 2d0:	df 91       	pop	r29
 2d2:	cf 91       	pop	r28
 2d4:	1f 91       	pop	r17
 2d6:	0f 91       	pop	r16
 2d8:	09 94       	ijmp

000002da <_ZN26RandomAccessExternalEeprom11writeDoubleEd>:
 2da:	0f 93       	push	r16
 2dc:	1f 93       	push	r17
 2de:	cf 93       	push	r28
 2e0:	df 93       	push	r29
 2e2:	ec 01       	movw	r28, r24
 2e4:	08 81       	ld	r16, Y
 2e6:	19 81       	ldd	r17, Y+1	; 0x01
 2e8:	cb 01       	movw	r24, r22
 2ea:	ba 01       	movw	r22, r20
 2ec:	0e 94 00 00 	call	0	; 0x0 <_ZN26RandomAccessExternalEeprom4seekEj>
 2f0:	ab 01       	movw	r20, r22
 2f2:	bc 01       	movw	r22, r24
 2f4:	d8 01       	movw	r26, r16
 2f6:	54 96       	adiw	r26, 0x14	; 20
 2f8:	ed 91       	ld	r30, X+
 2fa:	fc 91       	ld	r31, X
 2fc:	55 97       	sbiw	r26, 0x15	; 21
 2fe:	ce 01       	movw	r24, r28
 300:	df 91       	pop	r29
 302:	cf 91       	pop	r28
 304:	1f 91       	pop	r17
 306:	0f 91       	pop	r16
 308:	09 94       	ijmp

0000030a <_ZN26RandomAccessExternalEeprom8readByteEv>:
 30a:	cf 93       	push	r28
 30c:	df 93       	push	r29
 30e:	dc 01       	movw	r26, r24
 310:	12 96       	adiw	r26, 0x02	; 2
 312:	8d 91       	ld	r24, X+
 314:	9c 91       	ld	r25, X
 316:	13 97       	sbiw	r26, 0x03	; 3
 318:	ec 01       	movw	r28, r24
 31a:	e8 81       	ld	r30, Y
 31c:	f9 81       	ldd	r31, Y+1	; 0x01
 31e:	04 80       	ldd	r0, Z+4	; 0x04
 320:	f5 81       	ldd	r31, Z+5	; 0x05
 322:	e0 2d       	mov	r30, r0
 324:	14 96       	adiw	r26, 0x04	; 4
 326:	6d 91       	ld	r22, X+
 328:	7c 91       	ld	r23, X
 32a:	15 97       	sbiw	r26, 0x05	; 5
 32c:	9b 01       	movw	r18, r22
 32e:	2f 5f       	subi	r18, 0xFF	; 255
 330:	3f 4f       	sbci	r19, 0xFF	; 255
 332:	15 96       	adiw	r26, 0x05	; 5
 334:	3c 93       	st	X, r19
 336:	2e 93       	st	-X, r18
 338:	14 97       	sbiw	r26, 0x04	; 4
 33a:	09 95       	icall
 33c:	df 91       	pop	r29
 33e:	cf 91       	pop	r28
 340:	08 95       	ret

00000342 <_ZN26RandomAccessExternalEeprom11readBooleanEv>:
 342:	cf 93       	push	r28
 344:	df 93       	push	r29
 346:	dc 01       	movw	r26, r24
 348:	12 96       	adiw	r26, 0x02	; 2
 34a:	8d 91       	ld	r24, X+
 34c:	9c 91       	ld	r25, X
 34e:	13 97       	sbiw	r26, 0x03	; 3
 350:	ec 01       	movw	r28, r24
 352:	e8 81       	ld	r30, Y
 354:	f9 81       	ldd	r31, Y+1	; 0x01
 356:	04 80       	ldd	r0, Z+4	; 0x04
 358:	f5 81       	ldd	r31, Z+5	; 0x05
 35a:	e0 2d       	mov	r30, r0
 35c:	14 96       	adiw	r26, 0x04	; 4
 35e:	6d 91       	ld	r22, X+
 360:	7c 91       	ld	r23, X
 362:	15 97       	sbiw	r26, 0x05	; 5
 364:	9b 01       	movw	r18, r22
 366:	2f 5f       	subi	r18, 0xFF	; 255
 368:	3f 4f       	sbci	r19, 0xFF	; 255
 36a:	15 96       	adiw	r26, 0x05	; 5
 36c:	3c 93       	st	X, r19
 36e:	2e 93       	st	-X, r18
 370:	14 97       	sbiw	r26, 0x04	; 4
 372:	09 95       	icall
 374:	21 e0       	ldi	r18, 0x01	; 1
 376:	89 2b       	or	r24, r25
 378:	01 f4       	brne	.+0      	; 0x37a <_ZN26RandomAccessExternalEeprom11readBooleanEv+0x38>
 37a:	20 e0       	ldi	r18, 0x00	; 0
 37c:	82 2f       	mov	r24, r18
 37e:	df 91       	pop	r29
 380:	cf 91       	pop	r28
 382:	08 95       	ret

00000384 <_ZN26RandomAccessExternalEeprom8readCharEv>:
 384:	cf 93       	push	r28
 386:	df 93       	push	r29
 388:	dc 01       	movw	r26, r24
 38a:	12 96       	adiw	r26, 0x02	; 2
 38c:	8d 91       	ld	r24, X+
 38e:	9c 91       	ld	r25, X
 390:	13 97       	sbiw	r26, 0x03	; 3
 392:	ec 01       	movw	r28, r24
 394:	e8 81       	ld	r30, Y
 396:	f9 81       	ldd	r31, Y+1	; 0x01
 398:	04 80       	ldd	r0, Z+4	; 0x04
 39a:	f5 81       	ldd	r31, Z+5	; 0x05
 39c:	e0 2d       	mov	r30, r0
 39e:	14 96       	adiw	r26, 0x04	; 4
 3a0:	6d 91       	ld	r22, X+
 3a2:	7c 91       	ld	r23, X
 3a4:	15 97       	sbiw	r26, 0x05	; 5
 3a6:	9b 01       	movw	r18, r22
 3a8:	2f 5f       	subi	r18, 0xFF	; 255
 3aa:	3f 4f       	sbci	r19, 0xFF	; 255
 3ac:	15 96       	adiw	r26, 0x05	; 5
 3ae:	3c 93       	st	X, r19
 3b0:	2e 93       	st	-X, r18
 3b2:	14 97       	sbiw	r26, 0x04	; 4
 3b4:	09 95       	icall
 3b6:	df 91       	pop	r29
 3b8:	cf 91       	pop	r28
 3ba:	08 95       	ret

000003bc <_ZN26RandomAccessExternalEeprom16readUnsignedCharEv>:
 3bc:	cf 93       	push	r28
 3be:	df 93       	push	r29
 3c0:	dc 01       	movw	r26, r24
 3c2:	12 96       	adiw	r26, 0x02	; 2
 3c4:	8d 91       	ld	r24, X+
 3c6:	9c 91       	ld	r25, X
 3c8:	13 97       	sbiw	r26, 0x03	; 3
 3ca:	ec 01       	movw	r28, r24
 3cc:	e8 81       	ld	r30, Y
 3ce:	f9 81       	ldd	r31, Y+1	; 0x01
 3d0:	04 80       	ldd	r0, Z+4	; 0x04
 3d2:	f5 81       	ldd	r31, Z+5	; 0x05
 3d4:	e0 2d       	mov	r30, r0
 3d6:	14 96       	adiw	r26, 0x04	; 4
 3d8:	6d 91       	ld	r22, X+
 3da:	7c 91       	ld	r23, X
 3dc:	15 97       	sbiw	r26, 0x05	; 5
 3de:	9b 01       	movw	r18, r22
 3e0:	2f 5f       	subi	r18, 0xFF	; 255
 3e2:	3f 4f       	sbci	r19, 0xFF	; 255
 3e4:	15 96       	adiw	r26, 0x05	; 5
 3e6:	3c 93       	st	X, r19
 3e8:	2e 93       	st	-X, r18
 3ea:	14 97       	sbiw	r26, 0x04	; 4
 3ec:	09 95       	icall
 3ee:	df 91       	pop	r29
 3f0:	cf 91       	pop	r28
 3f2:	08 95       	ret

000003f4 <_ZN26RandomAccessExternalEeprom7readIntEv>:
 3f4:	0f 93       	push	r16
 3f6:	1f 93       	push	r17
 3f8:	cf 93       	push	r28
 3fa:	df 93       	push	r29
 3fc:	ec 01       	movw	r28, r24
 3fe:	8a 81       	ldd	r24, Y+2	; 0x02
 400:	9b 81       	ldd	r25, Y+3	; 0x03
 402:	dc 01       	movw	r26, r24
 404:	ed 91       	ld	r30, X+
 406:	fc 91       	ld	r31, X
 408:	04 80       	ldd	r0, Z+4	; 0x04
 40a:	f5 81       	ldd	r31, Z+5	; 0x05
 40c:	e0 2d       	mov	r30, r0
 40e:	6c 81       	ldd	r22, Y+4	; 0x04
 410:	7d 81       	ldd	r23, Y+5	; 0x05
 412:	9b 01       	movw	r18, r22
 414:	2f 5f       	subi	r18, 0xFF	; 255
 416:	3f 4f       	sbci	r19, 0xFF	; 255
 418:	3d 83       	std	Y+5, r19	; 0x05
 41a:	2c 83       	std	Y+4, r18	; 0x04
 41c:	09 95       	icall
 41e:	18 2f       	mov	r17, r24
 420:	00 e0       	ldi	r16, 0x00	; 0
 422:	8a 81       	ldd	r24, Y+2	; 0x02
 424:	9b 81       	ldd	r25, Y+3	; 0x03
 426:	dc 01       	movw	r26, r24
 428:	ed 91       	ld	r30, X+
 42a:	fc 91       	ld	r31, X
 42c:	04 80       	ldd	r0, Z+4	; 0x04
 42e:	f5 81       	ldd	r31, Z+5	; 0x05
 430:	e0 2d       	mov	r30, r0
 432:	6c 81       	ldd	r22, Y+4	; 0x04
 434:	7d 81       	ldd	r23, Y+5	; 0x05
 436:	9b 01       	movw	r18, r22
 438:	2f 5f       	subi	r18, 0xFF	; 255
 43a:	3f 4f       	sbci	r19, 0xFF	; 255
 43c:	3d 83       	std	Y+5, r19	; 0x05
 43e:	2c 83       	std	Y+4, r18	; 0x04
 440:	09 95       	icall
 442:	08 2b       	or	r16, r24
 444:	c8 01       	movw	r24, r16
 446:	df 91       	pop	r29
 448:	cf 91       	pop	r28
 44a:	1f 91       	pop	r17
 44c:	0f 91       	pop	r16
 44e:	08 95       	ret

00000450 <_ZN26RandomAccessExternalEeprom15readUnsignedIntEv>:
 450:	dc 01       	movw	r26, r24
 452:	ed 91       	ld	r30, X+
 454:	fc 91       	ld	r31, X
 456:	00 a4       	ldd	r0, Z+40	; 0x28
 458:	f1 a5       	ldd	r31, Z+41	; 0x29
 45a:	e0 2d       	mov	r30, r0
 45c:	09 94       	ijmp

0000045e <_ZN26RandomAccessExternalEeprom8readWordEv>:
 45e:	dc 01       	movw	r26, r24
 460:	ed 91       	ld	r30, X+
 462:	fc 91       	ld	r31, X
 464:	00 a4       	ldd	r0, Z+40	; 0x28
 466:	f1 a5       	ldd	r31, Z+41	; 0x29
 468:	e0 2d       	mov	r30, r0
 46a:	09 94       	ijmp

0000046c <_ZN26RandomAccessExternalEeprom8readLongEv>:
 46c:	cf 92       	push	r12
 46e:	df 92       	push	r13
 470:	ef 92       	push	r14
 472:	ff 92       	push	r15
 474:	0f 93       	push	r16
 476:	1f 93       	push	r17
 478:	cf 93       	push	r28
 47a:	df 93       	push	r29
 47c:	ec 01       	movw	r28, r24
 47e:	8a 81       	ldd	r24, Y+2	; 0x02
 480:	9b 81       	ldd	r25, Y+3	; 0x03
 482:	dc 01       	movw	r26, r24
 484:	ed 91       	ld	r30, X+
 486:	fc 91       	ld	r31, X
 488:	04 80       	ldd	r0, Z+4	; 0x04
 48a:	f5 81       	ldd	r31, Z+5	; 0x05
 48c:	e0 2d       	mov	r30, r0
 48e:	6c 81       	ldd	r22, Y+4	; 0x04
 490:	7d 81       	ldd	r23, Y+5	; 0x05
 492:	9b 01       	movw	r18, r22
 494:	2f 5f       	subi	r18, 0xFF	; 255
 496:	3f 4f       	sbci	r19, 0xFF	; 255
 498:	3d 83       	std	Y+5, r19	; 0x05
 49a:	2c 83       	std	Y+4, r18	; 0x04
 49c:	09 95       	icall
 49e:	6c 01       	movw	r12, r24
 4a0:	ee 24       	eor	r14, r14
 4a2:	d7 fc       	sbrc	r13, 7
 4a4:	e0 94       	com	r14
 4a6:	fe 2c       	mov	r15, r14
 4a8:	fe 2c       	mov	r15, r14
 4aa:	ed 2c       	mov	r14, r13
 4ac:	dc 2c       	mov	r13, r12
 4ae:	cc 24       	eor	r12, r12
 4b0:	8a 81       	ldd	r24, Y+2	; 0x02
 4b2:	9b 81       	ldd	r25, Y+3	; 0x03
 4b4:	dc 01       	movw	r26, r24
 4b6:	ed 91       	ld	r30, X+
 4b8:	fc 91       	ld	r31, X
 4ba:	04 80       	ldd	r0, Z+4	; 0x04
 4bc:	f5 81       	ldd	r31, Z+5	; 0x05
 4be:	e0 2d       	mov	r30, r0
 4c0:	6c 81       	ldd	r22, Y+4	; 0x04
 4c2:	7d 81       	ldd	r23, Y+5	; 0x05
 4c4:	9b 01       	movw	r18, r22
 4c6:	2f 5f       	subi	r18, 0xFF	; 255
 4c8:	3f 4f       	sbci	r19, 0xFF	; 255
 4ca:	3d 83       	std	Y+5, r19	; 0x05
 4cc:	2c 83       	std	Y+4, r18	; 0x04
 4ce:	09 95       	icall
 4d0:	99 27       	eor	r25, r25
 4d2:	ac 01       	movw	r20, r24
 4d4:	66 27       	eor	r22, r22
 4d6:	57 fd       	sbrc	r21, 7
 4d8:	60 95       	com	r22
 4da:	76 2f       	mov	r23, r22
 4dc:	4c 29       	or	r20, r12
 4de:	5d 29       	or	r21, r13
 4e0:	6e 29       	or	r22, r14
 4e2:	7f 29       	or	r23, r15
 4e4:	cc 24       	eor	r12, r12
 4e6:	d4 2e       	mov	r13, r20
 4e8:	e5 2e       	mov	r14, r21
 4ea:	f6 2e       	mov	r15, r22
 4ec:	8a 81       	ldd	r24, Y+2	; 0x02
 4ee:	9b 81       	ldd	r25, Y+3	; 0x03
 4f0:	dc 01       	movw	r26, r24
 4f2:	ed 91       	ld	r30, X+
 4f4:	fc 91       	ld	r31, X
 4f6:	04 80       	ldd	r0, Z+4	; 0x04
 4f8:	f5 81       	ldd	r31, Z+5	; 0x05
 4fa:	e0 2d       	mov	r30, r0
 4fc:	6c 81       	ldd	r22, Y+4	; 0x04
 4fe:	7d 81       	ldd	r23, Y+5	; 0x05
 500:	9b 01       	movw	r18, r22
 502:	2f 5f       	subi	r18, 0xFF	; 255
 504:	3f 4f       	sbci	r19, 0xFF	; 255
 506:	3d 83       	std	Y+5, r19	; 0x05
 508:	2c 83       	std	Y+4, r18	; 0x04
 50a:	09 95       	icall
 50c:	99 27       	eor	r25, r25
 50e:	ac 01       	movw	r20, r24
 510:	66 27       	eor	r22, r22
 512:	57 fd       	sbrc	r21, 7
 514:	60 95       	com	r22
 516:	76 2f       	mov	r23, r22
 518:	4c 29       	or	r20, r12
 51a:	5d 29       	or	r21, r13
 51c:	6e 29       	or	r22, r14
 51e:	7f 29       	or	r23, r15
 520:	cc 24       	eor	r12, r12
 522:	d4 2e       	mov	r13, r20
 524:	e5 2e       	mov	r14, r21
 526:	f6 2e       	mov	r15, r22
 528:	8a 81       	ldd	r24, Y+2	; 0x02
 52a:	9b 81       	ldd	r25, Y+3	; 0x03
 52c:	dc 01       	movw	r26, r24
 52e:	ed 91       	ld	r30, X+
 530:	fc 91       	ld	r31, X
 532:	04 80       	ldd	r0, Z+4	; 0x04
 534:	f5 81       	ldd	r31, Z+5	; 0x05
 536:	e0 2d       	mov	r30, r0
 538:	6c 81       	ldd	r22, Y+4	; 0x04
 53a:	7d 81       	ldd	r23, Y+5	; 0x05
 53c:	9b 01       	movw	r18, r22
 53e:	2f 5f       	subi	r18, 0xFF	; 255
 540:	3f 4f       	sbci	r19, 0xFF	; 255
 542:	3d 83       	std	Y+5, r19	; 0x05
 544:	2c 83       	std	Y+4, r18	; 0x04
 546:	09 95       	icall
 548:	99 27       	eor	r25, r25
 54a:	8c 01       	movw	r16, r24
 54c:	22 27       	eor	r18, r18
 54e:	17 fd       	sbrc	r17, 7
 550:	20 95       	com	r18
 552:	32 2f       	mov	r19, r18
 554:	0c 29       	or	r16, r12
 556:	1d 29       	or	r17, r13
 558:	2e 29       	or	r18, r14
 55a:	3f 29       	or	r19, r15
 55c:	b8 01       	movw	r22, r16
 55e:	c9 01       	movw	r24, r18
 560:	df 91       	pop	r29
 562:	cf 91       	pop	r28
 564:	1f 91       	pop	r17
 566:	0f 91       	pop	r16
 568:	ff 90       	pop	r15
 56a:	ef 90       	pop	r14
 56c:	df 90       	pop	r13
 56e:	cf 90       	pop	r12
 570:	08 95       	ret

00000572 <_ZN26RandomAccessExternalEeprom16readUnsignedLongEv>:
 572:	dc 01       	movw	r26, r24
 574:	ed 91       	ld	r30, X+
 576:	fc 91       	ld	r31, X
 578:	06 a4       	ldd	r0, Z+46	; 0x2e
 57a:	f7 a5       	ldd	r31, Z+47	; 0x2f
 57c:	e0 2d       	mov	r30, r0
 57e:	09 94       	ijmp

00000580 <_ZN26RandomAccessExternalEeprom9readFloatEv>:
 580:	dc 01       	movw	r26, r24
 582:	ed 91       	ld	r30, X+
 584:	fc 91       	ld	r31, X
 586:	06 a4       	ldd	r0, Z+46	; 0x2e
 588:	f7 a5       	ldd	r31, Z+47	; 0x2f
 58a:	e0 2d       	mov	r30, r0
 58c:	09 95       	icall
 58e:	0e 94 00 00 	call	0	; 0x0 <_ZN26RandomAccessExternalEeprom4seekEj>
 592:	08 95       	ret

00000594 <_ZN26RandomAccessExternalEeprom10readDoubleEv>:
 594:	dc 01       	movw	r26, r24
 596:	ed 91       	ld	r30, X+
 598:	fc 91       	ld	r31, X
 59a:	06 a4       	ldd	r0, Z+46	; 0x2e
 59c:	f7 a5       	ldd	r31, Z+47	; 0x2f
 59e:	e0 2d       	mov	r30, r0
 5a0:	09 95       	icall
 5a2:	0e 94 00 00 	call	0	; 0x0 <_ZN26RandomAccessExternalEeprom4seekEj>
 5a6:	08 95       	ret

000005a8 <_ZN26RandomAccessExternalEeprom9readFullyEPhi>:
 5a8:	cf 92       	push	r12
 5aa:	df 92       	push	r13
 5ac:	ef 92       	push	r14
 5ae:	ff 92       	push	r15
 5b0:	0f 93       	push	r16
 5b2:	1f 93       	push	r17
 5b4:	cf 93       	push	r28
 5b6:	df 93       	push	r29
 5b8:	8c 01       	movw	r16, r24
 5ba:	6a 01       	movw	r12, r20
 5bc:	eb 01       	movw	r28, r22
 5be:	7b 01       	movw	r14, r22
 5c0:	00 c0       	rjmp	.+0      	; 0x5c2 <_ZN26RandomAccessExternalEeprom9readFullyEPhi+0x1a>
 5c2:	d8 01       	movw	r26, r16
 5c4:	12 96       	adiw	r26, 0x02	; 2
 5c6:	8d 91       	ld	r24, X+
 5c8:	9c 91       	ld	r25, X
 5ca:	13 97       	sbiw	r26, 0x03	; 3
 5cc:	dc 01       	movw	r26, r24
 5ce:	ed 91       	ld	r30, X+
 5d0:	fc 91       	ld	r31, X
 5d2:	04 80       	ldd	r0, Z+4	; 0x04
 5d4:	f5 81       	ldd	r31, Z+5	; 0x05
 5d6:	e0 2d       	mov	r30, r0
 5d8:	d8 01       	movw	r26, r16
 5da:	14 96       	adiw	r26, 0x04	; 4
 5dc:	6d 91       	ld	r22, X+
 5de:	7c 91       	ld	r23, X
 5e0:	15 97       	sbiw	r26, 0x05	; 5
 5e2:	9b 01       	movw	r18, r22
 5e4:	2f 5f       	subi	r18, 0xFF	; 255
 5e6:	3f 4f       	sbci	r19, 0xFF	; 255
 5e8:	15 96       	adiw	r26, 0x05	; 5
 5ea:	3c 93       	st	X, r19
 5ec:	2e 93       	st	-X, r18
 5ee:	14 97       	sbiw	r26, 0x04	; 4
 5f0:	09 95       	icall
 5f2:	f7 01       	movw	r30, r14
 5f4:	81 93       	st	Z+, r24
 5f6:	7f 01       	movw	r14, r30
 5f8:	c7 01       	movw	r24, r14
 5fa:	8c 1b       	sub	r24, r28
 5fc:	9d 0b       	sbc	r25, r29
 5fe:	8c 15       	cp	r24, r12
 600:	9d 05       	cpc	r25, r13
 602:	04 f0       	brlt	.+0      	; 0x604 <_ZN26RandomAccessExternalEeprom9readFullyEPhi+0x5c>
 604:	df 91       	pop	r29
 606:	cf 91       	pop	r28
 608:	1f 91       	pop	r17
 60a:	0f 91       	pop	r16
 60c:	ff 90       	pop	r15
 60e:	ef 90       	pop	r14
 610:	df 90       	pop	r13
 612:	cf 90       	pop	r12
 614:	08 95       	ret

00000616 <_ZN26RandomAccessExternalEeprom9skipBytesEj>:
 616:	fc 01       	movw	r30, r24
 618:	84 81       	ldd	r24, Z+4	; 0x04
 61a:	95 81       	ldd	r25, Z+5	; 0x05
 61c:	a2 81       	ldd	r26, Z+2	; 0x02
 61e:	b3 81       	ldd	r27, Z+3	; 0x03
 620:	12 96       	adiw	r26, 0x02	; 2
 622:	2d 91       	ld	r18, X+
 624:	3c 91       	ld	r19, X
 626:	13 97       	sbiw	r26, 0x03	; 3
 628:	68 0f       	add	r22, r24
 62a:	79 1f       	adc	r23, r25
 62c:	26 17       	cp	r18, r22
 62e:	37 07       	cpc	r19, r23
 630:	00 f4       	brcc	.+0      	; 0x632 <_ZN26RandomAccessExternalEeprom9skipBytesEj+0x1c>
 632:	b9 01       	movw	r22, r18
 634:	75 83       	std	Z+5, r23	; 0x05
 636:	64 83       	std	Z+4, r22	; 0x04
 638:	68 1b       	sub	r22, r24
 63a:	79 0b       	sbc	r23, r25
 63c:	cb 01       	movw	r24, r22
 63e:	08 95       	ret

00000640 <_ZN26RandomAccessExternalEepromC2EP14ExternalEeprom>:
 640:	ef 92       	push	r14
 642:	ff 92       	push	r15
 644:	0f 93       	push	r16
 646:	1f 93       	push	r17
 648:	cf 93       	push	r28
 64a:	df 93       	push	r29
 64c:	ec 01       	movw	r28, r24
 64e:	8b 01       	movw	r16, r22
 650:	7a 01       	movw	r14, r20
 652:	6e 5f       	subi	r22, 0xFE	; 254
 654:	7f 4f       	sbci	r23, 0xFF	; 255
 656:	0e 94 00 00 	call	0	; 0x0 <_ZN26RandomAccessExternalEeprom4seekEj>
 65a:	f8 01       	movw	r30, r16
 65c:	80 81       	ld	r24, Z
 65e:	91 81       	ldd	r25, Z+1	; 0x01
 660:	99 83       	std	Y+1, r25	; 0x01
 662:	88 83       	st	Y, r24
 664:	24 85       	ldd	r18, Z+12	; 0x0c
 666:	35 85       	ldd	r19, Z+13	; 0x0d
 668:	fc 01       	movw	r30, r24
 66a:	b2 97       	sbiw	r30, 0x22	; 34
 66c:	01 90       	ld	r0, Z+
 66e:	f0 81       	ld	r31, Z
 670:	e0 2d       	mov	r30, r0
 672:	ec 0f       	add	r30, r28
 674:	fd 1f       	adc	r31, r29
 676:	31 83       	std	Z+1, r19	; 0x01
 678:	20 83       	st	Z, r18
 67a:	88 81       	ld	r24, Y
 67c:	99 81       	ldd	r25, Y+1	; 0x01
 67e:	f8 01       	movw	r30, r16
 680:	26 85       	ldd	r18, Z+14	; 0x0e
 682:	37 85       	ldd	r19, Z+15	; 0x0f
 684:	fc 01       	movw	r30, r24
 686:	b4 97       	sbiw	r30, 0x24	; 36
 688:	01 90       	ld	r0, Z+
 68a:	f0 81       	ld	r31, Z
 68c:	e0 2d       	mov	r30, r0
 68e:	ec 0f       	add	r30, r28
 690:	fd 1f       	adc	r31, r29
 692:	31 83       	std	Z+1, r19	; 0x01
 694:	20 83       	st	Z, r18
 696:	f8 01       	movw	r30, r16
 698:	20 89       	ldd	r18, Z+16	; 0x10
 69a:	31 89       	ldd	r19, Z+17	; 0x11
 69c:	fc 01       	movw	r30, r24
 69e:	b6 97       	sbiw	r30, 0x26	; 38
 6a0:	01 90       	ld	r0, Z+
 6a2:	f0 81       	ld	r31, Z
 6a4:	e0 2d       	mov	r30, r0
 6a6:	ec 0f       	add	r30, r28
 6a8:	fd 1f       	adc	r31, r29
 6aa:	31 83       	std	Z+1, r19	; 0x01
 6ac:	20 83       	st	Z, r18
 6ae:	f8 01       	movw	r30, r16
 6b0:	22 89       	ldd	r18, Z+18	; 0x12
 6b2:	33 89       	ldd	r19, Z+19	; 0x13
 6b4:	fc 01       	movw	r30, r24
 6b6:	b8 97       	sbiw	r30, 0x28	; 40
 6b8:	01 90       	ld	r0, Z+
 6ba:	f0 81       	ld	r31, Z
 6bc:	e0 2d       	mov	r30, r0
 6be:	ec 0f       	add	r30, r28
 6c0:	fd 1f       	adc	r31, r29
 6c2:	31 83       	std	Z+1, r19	; 0x01
 6c4:	20 83       	st	Z, r18
 6c6:	fb 82       	std	Y+3, r15	; 0x03
 6c8:	ea 82       	std	Y+2, r14	; 0x02
 6ca:	1d 82       	std	Y+5, r1	; 0x05
 6cc:	1c 82       	std	Y+4, r1	; 0x04
 6ce:	df 91       	pop	r29
 6d0:	cf 91       	pop	r28
 6d2:	1f 91       	pop	r17
 6d4:	0f 91       	pop	r16
 6d6:	ff 90       	pop	r15
 6d8:	ef 90       	pop	r14
 6da:	08 95       	ret

000006dc <_ZN26RandomAccessExternalEepromC1EP14ExternalEeprom>:
 6dc:	0f 93       	push	r16
 6de:	1f 93       	push	r17
 6e0:	cf 93       	push	r28
 6e2:	df 93       	push	r29
 6e4:	ec 01       	movw	r28, r24
 6e6:	8b 01       	movw	r16, r22
 6e8:	80 e0       	ldi	r24, 0x00	; 0
 6ea:	90 e0       	ldi	r25, 0x00	; 0
 6ec:	99 83       	std	Y+1, r25	; 0x01
 6ee:	88 83       	st	Y, r24
 6f0:	80 e0       	ldi	r24, 0x00	; 0
 6f2:	90 e0       	ldi	r25, 0x00	; 0
 6f4:	9f 83       	std	Y+7, r25	; 0x07
 6f6:	8e 83       	std	Y+6, r24	; 0x06
 6f8:	80 e0       	ldi	r24, 0x00	; 0
 6fa:	90 e0       	ldi	r25, 0x00	; 0
 6fc:	99 87       	std	Y+9, r25	; 0x09
 6fe:	88 87       	std	Y+8, r24	; 0x08
 700:	80 e0       	ldi	r24, 0x00	; 0
 702:	90 e0       	ldi	r25, 0x00	; 0
 704:	9b 87       	std	Y+11, r25	; 0x0b
 706:	8a 87       	std	Y+10, r24	; 0x0a
 708:	60 e0       	ldi	r22, 0x00	; 0
 70a:	70 e0       	ldi	r23, 0x00	; 0
 70c:	ce 01       	movw	r24, r28
 70e:	0e 94 00 00 	call	0	; 0x0 <_ZN26RandomAccessExternalEeprom4seekEj>
 712:	80 e0       	ldi	r24, 0x00	; 0
 714:	90 e0       	ldi	r25, 0x00	; 0
 716:	99 83       	std	Y+1, r25	; 0x01
 718:	88 83       	st	Y, r24
 71a:	80 e0       	ldi	r24, 0x00	; 0
 71c:	90 e0       	ldi	r25, 0x00	; 0
 71e:	9f 83       	std	Y+7, r25	; 0x07
 720:	8e 83       	std	Y+6, r24	; 0x06
 722:	80 e0       	ldi	r24, 0x00	; 0
 724:	90 e0       	ldi	r25, 0x00	; 0
 726:	99 87       	std	Y+9, r25	; 0x09
 728:	88 87       	std	Y+8, r24	; 0x08
 72a:	80 e0       	ldi	r24, 0x00	; 0
 72c:	90 e0       	ldi	r25, 0x00	; 0
 72e:	9b 87       	std	Y+11, r25	; 0x0b
 730:	8a 87       	std	Y+10, r24	; 0x0a
 732:	1b 83       	std	Y+3, r17	; 0x03
 734:	0a 83       	std	Y+2, r16	; 0x02
 736:	1d 82       	std	Y+5, r1	; 0x05
 738:	1c 82       	std	Y+4, r1	; 0x04
 73a:	df 91       	pop	r29
 73c:	cf 91       	pop	r28
 73e:	1f 91       	pop	r17
 740:	0f 91       	pop	r16
 742:	08 95       	ret

00000744 <_ZN26RandomAccessExternalEeprom6lengthEv>:
 744:	dc 01       	movw	r26, r24
 746:	12 96       	adiw	r26, 0x02	; 2
 748:	ed 91       	ld	r30, X+
 74a:	fc 91       	ld	r31, X
 74c:	13 97       	sbiw	r26, 0x03	; 3
 74e:	82 81       	ldd	r24, Z+2	; 0x02
 750:	93 81       	ldd	r25, Z+3	; 0x03
 752:	08 95       	ret

00000754 <_ZTv0_n30_N26RandomAccessExternalEeprom9skipBytesEj>:
 754:	dc 01       	movw	r26, r24
 756:	ed 91       	ld	r30, X+
 758:	fc 91       	ld	r31, X
 75a:	7e 97       	sbiw	r30, 0x1e	; 30
 75c:	20 81       	ld	r18, Z
 75e:	31 81       	ldd	r19, Z+1	; 0x01
 760:	82 0f       	add	r24, r18
 762:	93 1f       	adc	r25, r19
 764:	0c 94 00 00 	jmp	0	; 0x0 <_ZN26RandomAccessExternalEeprom4seekEj>

00000768 <_ZTv0_n28_N26RandomAccessExternalEeprom9readFullyEPhi>:
 768:	dc 01       	movw	r26, r24
 76a:	ed 91       	ld	r30, X+
 76c:	fc 91       	ld	r31, X
 76e:	7c 97       	sbiw	r30, 0x1c	; 28
 770:	20 81       	ld	r18, Z
 772:	31 81       	ldd	r19, Z+1	; 0x01
 774:	82 0f       	add	r24, r18
 776:	93 1f       	adc	r25, r19
 778:	0c 94 00 00 	jmp	0	; 0x0 <_ZN26RandomAccessExternalEeprom4seekEj>

0000077c <_ZTv0_n26_N26RandomAccessExternalEeprom10readDoubleEv>:
 77c:	dc 01       	movw	r26, r24
 77e:	ed 91       	ld	r30, X+
 780:	fc 91       	ld	r31, X
 782:	7a 97       	sbiw	r30, 0x1a	; 26
 784:	20 81       	ld	r18, Z
 786:	31 81       	ldd	r19, Z+1	; 0x01
 788:	82 0f       	add	r24, r18
 78a:	93 1f       	adc	r25, r19
 78c:	0c 94 00 00 	jmp	0	; 0x0 <_ZN26RandomAccessExternalEeprom4seekEj>

00000790 <_ZTv0_n24_N26RandomAccessExternalEeprom9readFloatEv>:
 790:	dc 01       	movw	r26, r24
 792:	ed 91       	ld	r30, X+
 794:	fc 91       	ld	r31, X
 796:	78 97       	sbiw	r30, 0x18	; 24
 798:	20 81       	ld	r18, Z
 79a:	31 81       	ldd	r19, Z+1	; 0x01
 79c:	82 0f       	add	r24, r18
 79e:	93 1f       	adc	r25, r19
 7a0:	0c 94 00 00 	jmp	0	; 0x0 <_ZN26RandomAccessExternalEeprom4seekEj>

000007a4 <_ZTv0_n22_N26RandomAccessExternalEeprom16readUnsignedLongEv>:
 7a4:	dc 01       	movw	r26, r24
 7a6:	ed 91       	ld	r30, X+
 7a8:	fc 91       	ld	r31, X
 7aa:	76 97       	sbiw	r30, 0x16	; 22
 7ac:	20 81       	ld	r18, Z
 7ae:	31 81       	ldd	r19, Z+1	; 0x01
 7b0:	82 0f       	add	r24, r18
 7b2:	93 1f       	adc	r25, r19
 7b4:	0c 94 00 00 	jmp	0	; 0x0 <_ZN26RandomAccessExternalEeprom4seekEj>

000007b8 <_ZTv0_n20_N26RandomAccessExternalEeprom8readLongEv>:
 7b8:	dc 01       	movw	r26, r24
 7ba:	ed 91       	ld	r30, X+
 7bc:	fc 91       	ld	r31, X
 7be:	74 97       	sbiw	r30, 0x14	; 20
 7c0:	20 81       	ld	r18, Z
 7c2:	31 81       	ldd	r19, Z+1	; 0x01
 7c4:	82 0f       	add	r24, r18
 7c6:	93 1f       	adc	r25, r19
 7c8:	0c 94 00 00 	jmp	0	; 0x0 <_ZN26RandomAccessExternalEeprom4seekEj>

000007cc <_ZTv0_n18_N26RandomAccessExternalEeprom8readWordEv>:
 7cc:	dc 01       	movw	r26, r24
 7ce:	ed 91       	ld	r30, X+
 7d0:	fc 91       	ld	r31, X
 7d2:	72 97       	sbiw	r30, 0x12	; 18
 7d4:	20 81       	ld	r18, Z
 7d6:	31 81       	ldd	r19, Z+1	; 0x01
 7d8:	82 0f       	add	r24, r18
 7da:	93 1f       	adc	r25, r19
 7dc:	0c 94 00 00 	jmp	0	; 0x0 <_ZN26RandomAccessExternalEeprom4seekEj>

000007e0 <_ZTv0_n16_N26RandomAccessExternalEeprom15readUnsignedIntEv>:
 7e0:	dc 01       	movw	r26, r24
 7e2:	ed 91       	ld	r30, X+
 7e4:	fc 91       	ld	r31, X
 7e6:	70 97       	sbiw	r30, 0x10	; 16
 7e8:	20 81       	ld	r18, Z
 7ea:	31 81       	ldd	r19, Z+1	; 0x01
 7ec:	82 0f       	add	r24, r18
 7ee:	93 1f       	adc	r25, r19
 7f0:	0c 94 00 00 	jmp	0	; 0x0 <_ZN26RandomAccessExternalEeprom4seekEj>

000007f4 <_ZTv0_n14_N26RandomAccessExternalEeprom7readIntEv>:
 7f4:	dc 01       	movw	r26, r24
 7f6:	ed 91       	ld	r30, X+
 7f8:	fc 91       	ld	r31, X
 7fa:	3e 97       	sbiw	r30, 0x0e	; 14
 7fc:	20 81       	ld	r18, Z
 7fe:	31 81       	ldd	r19, Z+1	; 0x01
 800:	82 0f       	add	r24, r18
 802:	93 1f       	adc	r25, r19
 804:	0c 94 00 00 	jmp	0	; 0x0 <_ZN26RandomAccessExternalEeprom4seekEj>

00000808 <_ZTv0_n12_N26RandomAccessExternalEeprom16readUnsignedCharEv>:
 808:	dc 01       	movw	r26, r24
 80a:	ed 91       	ld	r30, X+
 80c:	fc 91       	ld	r31, X
 80e:	3c 97       	sbiw	r30, 0x0c	; 12
 810:	20 81       	ld	r18, Z
 812:	31 81       	ldd	r19, Z+1	; 0x01
 814:	82 0f       	add	r24, r18
 816:	93 1f       	adc	r25, r19
 818:	0c 94 00 00 	jmp	0	; 0x0 <_ZN26RandomAccessExternalEeprom4seekEj>

0000081c <_ZTv0_n10_N26RandomAccessExternalEeprom8readCharEv>:
 81c:	dc 01       	movw	r26, r24
 81e:	ed 91       	ld	r30, X+
 820:	fc 91       	ld	r31, X
 822:	3a 97       	sbiw	r30, 0x0a	; 10
 824:	20 81       	ld	r18, Z
 826:	31 81       	ldd	r19, Z+1	; 0x01
 828:	82 0f       	add	r24, r18
 82a:	93 1f       	adc	r25, r19
 82c:	0c 94 00 00 	jmp	0	; 0x0 <_ZN26RandomAccessExternalEeprom4seekEj>

00000830 <_ZTv0_n8_N26RandomAccessExternalEeprom11readBooleanEv>:
 830:	dc 01       	movw	r26, r24
 832:	ed 91       	ld	r30, X+
 834:	fc 91       	ld	r31, X
 836:	38 97       	sbiw	r30, 0x08	; 8
 838:	20 81       	ld	r18, Z
 83a:	31 81       	ldd	r19, Z+1	; 0x01
 83c:	82 0f       	add	r24, r18
 83e:	93 1f       	adc	r25, r19
 840:	0c 94 00 00 	jmp	0	; 0x0 <_ZN26RandomAccessExternalEeprom4seekEj>

00000844 <_ZTv0_n6_N26RandomAccessExternalEeprom8readByteEv>:
 844:	dc 01       	movw	r26, r24
 846:	ed 91       	ld	r30, X+
 848:	fc 91       	ld	r31, X
 84a:	36 97       	sbiw	r30, 0x06	; 6
 84c:	20 81       	ld	r18, Z
 84e:	31 81       	ldd	r19, Z+1	; 0x01
 850:	82 0f       	add	r24, r18
 852:	93 1f       	adc	r25, r19
 854:	0c 94 00 00 	jmp	0	; 0x0 <_ZN26RandomAccessExternalEeprom4seekEj>

00000858 <_ZTv0_n32_N26RandomAccessExternalEeprom11writeDoubleEd>:
 858:	dc 01       	movw	r26, r24
 85a:	ed 91       	ld	r30, X+
 85c:	fc 91       	ld	r31, X
 85e:	b0 97       	sbiw	r30, 0x20	; 32
 860:	20 81       	ld	r18, Z
 862:	31 81       	ldd	r19, Z+1	; 0x01
 864:	82 0f       	add	r24, r18
 866:	93 1f       	adc	r25, r19
 868:	0c 94 00 00 	jmp	0	; 0x0 <_ZN26RandomAccessExternalEeprom4seekEj>

0000086c <_ZTv0_n30_N26RandomAccessExternalEeprom10writeFloatEf>:
 86c:	dc 01       	movw	r26, r24
 86e:	ed 91       	ld	r30, X+
 870:	fc 91       	ld	r31, X
 872:	7e 97       	sbiw	r30, 0x1e	; 30
 874:	20 81       	ld	r18, Z
 876:	31 81       	ldd	r19, Z+1	; 0x01
 878:	82 0f       	add	r24, r18
 87a:	93 1f       	adc	r25, r19
 87c:	0c 94 00 00 	jmp	0	; 0x0 <_ZN26RandomAccessExternalEeprom4seekEj>

00000880 <_ZTv0_n28_N26RandomAccessExternalEeprom17writeUnsignedLongEm>:
 880:	dc 01       	movw	r26, r24
 882:	ed 91       	ld	r30, X+
 884:	fc 91       	ld	r31, X
 886:	7c 97       	sbiw	r30, 0x1c	; 28
 888:	20 81       	ld	r18, Z
 88a:	31 81       	ldd	r19, Z+1	; 0x01
 88c:	82 0f       	add	r24, r18
 88e:	93 1f       	adc	r25, r19
 890:	0c 94 00 00 	jmp	0	; 0x0 <_ZN26RandomAccessExternalEeprom4seekEj>

00000894 <_ZTv0_n26_N26RandomAccessExternalEeprom9writeLongEl>:
 894:	dc 01       	movw	r26, r24
 896:	ed 91       	ld	r30, X+
 898:	fc 91       	ld	r31, X
 89a:	7a 97       	sbiw	r30, 0x1a	; 26
 89c:	20 81       	ld	r18, Z
 89e:	31 81       	ldd	r19, Z+1	; 0x01
 8a0:	82 0f       	add	r24, r18
 8a2:	93 1f       	adc	r25, r19
 8a4:	0c 94 00 00 	jmp	0	; 0x0 <_ZN26RandomAccessExternalEeprom4seekEj>

000008a8 <_ZTv0_n24_N26RandomAccessExternalEeprom9writeWordEj>:
 8a8:	dc 01       	movw	r26, r24
 8aa:	ed 91       	ld	r30, X+
 8ac:	fc 91       	ld	r31, X
 8ae:	78 97       	sbiw	r30, 0x18	; 24
 8b0:	20 81       	ld	r18, Z
 8b2:	31 81       	ldd	r19, Z+1	; 0x01
 8b4:	82 0f       	add	r24, r18
 8b6:	93 1f       	adc	r25, r19
 8b8:	0c 94 00 00 	jmp	0	; 0x0 <_ZN26RandomAccessExternalEeprom4seekEj>

000008bc <_ZTv0_n22_N26RandomAccessExternalEeprom16writeUnsignedIntEj>:
 8bc:	dc 01       	movw	r26, r24
 8be:	ed 91       	ld	r30, X+
 8c0:	fc 91       	ld	r31, X
 8c2:	76 97       	sbiw	r30, 0x16	; 22
 8c4:	20 81       	ld	r18, Z
 8c6:	31 81       	ldd	r19, Z+1	; 0x01
 8c8:	82 0f       	add	r24, r18
 8ca:	93 1f       	adc	r25, r19
 8cc:	0c 94 00 00 	jmp	0	; 0x0 <_ZN26RandomAccessExternalEeprom4seekEj>

000008d0 <_ZTv0_n20_N26RandomAccessExternalEeprom8writeIntEi>:
 8d0:	dc 01       	movw	r26, r24
 8d2:	ed 91       	ld	r30, X+
 8d4:	fc 91       	ld	r31, X
 8d6:	74 97       	sbiw	r30, 0x14	; 20
 8d8:	20 81       	ld	r18, Z
 8da:	31 81       	ldd	r19, Z+1	; 0x01
 8dc:	82 0f       	add	r24, r18
 8de:	93 1f       	adc	r25, r19
 8e0:	0c 94 00 00 	jmp	0	; 0x0 <_ZN26RandomAccessExternalEeprom4seekEj>

000008e4 <_ZTv0_n18_N26RandomAccessExternalEeprom17writeUnsignedCharEh>:
 8e4:	dc 01       	movw	r26, r24
 8e6:	ed 91       	ld	r30, X+
 8e8:	fc 91       	ld	r31, X
 8ea:	72 97       	sbiw	r30, 0x12	; 18
 8ec:	20 81       	ld	r18, Z
 8ee:	31 81       	ldd	r19, Z+1	; 0x01
 8f0:	82 0f       	add	r24, r18
 8f2:	93 1f       	adc	r25, r19
 8f4:	0c 94 00 00 	jmp	0	; 0x0 <_ZN26RandomAccessExternalEeprom4seekEj>

000008f8 <_ZTv0_n16_N26RandomAccessExternalEeprom9writeCharEc>:
 8f8:	dc 01       	movw	r26, r24
 8fa:	ed 91       	ld	r30, X+
 8fc:	fc 91       	ld	r31, X
 8fe:	70 97       	sbiw	r30, 0x10	; 16
 900:	20 81       	ld	r18, Z
 902:	31 81       	ldd	r19, Z+1	; 0x01
 904:	82 0f       	add	r24, r18
 906:	93 1f       	adc	r25, r19
 908:	0c 94 00 00 	jmp	0	; 0x0 <_ZN26RandomAccessExternalEeprom4seekEj>

0000090c <_ZTv0_n14_N26RandomAccessExternalEeprom12writeBooleanEb>:
 90c:	dc 01       	movw	r26, r24
 90e:	ed 91       	ld	r30, X+
 910:	fc 91       	ld	r31, X
 912:	3e 97       	sbiw	r30, 0x0e	; 14
 914:	20 81       	ld	r18, Z
 916:	31 81       	ldd	r19, Z+1	; 0x01
 918:	82 0f       	add	r24, r18
 91a:	93 1f       	adc	r25, r19
 91c:	0c 94 00 00 	jmp	0	; 0x0 <_ZN26RandomAccessExternalEeprom4seekEj>

00000920 <_ZTv0_n12_N26RandomAccessExternalEeprom10writeBytesEPhi>:
 920:	dc 01       	movw	r26, r24
 922:	ed 91       	ld	r30, X+
 924:	fc 91       	ld	r31, X
 926:	3c 97       	sbiw	r30, 0x0c	; 12
 928:	20 81       	ld	r18, Z
 92a:	31 81       	ldd	r19, Z+1	; 0x01
 92c:	82 0f       	add	r24, r18
 92e:	93 1f       	adc	r25, r19
 930:	0c 94 00 00 	jmp	0	; 0x0 <_ZN26RandomAccessExternalEeprom4seekEj>

00000934 <_ZTv0_n10_N26RandomAccessExternalEeprom9writeByteEh>:
 934:	dc 01       	movw	r26, r24
 936:	ed 91       	ld	r30, X+
 938:	fc 91       	ld	r31, X
 93a:	3a 97       	sbiw	r30, 0x0a	; 10
 93c:	20 81       	ld	r18, Z
 93e:	31 81       	ldd	r19, Z+1	; 0x01
 940:	82 0f       	add	r24, r18
 942:	93 1f       	adc	r25, r19
 944:	0c 94 00 00 	jmp	0	; 0x0 <_ZN26RandomAccessExternalEeprom4seekEj>

00000948 <_ZTv0_n8_N26RandomAccessExternalEeprom5writeEh>:
 948:	dc 01       	movw	r26, r24
 94a:	ed 91       	ld	r30, X+
 94c:	fc 91       	ld	r31, X
 94e:	38 97       	sbiw	r30, 0x08	; 8
 950:	20 81       	ld	r18, Z
 952:	31 81       	ldd	r19, Z+1	; 0x01
 954:	82 0f       	add	r24, r18
 956:	93 1f       	adc	r25, r19
 958:	0c 94 00 00 	jmp	0	; 0x0 <_ZN26RandomAccessExternalEeprom4seekEj>

0000095c <_ZTv0_n6_N26RandomAccessExternalEeprom5writeEPhi>:
 95c:	dc 01       	movw	r26, r24
 95e:	ed 91       	ld	r30, X+
 960:	fc 91       	ld	r31, X
 962:	36 97       	sbiw	r30, 0x06	; 6
 964:	20 81       	ld	r18, Z
 966:	31 81       	ldd	r19, Z+1	; 0x01
 968:	82 0f       	add	r24, r18
 96a:	93 1f       	adc	r25, r19
 96c:	0c 94 00 00 	jmp	0	; 0x0 <_ZN26RandomAccessExternalEeprom4seekEj>

00000970 <_ZTv0_n6_N26RandomAccessExternalEeprom5closeEv>:
 970:	08 95       	ret

00000972 <_ZTv0_n6_N26RandomAccessExternalEeprom4seekEj>:
 972:	dc 01       	movw	r26, r24
 974:	ed 91       	ld	r30, X+
 976:	fc 91       	ld	r31, X
 978:	36 97       	sbiw	r30, 0x06	; 6
 97a:	20 81       	ld	r18, Z
 97c:	31 81       	ldd	r19, Z+1	; 0x01
 97e:	82 0f       	add	r24, r18
 980:	93 1f       	adc	r25, r19
 982:	0c 94 00 00 	jmp	0	; 0x0 <_ZN26RandomAccessExternalEeprom4seekEj>

Disassembly of section .text._ZN12RandomAccessC2Ev:

00000000 <_ZN12RandomAccessC2Ev>:
   0:	fb 01       	movw	r30, r22
   2:	20 81       	ld	r18, Z
   4:	31 81       	ldd	r19, Z+1	; 0x01
   6:	dc 01       	movw	r26, r24
   8:	2d 93       	st	X+, r18
   a:	3c 93       	st	X, r19
   c:	42 81       	ldd	r20, Z+2	; 0x02
   e:	53 81       	ldd	r21, Z+3	; 0x03
  10:	d9 01       	movw	r26, r18
  12:	92 97       	sbiw	r26, 0x22	; 34
  14:	0d 90       	ld	r0, X+
  16:	bc 91       	ld	r27, X
  18:	a0 2d       	mov	r26, r0
  1a:	a8 0f       	add	r26, r24
  1c:	b9 1f       	adc	r27, r25
  1e:	4d 93       	st	X+, r20
  20:	5c 93       	st	X, r21
  22:	dc 01       	movw	r26, r24
  24:	2d 91       	ld	r18, X+
  26:	3c 91       	ld	r19, X
  28:	44 81       	ldd	r20, Z+4	; 0x04
  2a:	55 81       	ldd	r21, Z+5	; 0x05
  2c:	d9 01       	movw	r26, r18
  2e:	94 97       	sbiw	r26, 0x24	; 36
  30:	0d 90       	ld	r0, X+
  32:	bc 91       	ld	r27, X
  34:	a0 2d       	mov	r26, r0
  36:	a8 0f       	add	r26, r24
  38:	b9 1f       	adc	r27, r25
  3a:	4d 93       	st	X+, r20
  3c:	5c 93       	st	X, r21
  3e:	46 81       	ldd	r20, Z+6	; 0x06
  40:	57 81       	ldd	r21, Z+7	; 0x07
  42:	d9 01       	movw	r26, r18
  44:	96 97       	sbiw	r26, 0x26	; 38
  46:	0d 90       	ld	r0, X+
  48:	bc 91       	ld	r27, X
  4a:	a0 2d       	mov	r26, r0
  4c:	a8 0f       	add	r26, r24
  4e:	b9 1f       	adc	r27, r25
  50:	4d 93       	st	X+, r20
  52:	5c 93       	st	X, r21
  54:	40 85       	ldd	r20, Z+8	; 0x08
  56:	51 85       	ldd	r21, Z+9	; 0x09
  58:	f9 01       	movw	r30, r18
  5a:	b8 97       	sbiw	r30, 0x28	; 40
  5c:	01 90       	ld	r0, Z+
  5e:	f0 81       	ld	r31, Z
  60:	e0 2d       	mov	r30, r0
  62:	e8 0f       	add	r30, r24
  64:	f9 1f       	adc	r31, r25
  66:	51 83       	std	Z+1, r21	; 0x01
  68:	40 83       	st	Z, r20
  6a:	08 95       	ret

RandomAccessByteArray.o:     file format elf32-avr

Sections:
Idx Name          Size      VMA       LMA       File off  Algn
  0 .group        00000008  00000000  00000000  00000034  2**2
                  CONTENTS, READONLY, EXCLUDE, GROUP, LINK_ONCE_DISCARD
  1 .group        00000010  00000000  00000000  0000003c  2**2
                  CONTENTS, READONLY, EXCLUDE, GROUP, LINK_ONCE_DISCARD
  2 .group        00000008  00000000  00000000  0000004c  2**2
                  CONTENTS, READONLY, EXCLUDE, GROUP, LINK_ONCE_DISCARD
  3 .group        00000008  00000000  00000000  00000054  2**2
                  CONTENTS, READONLY, EXCLUDE, GROUP, LINK_ONCE_DISCARD
  4 .group        00000008  00000000  00000000  0000005c  2**2
                  CONTENTS, READONLY, EXCLUDE, GROUP, LINK_ONCE_DISCARD
  5 .group        00000008  00000000  00000000  00000064  2**2
                  CONTENTS, READONLY, EXCLUDE, GROUP, LINK_ONCE_DISCARD
  6 .text         000006d8  00000000  00000000  0000006c  2**0
                  CONTENTS, ALLOC, LOAD, RELOC, READONLY, CODE
  7 .data         00000000  00000000  00000000  00000744  2**0
                  CONTENTS, ALLOC, LOAD, DATA
  8 .bss          00000000  00000000  00000000  00000744  2**0
                  ALLOC
  9 .text._ZN12RandomAccessC2Ev 0000006c  00000000  00000000  00000744  2**0
                  CONTENTS, ALLOC, LOAD, READONLY, CODE
 10 .rodata._ZTC21RandomAccessByteArray0_12RandomAccess 0000008c  00000000  00000000  000007b0  2**0
                  CONTENTS, ALLOC, LOAD, RELOC, READONLY, DATA
 11 .rodata._ZTT21RandomAccessByteArray 00000014  00000000  00000000  0000083c  2**0
                  CONTENTS, ALLOC, LOAD, RELOC, READONLY, DATA
 12 .rodata._ZTV21RandomAccessByteArray 000000aa  00000000  00000000  00000850  2**0
                  CONTENTS, ALLOC, LOAD, RELOC, READONLY, DATA
 13 .rodata._ZTV10DataOutput 00000020  00000000  00000000  000008fa  2**0
                  CONTENTS, ALLOC, LOAD, RELOC, READONLY, DATA
 14 .rodata._ZTV9DataInput 0000001e  00000000  00000000  0000091a  2**0
                  CONTENTS, ALLOC, LOAD, RELOC, READONLY, DATA
 15 .rodata._ZTV9Closeable 00000006  00000000  00000000  00000938  2**0
                  CONTENTS, ALLOC, LOAD, RELOC, READONLY, DATA
 16 .rodata._ZTV8Seekable 00000006  00000000  00000000  0000093e  2**0
                  CONTENTS, ALLOC, LOAD, RELOC, READONLY, DATA
 17 .comment      00000012  00000000  00000000  00000944  2**0
                  CONTENTS, READONLY

Disassembly of section .text:

00000000 <_ZN21RandomAccessByteArray4seekEj>:
   0:	fc 01       	movw	r30, r24
   2:	77 83       	std	Z+7, r23	; 0x07
   4:	66 83       	std	Z+6, r22	; 0x06
   6:	08 95       	ret

00000008 <_ZN21RandomAccessByteArray5closeEv>:
   8:	08 95       	ret

0000000a <_ZN21RandomAccessByteArray5writeEPhi>:
   a:	dc 01       	movw	r26, r24
   c:	ed 91       	ld	r30, X+
   e:	fc 91       	ld	r31, X
  10:	06 80       	ldd	r0, Z+6	; 0x06
  12:	f7 81       	ldd	r31, Z+7	; 0x07
  14:	e0 2d       	mov	r30, r0
  16:	09 94       	ijmp

00000018 <_ZN21RandomAccessByteArray5writeEh>:
  18:	fc 01       	movw	r30, r24
  1a:	86 81       	ldd	r24, Z+6	; 0x06
  1c:	97 81       	ldd	r25, Z+7	; 0x07
  1e:	a2 81       	ldd	r26, Z+2	; 0x02
  20:	b3 81       	ldd	r27, Z+3	; 0x03
  22:	a8 0f       	add	r26, r24
  24:	b9 1f       	adc	r27, r25
  26:	6c 93       	st	X, r22
  28:	01 96       	adiw	r24, 0x01	; 1
  2a:	97 83       	std	Z+7, r25	; 0x07
  2c:	86 83       	std	Z+6, r24	; 0x06
  2e:	08 95       	ret

00000030 <_ZN21RandomAccessByteArray9writeByteEh>:
  30:	fc 01       	movw	r30, r24
  32:	86 81       	ldd	r24, Z+6	; 0x06
  34:	97 81       	ldd	r25, Z+7	; 0x07
  36:	a2 81       	ldd	r26, Z+2	; 0x02
  38:	b3 81       	ldd	r27, Z+3	; 0x03
  3a:	a8 0f       	add	r26, r24
  3c:	b9 1f       	adc	r27, r25
  3e:	6c 93       	st	X, r22
  40:	01 96       	adiw	r24, 0x01	; 1
  42:	97 83       	std	Z+7, r25	; 0x07
  44:	86 83       	std	Z+6, r24	; 0x06
  46:	08 95       	ret

00000048 <_ZN21RandomAccessByteArray10writeBytesEPhi>:
  48:	cf 93       	push	r28
  4a:	df 93       	push	r29
  4c:	fc 01       	movw	r30, r24
  4e:	9b 01       	movw	r18, r22
  50:	db 01       	movw	r26, r22
  52:	00 c0       	rjmp	.+0      	; 0x54 <_ZN21RandomAccessByteArray10writeBytesEPhi+0xc>
  54:	86 81       	ldd	r24, Z+6	; 0x06
  56:	97 81       	ldd	r25, Z+7	; 0x07
  58:	6d 91       	ld	r22, X+
  5a:	c2 81       	ldd	r28, Z+2	; 0x02
  5c:	d3 81       	ldd	r29, Z+3	; 0x03
  5e:	c8 0f       	add	r28, r24
  60:	d9 1f       	adc	r29, r25
  62:	68 83       	st	Y, r22
  64:	01 96       	adiw	r24, 0x01	; 1
  66:	97 83       	std	Z+7, r25	; 0x07
  68:	86 83       	std	Z+6, r24	; 0x06
  6a:	cd 01       	movw	r24, r26
  6c:	82 1b       	sub	r24, r18
  6e:	93 0b       	sbc	r25, r19
  70:	84 17       	cp	r24, r20
  72:	95 07       	cpc	r25, r21
  74:	04 f0       	brlt	.+0      	; 0x76 <_ZN21RandomAccessByteArray10writeBytesEPhi+0x2e>
  76:	df 91       	pop	r29
  78:	cf 91       	pop	r28
  7a:	08 95       	ret

0000007c <_ZN21RandomAccessByteArray12writeBooleanEb>:
  7c:	fc 01       	movw	r30, r24
  7e:	86 81       	ldd	r24, Z+6	; 0x06
  80:	97 81       	ldd	r25, Z+7	; 0x07
  82:	a2 81       	ldd	r26, Z+2	; 0x02
  84:	b3 81       	ldd	r27, Z+3	; 0x03
  86:	a8 0f       	add	r26, r24
  88:	b9 1f       	adc	r27, r25
  8a:	6c 93       	st	X, r22
  8c:	01 96       	adiw	r24, 0x01	; 1
  8e:	97 83       	std	Z+7, r25	; 0x07
  90:	86 83       	std	Z+6, r24	; 0x06
  92:	08 95       	ret

00000094 <_ZN21RandomAccessByteArray9writeCharEc>:
  94:	fc 01       	movw	r30, r24
  96:	86 81       	ldd	r24, Z+6	; 0x06
  98:	97 81       	ldd	r25, Z+7	; 0x07
  9a:	a2 81       	ldd	r26, Z+2	; 0x02
  9c:	b3 81       	ldd	r27, Z+3	; 0x03
  9e:	a8 0f       	add	r26, r24
  a0:	b9 1f       	adc	r27, r25
  a2:	6c 93       	st	X, r22
  a4:	01 96       	adiw	r24, 0x01	; 1
  a6:	97 83       	std	Z+7, r25	; 0x07
  a8:	86 83       	std	Z+6, r24	; 0x06
  aa:	08 95       	ret

000000ac <_ZN21RandomAccessByteArray17writeUnsignedCharEh>:
  ac:	fc 01       	movw	r30, r24
  ae:	86 81       	ldd	r24, Z+6	; 0x06
  b0:	97 81       	ldd	r25, Z+7	; 0x07
  b2:	a2 81       	ldd	r26, Z+2	; 0x02
  b4:	b3 81       	ldd	r27, Z+3	; 0x03
  b6:	a8 0f       	add	r26, r24
  b8:	b9 1f       	adc	r27, r25
  ba:	6c 93       	st	X, r22
  bc:	01 96       	adiw	r24, 0x01	; 1
  be:	97 83       	std	Z+7, r25	; 0x07
  c0:	86 83       	std	Z+6, r24	; 0x06
  c2:	08 95       	ret

000000c4 <_ZN21RandomAccessByteArray8writeIntEi>:
  c4:	fc 01       	movw	r30, r24
  c6:	86 81       	ldd	r24, Z+6	; 0x06
  c8:	97 81       	ldd	r25, Z+7	; 0x07
  ca:	a2 81       	ldd	r26, Z+2	; 0x02
  cc:	b3 81       	ldd	r27, Z+3	; 0x03
  ce:	a8 0f       	add	r26, r24
  d0:	b9 1f       	adc	r27, r25
  d2:	7c 93       	st	X, r23
  d4:	a2 81       	ldd	r26, Z+2	; 0x02
  d6:	b3 81       	ldd	r27, Z+3	; 0x03
  d8:	a8 0f       	add	r26, r24
  da:	b9 1f       	adc	r27, r25
  dc:	11 96       	adiw	r26, 0x01	; 1
  de:	6c 93       	st	X, r22
  e0:	02 96       	adiw	r24, 0x02	; 2
  e2:	97 83       	std	Z+7, r25	; 0x07
  e4:	86 83       	std	Z+6, r24	; 0x06
  e6:	08 95       	ret

000000e8 <_ZN21RandomAccessByteArray16writeUnsignedIntEj>:
  e8:	dc 01       	movw	r26, r24
  ea:	ed 91       	ld	r30, X+
  ec:	fc 91       	ld	r31, X
  ee:	06 84       	ldd	r0, Z+14	; 0x0e
  f0:	f7 85       	ldd	r31, Z+15	; 0x0f
  f2:	e0 2d       	mov	r30, r0
  f4:	09 94       	ijmp

000000f6 <_ZN21RandomAccessByteArray9writeWordEj>:
  f6:	dc 01       	movw	r26, r24
  f8:	ed 91       	ld	r30, X+
  fa:	fc 91       	ld	r31, X
  fc:	06 84       	ldd	r0, Z+14	; 0x0e
  fe:	f7 85       	ldd	r31, Z+15	; 0x0f
 100:	e0 2d       	mov	r30, r0
 102:	09 94       	ijmp

00000104 <_ZN21RandomAccessByteArray9writeLongEl>:
 104:	fc 01       	movw	r30, r24
 106:	86 81       	ldd	r24, Z+6	; 0x06
 108:	97 81       	ldd	r25, Z+7	; 0x07
 10a:	a2 81       	ldd	r26, Z+2	; 0x02
 10c:	b3 81       	ldd	r27, Z+3	; 0x03
 10e:	a8 0f       	add	r26, r24
 110:	b9 1f       	adc	r27, r25
 112:	7c 93       	st	X, r23
 114:	a2 81       	ldd	r26, Z+2	; 0x02
 116:	b3 81       	ldd	r27, Z+3	; 0x03
 118:	a8 0f       	add	r26, r24
 11a:	b9 1f       	adc	r27, r25
 11c:	11 96       	adiw	r26, 0x01	; 1
 11e:	6c 93       	st	X, r22
 120:	a2 81       	ldd	r26, Z+2	; 0x02
 122:	b3 81       	ldd	r27, Z+3	; 0x03
 124:	a8 0f       	add	r26, r24
 126:	b9 1f       	adc	r27, r25
 128:	12 96       	adiw	r26, 0x02	; 2
 12a:	5c 93       	st	X, r21
 12c:	a2 81       	ldd	r26, Z+2	; 0x02
 12e:	b3 81       	ldd	r27, Z+3	; 0x03
 130:	a8 0f       	add	r26, r24
 132:	b9 1f       	adc	r27, r25
 134:	13 96       	adiw	r26, 0x03	; 3
 136:	4c 93       	st	X, r20
 138:	04 96       	adiw	r24, 0x04	; 4
 13a:	97 83       	std	Z+7, r25	; 0x07
 13c:	86 83       	std	Z+6, r24	; 0x06
 13e:	08 95       	ret

00000140 <_ZN21RandomAccessByteArray17writeUnsignedLongEm>:
 140:	dc 01       	movw	r26, r24
 142:	ed 91       	ld	r30, X+
 144:	fc 91       	ld	r31, X
 146:	04 88       	ldd	r0, Z+20	; 0x14
 148:	f5 89       	ldd	r31, Z+21	; 0x15
 14a:	e0 2d       	mov	r30, r0
 14c:	09 94       	ijmp

0000014e <_ZN21RandomAccessByteArray10writeFloatEf>:
 14e:	0f 93       	push	r16
 150:	1f 93       	push	r17
 152:	cf 93       	push	r28
 154:	df 93       	push	r29
 156:	ec 01       	movw	r28, r24
 158:	08 81       	ld	r16, Y
 15a:	19 81       	ldd	r17, Y+1	; 0x01
 15c:	cb 01       	movw	r24, r22
 15e:	ba 01       	movw	r22, r20
 160:	0e 94 00 00 	call	0	; 0x0 <_ZN21RandomAccessByteArray4seekEj>
 164:	ab 01       	movw	r20, r22
 166:	bc 01       	movw	r22, r24
 168:	d8 01       	movw	r26, r16
 16a:	54 96       	adiw	r26, 0x14	; 20
 16c:	ed 91       	ld	r30, X+
 16e:	fc 91       	ld	r31, X
 170:	55 97       	sbiw	r26, 0x15	; 21
 172:	ce 01       	movw	r24, r28
 174:	df 91       	pop	r29
 176:	cf 91       	pop	r28
 178:	1f 91       	pop	r17
 17a:	0f 91       	pop	r16
 17c:	09 94       	ijmp

0000017e <_ZN21RandomAccessByteArray11writeDoubleEd>:
 17e:	0f 93       	push	r16
 180:	1f 93       	push	r17
 182:	cf 93       	push	r28
 184:	df 93       	push	r29
 186:	ec 01       	movw	r28, r24
 188:	08 81       	ld	r16, Y
 18a:	19 81       	ldd	r17, Y+1	; 0x01
 18c:	cb 01       	movw	r24, r22
 18e:	ba 01       	movw	r22, r20
 190:	0e 94 00 00 	call	0	; 0x0 <_ZN21RandomAccessByteArray4seekEj>
 194:	ab 01       	movw	r20, r22
 196:	bc 01       	movw	r22, r24
 198:	d8 01       	movw	r26, r16
 19a:	54 96       	adiw	r26, 0x14	; 20
 19c:	ed 91       	ld	r30, X+
 19e:	fc 91       	ld	r31, X
 1a0:	55 97       	sbiw	r26, 0x15	; 21
 1a2:	ce 01       	movw	r24, r28
 1a4:	df 91       	pop	r29
 1a6:	cf 91       	pop	r28
 1a8:	1f 91       	pop	r17
 1aa:	0f 91       	pop	r16
 1ac:	09 94       	ijmp

000001ae <_ZN21RandomAccessByteArray8readByteEv>:
 1ae:	fc 01       	movw	r30, r24
 1b0:	26 81       	ldd	r18, Z+6	; 0x06
 1b2:	37 81       	ldd	r19, Z+7	; 0x07
 1b4:	a2 81       	ldd	r26, Z+2	; 0x02
 1b6:	b3 81       	ldd	r27, Z+3	; 0x03
 1b8:	a2 0f       	add	r26, r18
 1ba:	b3 1f       	adc	r27, r19
 1bc:	8c 91       	ld	r24, X
 1be:	2f 5f       	subi	r18, 0xFF	; 255
 1c0:	3f 4f       	sbci	r19, 0xFF	; 255
 1c2:	37 83       	std	Z+7, r19	; 0x07
 1c4:	26 83       	std	Z+6, r18	; 0x06
 1c6:	08 95       	ret

000001c8 <_ZN21RandomAccessByteArray11readBooleanEv>:
 1c8:	fc 01       	movw	r30, r24
 1ca:	26 81       	ldd	r18, Z+6	; 0x06
 1cc:	37 81       	ldd	r19, Z+7	; 0x07
 1ce:	a2 81       	ldd	r26, Z+2	; 0x02
 1d0:	b3 81       	ldd	r27, Z+3	; 0x03
 1d2:	a2 0f       	add	r26, r18
 1d4:	b3 1f       	adc	r27, r19
 1d6:	81 e0       	ldi	r24, 0x01	; 1
 1d8:	9c 91       	ld	r25, X
 1da:	91 11       	cpse	r25, r1
 1dc:	00 c0       	rjmp	.+0      	; 0x1de <_ZN21RandomAccessByteArray11readBooleanEv+0x16>
 1de:	80 e0       	ldi	r24, 0x00	; 0
 1e0:	2f 5f       	subi	r18, 0xFF	; 255
 1e2:	3f 4f       	sbci	r19, 0xFF	; 255
 1e4:	37 83       	std	Z+7, r19	; 0x07
 1e6:	26 83       	std	Z+6, r18	; 0x06
 1e8:	08 95       	ret

000001ea <_ZN21RandomAccessByteArray8readCharEv>:
 1ea:	fc 01       	movw	r30, r24
 1ec:	26 81       	ldd	r18, Z+6	; 0x06
 1ee:	37 81       	ldd	r19, Z+7	; 0x07
 1f0:	a2 81       	ldd	r26, Z+2	; 0x02
 1f2:	b3 81       	ldd	r27, Z+3	; 0x03
 1f4:	a2 0f       	add	r26, r18
 1f6:	b3 1f       	adc	r27, r19
 1f8:	8c 91       	ld	r24, X
 1fa:	2f 5f       	subi	r18, 0xFF	; 255
 1fc:	3f 4f       	sbci	r19, 0xFF	; 255
 1fe:	37 83       	std	Z+7, r19	; 0x07
 200:	26 83       	std	Z+6, r18	; 0x06
 202:	08 95       	ret

00000204 <_ZN21RandomAccessByteArray16readUnsignedCharEv>:
 204:	fc 01       	movw	r30, r24
 206:	26 81       	ldd	r18, Z+6	; 0x06
 208:	37 81       	ldd	r19, Z+7	; 0x07
 20a:	a2 81       	ldd	r26, Z+2	; 0x02
 20c:	b3 81       	ldd	r27, Z+3	; 0x03
 20e:	a2 0f       	add	r26, r18
 210:	b3 1f       	adc	r27, r19
 212:	8c 91       	ld	r24, X
 214:	2f 5f       	subi	r18, 0xFF	; 255
 216:	3f 4f       	sbci	r19, 0xFF	; 255
 218:	37 83       	std	Z+7, r19	; 0x07
 21a:	26 83       	std	Z+6, r18	; 0x06
 21c:	08 95       	ret

0000021e <_ZN21RandomAccessByteArray7readIntEv>:
 21e:	fc 01       	movw	r30, r24
 220:	62 81       	ldd	r22, Z+2	; 0x02
 222:	73 81       	ldd	r23, Z+3	; 0x03
 224:	26 81       	ldd	r18, Z+6	; 0x06
 226:	37 81       	ldd	r19, Z+7	; 0x07
 228:	db 01       	movw	r26, r22
 22a:	a2 0f       	add	r26, r18
 22c:	b3 1f       	adc	r27, r19
 22e:	ac 91       	ld	r26, X
 230:	a9 01       	movw	r20, r18
 232:	4f 5f       	subi	r20, 0xFF	; 255
 234:	5f 4f       	sbci	r21, 0xFF	; 255
 236:	57 83       	std	Z+7, r21	; 0x07
 238:	46 83       	std	Z+6, r20	; 0x06
 23a:	9a 2f       	mov	r25, r26
 23c:	80 e0       	ldi	r24, 0x00	; 0
 23e:	db 01       	movw	r26, r22
 240:	a4 0f       	add	r26, r20
 242:	b5 1f       	adc	r27, r21
 244:	4c 91       	ld	r20, X
 246:	2e 5f       	subi	r18, 0xFE	; 254
 248:	3f 4f       	sbci	r19, 0xFF	; 255
 24a:	37 83       	std	Z+7, r19	; 0x07
 24c:	26 83       	std	Z+6, r18	; 0x06
 24e:	9c 01       	movw	r18, r24
 250:	24 2b       	or	r18, r20
 252:	c9 01       	movw	r24, r18
 254:	08 95       	ret

00000256 <_ZN21RandomAccessByteArray15readUnsignedIntEv>:
 256:	dc 01       	movw	r26, r24
 258:	ed 91       	ld	r30, X+
 25a:	fc 91       	ld	r31, X
 25c:	00 a4       	ldd	r0, Z+40	; 0x28
 25e:	f1 a5       	ldd	r31, Z+41	; 0x29
 260:	e0 2d       	mov	r30, r0
 262:	09 94       	ijmp

00000264 <_ZN21RandomAccessByteArray8readWordEv>:
 264:	dc 01       	movw	r26, r24
 266:	ed 91       	ld	r30, X+
 268:	fc 91       	ld	r31, X
 26a:	00 a4       	ldd	r0, Z+40	; 0x28
 26c:	f1 a5       	ldd	r31, Z+41	; 0x29
 26e:	e0 2d       	mov	r30, r0
 270:	09 94       	ijmp

00000272 <_ZN21RandomAccessByteArray8readLongEv>:
 272:	0f 93       	push	r16
 274:	1f 93       	push	r17
 276:	fc 01       	movw	r30, r24
 278:	42 81       	ldd	r20, Z+2	; 0x02
 27a:	53 81       	ldd	r21, Z+3	; 0x03
 27c:	86 81       	ldd	r24, Z+6	; 0x06
 27e:	97 81       	ldd	r25, Z+7	; 0x07
 280:	da 01       	movw	r26, r20
 282:	a8 0f       	add	r26, r24
 284:	b9 1f       	adc	r27, r25
 286:	0c 91       	ld	r16, X
 288:	10 e0       	ldi	r17, 0x00	; 0
 28a:	20 e0       	ldi	r18, 0x00	; 0
 28c:	30 e0       	ldi	r19, 0x00	; 0
 28e:	bc 01       	movw	r22, r24
 290:	6f 5f       	subi	r22, 0xFF	; 255
 292:	7f 4f       	sbci	r23, 0xFF	; 255
 294:	77 83       	std	Z+7, r23	; 0x07
 296:	66 83       	std	Z+6, r22	; 0x06
 298:	32 2f       	mov	r19, r18
 29a:	21 2f       	mov	r18, r17
 29c:	10 2f       	mov	r17, r16
 29e:	00 27       	eor	r16, r16
 2a0:	da 01       	movw	r26, r20
 2a2:	a6 0f       	add	r26, r22
 2a4:	b7 1f       	adc	r27, r23
 2a6:	ac 91       	ld	r26, X
 2a8:	bc 01       	movw	r22, r24
 2aa:	6e 5f       	subi	r22, 0xFE	; 254
 2ac:	7f 4f       	sbci	r23, 0xFF	; 255
 2ae:	77 83       	std	Z+7, r23	; 0x07
 2b0:	66 83       	std	Z+6, r22	; 0x06
 2b2:	0a 2b       	or	r16, r26
 2b4:	32 2f       	mov	r19, r18
 2b6:	21 2f       	mov	r18, r17
 2b8:	10 2f       	mov	r17, r16
 2ba:	00 27       	eor	r16, r16
 2bc:	da 01       	movw	r26, r20
 2be:	a6 0f       	add	r26, r22
 2c0:	b7 1f       	adc	r27, r23
 2c2:	ac 91       	ld	r26, X
 2c4:	bc 01       	movw	r22, r24
 2c6:	6d 5f       	subi	r22, 0xFD	; 253
 2c8:	7f 4f       	sbci	r23, 0xFF	; 255
 2ca:	77 83       	std	Z+7, r23	; 0x07
 2cc:	66 83       	std	Z+6, r22	; 0x06
 2ce:	0a 2b       	or	r16, r26
 2d0:	32 2f       	mov	r19, r18
 2d2:	21 2f       	mov	r18, r17
 2d4:	10 2f       	mov	r17, r16
 2d6:	00 27       	eor	r16, r16
 2d8:	da 01       	movw	r26, r20
 2da:	a6 0f       	add	r26, r22
 2dc:	b7 1f       	adc	r27, r23
 2de:	4c 91       	ld	r20, X
 2e0:	04 96       	adiw	r24, 0x04	; 4
 2e2:	97 83       	std	Z+7, r25	; 0x07
 2e4:	86 83       	std	Z+6, r24	; 0x06
 2e6:	04 2b       	or	r16, r20
 2e8:	b8 01       	movw	r22, r16
 2ea:	c9 01       	movw	r24, r18
 2ec:	1f 91       	pop	r17
 2ee:	0f 91       	pop	r16
 2f0:	08 95       	ret

000002f2 <_ZN21RandomAccessByteArray16readUnsignedLongEv>:
 2f2:	dc 01       	movw	r26, r24
 2f4:	ed 91       	ld	r30, X+
 2f6:	fc 91       	ld	r31, X
 2f8:	06 a4       	ldd	r0, Z+46	; 0x2e
 2fa:	f7 a5       	ldd	r31, Z+47	; 0x2f
 2fc:	e0 2d       	mov	r30, r0
 2fe:	09 94       	ijmp

00000300 <_ZN21RandomAccessByteArray9readFloatEv>:
 300:	dc 01       	movw	r26, r24
 302:	ed 91       	ld	r30, X+
 304:	fc 91       	ld	r31, X
 306:	06 a4       	ldd	r0, Z+46	; 0x2e
 308:	f7 a5       	ldd	r31, Z+47	; 0x2f
 30a:	e0 2d       	mov	r30, r0
 30c:	09 95       	icall
 30e:	0e 94 00 00 	call	0	; 0x0 <_ZN21RandomAccessByteArray4seekEj>
 312:	08 95       	ret

00000314 <_ZN21RandomAccessByteArray10readDoubleEv>:
 314:	dc 01       	movw	r26, r24
 316:	ed 91       	ld	r30, X+
 318:	fc 91       	ld	r31, X
 31a:	06 a4       	ldd	r0, Z+46	; 0x2e
 31c:	f7 a5       	ldd	r31, Z+47	; 0x2f
 31e:	e0 2d       	mov	r30, r0
 320:	09 95       	icall
 322:	0e 94 00 00 	call	0	; 0x0 <_ZN21RandomAccessByteArray4seekEj>
 326:	08 95       	ret

00000328 <_ZN21RandomAccessByteArray9readFullyEPhi>:
 328:	cf 93       	push	r28
 32a:	df 93       	push	r29
 32c:	fc 01       	movw	r30, r24
 32e:	9b 01       	movw	r18, r22
 330:	db 01       	movw	r26, r22
 332:	00 c0       	rjmp	.+0      	; 0x334 <_ZN21RandomAccessByteArray9readFullyEPhi+0xc>
 334:	86 81       	ldd	r24, Z+6	; 0x06
 336:	97 81       	ldd	r25, Z+7	; 0x07
 338:	c2 81       	ldd	r28, Z+2	; 0x02
 33a:	d3 81       	ldd	r29, Z+3	; 0x03
 33c:	c8 0f       	add	r28, r24
 33e:	d9 1f       	adc	r29, r25
 340:	68 81       	ld	r22, Y
 342:	6d 93       	st	X+, r22
 344:	01 96       	adiw	r24, 0x01	; 1
 346:	97 83       	std	Z+7, r25	; 0x07
 348:	86 83       	std	Z+6, r24	; 0x06
 34a:	cd 01       	movw	r24, r26
 34c:	82 1b       	sub	r24, r18
 34e:	93 0b       	sbc	r25, r19
 350:	84 17       	cp	r24, r20
 352:	95 07       	cpc	r25, r21
 354:	04 f0       	brlt	.+0      	; 0x356 <_ZN21RandomAccessByteArray9readFullyEPhi+0x2e>
 356:	df 91       	pop	r29
 358:	cf 91       	pop	r28
 35a:	08 95       	ret

0000035c <_ZN21RandomAccessByteArray9skipBytesEj>:
 35c:	fc 01       	movw	r30, r24
 35e:	86 81       	ldd	r24, Z+6	; 0x06
 360:	97 81       	ldd	r25, Z+7	; 0x07
 362:	24 81       	ldd	r18, Z+4	; 0x04
 364:	35 81       	ldd	r19, Z+5	; 0x05
 366:	68 0f       	add	r22, r24
 368:	79 1f       	adc	r23, r25
 36a:	26 17       	cp	r18, r22
 36c:	37 07       	cpc	r19, r23
 36e:	00 f4       	brcc	.+0      	; 0x370 <_ZN21RandomAccessByteArray9skipBytesEj+0x14>
 370:	b9 01       	movw	r22, r18
 372:	77 83       	std	Z+7, r23	; 0x07
 374:	66 83       	std	Z+6, r22	; 0x06
 376:	68 1b       	sub	r22, r24
 378:	79 0b       	sbc	r23, r25
 37a:	cb 01       	movw	r24, r22
 37c:	08 95       	ret

0000037e <_ZN21RandomAccessByteArrayC2EPhj>:
 37e:	cf 92       	push	r12
 380:	df 92       	push	r13
 382:	ef 92       	push	r14
 384:	ff 92       	push	r15
 386:	0f 93       	push	r16
 388:	1f 93       	push	r17
 38a:	cf 93       	push	r28
 38c:	df 93       	push	r29
 38e:	ec 01       	movw	r28, r24
 390:	8b 01       	movw	r16, r22
 392:	6a 01       	movw	r12, r20
 394:	79 01       	movw	r14, r18
 396:	6e 5f       	subi	r22, 0xFE	; 254
 398:	7f 4f       	sbci	r23, 0xFF	; 255
 39a:	0e 94 00 00 	call	0	; 0x0 <_ZN21RandomAccessByteArray4seekEj>
 39e:	f8 01       	movw	r30, r16
 3a0:	80 81       	ld	r24, Z
 3a2:	91 81       	ldd	r25, Z+1	; 0x01
 3a4:	99 83       	std	Y+1, r25	; 0x01
 3a6:	88 83       	st	Y, r24
 3a8:	24 85       	ldd	r18, Z+12	; 0x0c
 3aa:	35 85       	ldd	r19, Z+13	; 0x0d
 3ac:	fc 01       	movw	r30, r24
 3ae:	b2 97       	sbiw	r30, 0x22	; 34
 3b0:	01 90       	ld	r0, Z+
 3b2:	f0 81       	ld	r31, Z
 3b4:	e0 2d       	mov	r30, r0
 3b6:	ec 0f       	add	r30, r28
 3b8:	fd 1f       	adc	r31, r29
 3ba:	31 83       	std	Z+1, r19	; 0x01
 3bc:	20 83       	st	Z, r18
 3be:	88 81       	ld	r24, Y
 3c0:	99 81       	ldd	r25, Y+1	; 0x01
 3c2:	f8 01       	movw	r30, r16
 3c4:	26 85       	ldd	r18, Z+14	; 0x0e
 3c6:	37 85       	ldd	r19, Z+15	; 0x0f
 3c8:	fc 01       	movw	r30, r24
 3ca:	b4 97       	sbiw	r30, 0x24	; 36
 3cc:	01 90       	ld	r0, Z+
 3ce:	f0 81       	ld	r31, Z
 3d0:	e0 2d       	mov	r30, r0
 3d2:	ec 0f       	add	r30, r28
 3d4:	fd 1f       	adc	r31, r29
 3d6:	31 83       	std	Z+1, r19	; 0x01
 3d8:	20 83       	st	Z, r18
 3da:	f8 01       	movw	r30, r16
 3dc:	20 89       	ldd	r18, Z+16	; 0x10
 3de:	31 89       	ldd	r19, Z+17	; 0x11
 3e0:	fc 01       	movw	r30, r24
 3e2:	b6 97       	sbiw	r30, 0x26	; 38
 3e4:	01 90       	ld	r0, Z+
 3e6:	f0 81       	ld	r31, Z
 3e8:	e0 2d       	mov	r30, r0
 3ea:	ec 0f       	add	r30, r28
 3ec:	fd 1f       	adc	r31, r29
 3ee:	31 83       	std	Z+1, r19	; 0x01
 3f0:	20 83       	st	Z, r18
 3f2:	f8 01       	movw	r30, r16
 3f4:	22 89       	ldd	r18, Z+18	; 0x12
 3f6:	33 89       	ldd	r19, Z+19	; 0x13
 3f8:	fc 01       	movw	r30, r24
 3fa:	b8 97       	sbiw	r30, 0x28	; 40
 3fc:	01 90       	ld	r0, Z+
 3fe:	f0 81       	ld	r31, Z
 400:	e0 2d       	mov	r30, r0
 402:	ec 0f       	add	r30, r28
 404:	fd 1f       	adc	r31, r29
 406:	31 83       	std	Z+1, r19	; 0x01
 408:	20 83       	st	Z, r18
 40a:	db 82       	std	Y+3, r13	; 0x03
 40c:	ca 82       	std	Y+2, r12	; 0x02
 40e:	fd 82       	std	Y+5, r15	; 0x05
 410:	ec 82       	std	Y+4, r14	; 0x04
 412:	1f 82       	std	Y+7, r1	; 0x07
 414:	1e 82       	std	Y+6, r1	; 0x06
 416:	df 91       	pop	r29
 418:	cf 91       	pop	r28
 41a:	1f 91       	pop	r17
 41c:	0f 91       	pop	r16
 41e:	ff 90       	pop	r15
 420:	ef 90       	pop	r14
 422:	df 90       	pop	r13
 424:	cf 90       	pop	r12
 426:	08 95       	ret

00000428 <_ZN21RandomAccessByteArrayC1EPhj>:
 428:	ef 92       	push	r14
 42a:	ff 92       	push	r15
 42c:	0f 93       	push	r16
 42e:	1f 93       	push	r17
 430:	cf 93       	push	r28
 432:	df 93       	push	r29
 434:	ec 01       	movw	r28, r24
 436:	8b 01       	movw	r16, r22
 438:	7a 01       	movw	r14, r20
 43a:	80 e0       	ldi	r24, 0x00	; 0
 43c:	90 e0       	ldi	r25, 0x00	; 0
 43e:	99 83       	std	Y+1, r25	; 0x01
 440:	88 83       	st	Y, r24
 442:	80 e0       	ldi	r24, 0x00	; 0
 444:	90 e0       	ldi	r25, 0x00	; 0
 446:	99 87       	std	Y+9, r25	; 0x09
 448:	88 87       	std	Y+8, r24	; 0x08
 44a:	80 e0       	ldi	r24, 0x00	; 0
 44c:	90 e0       	ldi	r25, 0x00	; 0
 44e:	9b 87       	std	Y+11, r25	; 0x0b
 450:	8a 87       	std	Y+10, r24	; 0x0a
 452:	80 e0       	ldi	r24, 0x00	; 0
 454:	90 e0       	ldi	r25, 0x00	; 0
 456:	9d 87       	std	Y+13, r25	; 0x0d
 458:	8c 87       	std	Y+12, r24	; 0x0c
 45a:	60 e0       	ldi	r22, 0x00	; 0
 45c:	70 e0       	ldi	r23, 0x00	; 0
 45e:	ce 01       	movw	r24, r28
 460:	0e 94 00 00 	call	0	; 0x0 <_ZN21RandomAccessByteArray4seekEj>
 464:	80 e0       	ldi	r24, 0x00	; 0
 466:	90 e0       	ldi	r25, 0x00	; 0
 468:	99 83       	std	Y+1, r25	; 0x01
 46a:	88 83       	st	Y, r24
 46c:	80 e0       	ldi	r24, 0x00	; 0
 46e:	90 e0       	ldi	r25, 0x00	; 0
 470:	99 87       	std	Y+9, r25	; 0x09
 472:	88 87       	std	Y+8, r24	; 0x08
 474:	80 e0       	ldi	r24, 0x00	; 0
 476:	90 e0       	ldi	r25, 0x00	; 0
 478:	9b 87       	std	Y+11, r25	; 0x0b
 47a:	8a 87       	std	Y+10, r24	; 0x0a
 47c:	80 e0       	ldi	r24, 0x00	; 0
 47e:	90 e0       	ldi	r25, 0x00	; 0
 480:	9d 87       	std	Y+13, r25	; 0x0d
 482:	8c 87       	std	Y+12, r24	; 0x0c
 484:	1b 83       	std	Y+3, r17	; 0x03
 486:	0a 83       	std	Y+2, r16	; 0x02
 488:	fd 82       	std	Y+5, r15	; 0x05
 48a:	ec 82       	std	Y+4, r14	; 0x04
 48c:	1f 82       	std	Y+7, r1	; 0x07
 48e:	1e 82       	std	Y+6, r1	; 0x06
 490:	df 91       	pop	r29
 492:	cf 91       	pop	r28
 494:	1f 91       	pop	r17
 496:	0f 91       	pop	r16
 498:	ff 90       	pop	r15
 49a:	ef 90       	pop	r14
 49c:	08 95       	ret

0000049e <_ZN21RandomAccessByteArray6lengthEv>:
 49e:	fc 01       	movw	r30, r24
 4a0:	84 81       	ldd	r24, Z+4	; 0x04
 4a2:	95 81       	ldd	r25, Z+5	; 0x05
 4a4:	08 95       	ret

000004a6 <_ZTv0_n30_N21RandomAccessByteArray9skipBytesEj>:
 4a6:	dc 01       	movw	r26, r24
 4a8:	ed 91       	ld	r30, X+
 4aa:	fc 91       	ld	r31, X
 4ac:	7e 97       	sbiw	r30, 0x1e	; 30
 4ae:	20 81       	ld	r18, Z
 4b0:	31 81       	ldd	r19, Z+1	; 0x01
 4b2:	82 0f       	add	r24, r18
 4b4:	93 1f       	adc	r25, r19
 4b6:	0c 94 00 00 	jmp	0	; 0x0 <_ZN21RandomAccessByteArray4seekEj>

000004ba <_ZTv0_n28_N21RandomAccessByteArray9readFullyEPhi>:
 4ba:	dc 01       	movw	r26, r24
 4bc:	ed 91       	ld	r30, X+
 4be:	fc 91       	ld	r31, X
 4c0:	7c 97       	sbiw	r30, 0x1c	; 28
 4c2:	20 81       	ld	r18, Z
 4c4:	31 81       	ldd	r19, Z+1	; 0x01
 4c6:	82 0f       	add	r24, r18
 4c8:	93 1f       	adc	r25, r19
 4ca:	0c 94 00 00 	jmp	0	; 0x0 <_ZN21RandomAccessByteArray4seekEj>

000004ce <_ZTv0_n26_N21RandomAccessByteArray10readDoubleEv>:
 4ce:	dc 01       	movw	r26, r24
 4d0:	ed 91       	ld	r30, X+
 4d2:	fc 91       	ld	r31, X
 4d4:	7a 97       	sbiw	r30, 0x1a	; 26
 4d6:	20 81       	ld	r18, Z
 4d8:	31 81       	ldd	r19, Z+1	; 0x01
 4da:	82 0f       	add	r24, r18
 4dc:	93 1f       	adc	r25, r19
 4de:	0c 94 00 00 	jmp	0	; 0x0 <_ZN21RandomAccessByteArray4seekEj>

000004e2 <_ZTv0_n24_N21RandomAccessByteArray9readFloatEv>:
 4e2:	dc 01       	movw	r26, r24
 4e4:	ed 91       	ld	r30, X+
 4e6:	fc 91       	ld	r31, X
 4e8:	78 97       	sbiw	r30, 0x18	; 24
 4ea:	20 81       	ld	r18, Z
 4ec:	31 81       	ldd	r19, Z+1	; 0x01
 4ee:	82 0f       	add	r24, r18
 4f0:	93 1f       	adc	r25, r19
 4f2:	0c 94 00 00 	jmp	0	; 0x0 <_ZN21RandomAccessByteArray4seekEj>

000004f6 <_ZTv0_n22_N21RandomAccessByteArray16readUnsignedLongEv>:
 4f6:	dc 01       	movw	r26, r24
 4f8:	ed 91       	ld	r30, X+
 4fa:	fc 91       	ld	r31, X
 4fc:	76 97       	sbiw	r30, 0x16	; 22
 4fe:	20 81       	ld	r18, Z
 500:	31 81       	ldd	r19, Z+1	; 0x01
 502:	82 0f       	add	r24, r18
 504:	93 1f       	adc	r25, r19
 506:	0c 94 00 00 	jmp	0	; 0x0 <_ZN21RandomAccessByteArray4seekEj>

0000050a <_ZTv0_n20_N21RandomAccessByteArray8readLongEv>:
 50a:	dc 01       	movw	r26, r24
 50c:	ed 91       	ld	r30, X+
 50e:	fc 91       	ld	r31, X
 510:	74 97       	sbiw	r30, 0x14	; 20
 512:	20 81       	ld	r18, Z
 514:	31 81       	ldd	r19, Z+1	; 0x01
 516:	82 0f       	add	r24, r18
 518:	93 1f       	adc	r25, r19
 51a:	0c 94 00 00 	jmp	0	; 0x0 <_ZN21RandomAccessByteArray4seekEj>

0000051e <_ZTv0_n18_N21RandomAccessByteArray8readWordEv>:
 51e:	dc 01       	movw	r26, r24
 520:	ed 91       	ld	r30, X+
 522:	fc 91       	ld	r31, X
 524:	72 97       	sbiw	r30, 0x12	; 18
 526:	20 81       	ld	r18, Z
 528:	31 81       	ldd	r19, Z+1	; 0x01
 52a:	82 0f       	add	r24, r18
 52c:	93 1f       	adc	r25, r19
 52e:	0c 94 00 00 	jmp	0	; 0x0 <_ZN21RandomAccessByteArray4seekEj>

00000532 <_ZTv0_n16_N21RandomAccessByteArray15readUnsignedIntEv>:
 532:	dc 01       	movw	r26, r24
 534:	ed 91       	ld	r30, X+
 536:	fc 91       	ld	r31, X
 538:	70 97       	sbiw	r30, 0x10	; 16
 53a:	20 81       	ld	r18, Z
 53c:	31 81       	ldd	r19, Z+1	; 0x01
 53e:	82 0f       	add	r24, r18
 540:	93 1f       	adc	r25, r19
 542:	0c 94 00 00 	jmp	0	; 0x0 <_ZN21RandomAccessByteArray4seekEj>

00000546 <_ZTv0_n14_N21RandomAccessByteArray7readIntEv>:
 546:	dc 01       	movw	r26, r24
 548:	ed 91       	ld	r30, X+
 54a:	fc 91       	ld	r31, X
 54c:	3e 97       	sbiw	r30, 0x0e	; 14
 54e:	20 81       	ld	r18, Z
 550:	31 81       	ldd	r19, Z+1	; 0x01
 552:	82 0f       	add	r24, r18
 554:	93 1f       	adc	r25, r19
 556:	0c 94 00 00 	jmp	0	; 0x0 <_ZN21RandomAccessByteArray4seekEj>

0000055a <_ZTv0_n12_N21RandomAccessByteArray16readUnsignedCharEv>:
 55a:	dc 01       	movw	r26, r24
 55c:	ed 91       	ld	r30, X+
 55e:	fc 91       	ld	r31, X
 560:	3c 97       	sbiw	r30, 0x0c	; 12
 562:	20 81       	ld	r18, Z
 564:	31 81       	ldd	r19, Z+1	; 0x01
 566:	82 0f       	add	r24, r18
 568:	93 1f       	adc	r25, r19
 56a:	0c 94 00 00 	jmp	0	; 0x0 <_ZN21RandomAccessByteArray4seekEj>

0000056e <_ZTv0_n10_N21RandomAccessByteArray8readCharEv>:
 56e:	dc 01       	movw	r26, r24
 570:	ed 91       	ld	r30, X+
 572:	fc 91       	ld	r31, X
 574:	3a 97       	sbiw	r30, 0x0a	; 10
 576:	20 81       	ld	r18, Z
 578:	31 81       	ldd	r19, Z+1	; 0x01
 57a:	82 0f       	add	r24, r18
 57c:	93 1f       	adc	r25, r19
 57e:	0c 94 00 00 	jmp	0	; 0x0 <_ZN21RandomAccessByteArray4seekEj>

00000582 <_ZTv0_n8_N21RandomAccessByteArray11readBooleanEv>:
 582:	dc 01       	movw	r26, r24
 584:	ed 91       	ld	r30, X+
 586:	fc 91       	ld	r31, X
 588:	38 97       	sbiw	r30, 0x08	; 8
 58a:	20 81       	ld	r18, Z
 58c:	31 81       	ldd	r19, Z+1	; 0x01
 58e:	82 0f       	add	r24, r18
 590:	93 1f       	adc	r25, r19
 592:	0c 94 00 00 	jmp	0	; 0x0 <_ZN21RandomAccessByteArray4seekEj>

00000596 <_ZTv0_n6_N21RandomAccessByteArray8readByteEv>:
 596:	dc 01       	movw	r26, r24
 598:	ed 91       	ld	r30, X+
 59a:	fc 91       	ld	r31, X
 59c:	36 97       	sbiw	r30, 0x06	; 6
 59e:	20 81       	ld	r18, Z
 5a0:	31 81       	ldd	r19, Z+1	; 0x01
 5a2:	82 0f       	add	r24, r18
 5a4:	93 1f       	adc	r25, r19
 5a6:	0c 94 00 00 	jmp	0	; 0x0 <_ZN21RandomAccessByteArray4seekEj>

000005aa <_ZTv0_n32_N21RandomAccessByteArray11writeDoubleEd>:
 5aa:	dc 01       	movw	r26, r24
 5ac:	ed 91       	ld	r30, X+
 5ae:	fc 91       	ld	r31, X
 5b0:	b0 97       	sbiw	r30, 0x20	; 32
 5b2:	20 81       	ld	r18, Z
 5b4:	31 81       	ldd	r19, Z+1	; 0x01
 5b6:	82 0f       	add	r24, r18
 5b8:	93 1f       	adc	r25, r19
 5ba:	0c 94 00 00 	jmp	0	; 0x0 <_ZN21RandomAccessByteArray4seekEj>

000005be <_ZTv0_n30_N21RandomAccessByteArray10writeFloatEf>:
 5be:	dc 01       	movw	r26, r24
 5c0:	ed 91       	ld	r30, X+
 5c2:	fc 91       	ld	r31, X
 5c4:	7e 97       	sbiw	r30, 0x1e	; 30
 5c6:	20 81       	ld	r18, Z
 5c8:	31 81       	ldd	r19, Z+1	; 0x01
 5ca:	82 0f       	add	r24, r18
 5cc:	93 1f       	adc	r25, r19
 5ce:	0c 94 00 00 	jmp	0	; 0x0 <_ZN21RandomAccessByteArray4seekEj>

000005d2 <_ZTv0_n28_N21RandomAccessByteArray17writeUnsignedLongEm>:
 5d2:	dc 01       	movw	r26, r24
 5d4:	ed 91       	ld	r30, X+
 5d6:	fc 91       	ld	r31, X
 5d8:	7c 97       	sbiw	r30, 0x1c	; 28
 5da:	20 81       	ld	r18, Z
 5dc:	31 81       	ldd	r19, Z+1	; 0x01
 5de:	82 0f       	add	r24, r18
 5e0:	93 1f       	adc	r25, r19
 5e2:	0c 94 00 00 	jmp	0	; 0x0 <_ZN21RandomAccessByteArray4seekEj>

000005e6 <_ZTv0_n26_N21RandomAccessByteArray9writeLongEl>:
 5e6:	dc 01       	movw	r26, r24
 5e8:	ed 91       	ld	r30, X+
 5ea:	fc 91       	ld	r31, X
 5ec:	7a 97       	sbiw	r30, 0x1a	; 26
 5ee:	20 81       	ld	r18, Z
 5f0:	31 81       	ldd	r19, Z+1	; 0x01
 5f2:	82 0f       	add	r24, r18
 5f4:	93 1f       	adc	r25, r19
 5f6:	0c 94 00 00 	jmp	0	; 0x0 <_ZN21RandomAccessByteArray4seekEj>

000005fa <_ZTv0_n24_N21RandomAccessByteArray9writeWordEj>:
 5fa:	dc 01       	movw	r26, r24
 5fc:	ed 91       	ld	r30, X+
 5fe:	fc 91       	ld	r31, X
 600:	78 97       	sbiw	r30, 0x18	; 24
 602:	20 81       	ld	r18, Z
 604:	31 81       	ldd	r19, Z+1	; 0x01
 606:	82 0f       	add	r24, r18
 608:	93 1f       	adc	r25, r19
 60a:	0c 94 00 00 	jmp	0	; 0x0 <_ZN21RandomAccessByteArray4seekEj>

0000060e <_ZTv0_n22_N21RandomAccessByteArray16writeUnsignedIntEj>:
 60e:	dc 01       	movw	r26, r24
 610:	ed 91       	ld	r30, X+
 612:	fc 91       	ld	r31, X
 614:	76 97       	sbiw	r30, 0x16	; 22
 616:	20 81       	ld	r18, Z
 618:	31 81       	ldd	r19, Z+1	; 0x01
 61a:	82 0f       	add	r24, r18
 61c:	93 1f       	adc	r25, r19
 61e:	0c 94 00 00 	jmp	0	; 0x0 <_ZN21RandomAccessByteArray4seekEj>

00000622 <_ZTv0_n20_N21RandomAccessByteArray8writeIntEi>:
 622:	dc 01       	movw	r26, r24
 624:	ed 91       	ld	r30, X+
 626:	fc 91       	ld	r31, X
 628:	74 97       	sbiw	r30, 0x14	; 20
 62a:	20 81       	ld	r18, Z
 62c:	31 81       	ldd	r19, Z+1	; 0x01
 62e:	82 0f       	add	r24, r18
 630:	93 1f       	adc	r25, r19
 632:	0c 94 00 00 	jmp	0	; 0x0 <_ZN21RandomAccessByteArray4seekEj>

00000636 <_ZTv0_n18_N21RandomAccessByteArray17writeUnsignedCharEh>:
 636:	dc 01       	movw	r26, r24
 638:	ed 91       	ld	r30, X+
 63a:	fc 91       	ld	r31, X
 63c:	72 97       	sbiw	r30, 0x12	; 18
 63e:	20 81       	ld	r18, Z
 640:	31 81       	ldd	r19, Z+1	; 0x01
 642:	82 0f       	add	r24, r18
 644:	93 1f       	adc	r25, r19
 646:	0c 94 00 00 	jmp	0	; 0x0 <_ZN21RandomAccessByteArray4seekEj>

0000064a <_ZTv0_n16_N21RandomAccessByteArray9writeCharEc>:
 64a:	dc 01       	movw	r26, r24
 64c:	ed 91       	ld	r30, X+
 64e:	fc 91       	ld	r31, X
 650:	70 97       	sbiw	r30, 0x10	; 16
 652:	20 81       	ld	r18, Z
 654:	31 81       	ldd	r19, Z+1	; 0x01
 656:	82 0f       	add	r24, r18
 658:	93 1f       	adc	r25, r19
 65a:	0c 94 00 00 	jmp	0	; 0x0 <_ZN21RandomAccessByteArray4seekEj>

0000065e <_ZTv0_n14_N21RandomAccessByteArray12writeBooleanEb>:
 65e:	dc 01       	movw	r26, r24
 660:	ed 91       	ld	r30, X+
 662:	fc 91       	ld	r31, X
 664:	3e 97       	sbiw	r30, 0x0e	; 14
 666:	20 81       	ld	r18, Z
 668:	31 81       	ldd	r19, Z+1	; 0x01
 66a:	82 0f       	add	r24, r18
 66c:	93 1f       	adc	r25, r19
 66e:	0c 94 00 00 	jmp	0	; 0x0 <_ZN21RandomAccessByteArray4seekEj>

00000672 <_ZTv0_n12_N21RandomAccessByteArray10writeBytesEPhi>:
 672:	dc 01       	movw	r26, r24
 674:	ed 91       	ld	r30, X+
 676:	fc 91       	ld	r31, X
 678:	3c 97       	sbiw	r30, 0x0c	; 12
 67a:	20 81       	ld	r18, Z
 67c:	31 81       	ldd	r19, Z+1	; 0x01
 67e:	82 0f       	add	r24, r18
 680:	93 1f       	adc	r25, r19
 682:	0c 94 00 00 	jmp	0	; 0x0 <_ZN21RandomAccessByteArray4seekEj>

00000686 <_ZTv0_n10_N21RandomAccessByteArray9writeByteEh>:
 686:	dc 01       	movw	r26, r24
 688:	ed 91       	ld	r30, X+
 68a:	fc 91       	ld	r31, X
 68c:	3a 97       	sbiw	r30, 0x0a	; 10
 68e:	20 81       	ld	r18, Z
 690:	31 81       	ldd	r19, Z+1	; 0x01
 692:	82 0f       	add	r24, r18
 694:	93 1f       	adc	r25, r19
 696:	0c 94 00 00 	jmp	0	; 0x0 <_ZN21RandomAccessByteArray4seekEj>

0000069a <_ZTv0_n8_N21RandomAccessByteArray5writeEh>:
 69a:	dc 01       	movw	r26, r24
 69c:	ed 91       	ld	r30, X+
 69e:	fc 91       	ld	r31, X
 6a0:	38 97       	sbiw	r30, 0x08	; 8
 6a2:	20 81       	ld	r18, Z
 6a4:	31 81       	ldd	r19, Z+1	; 0x01
 6a6:	82 0f       	add	r24, r18
 6a8:	93 1f       	adc	r25, r19
 6aa:	0c 94 00 00 	jmp	0	; 0x0 <_ZN21RandomAccessByteArray4seekEj>

000006ae <_ZTv0_n6_N21RandomAccessByteArray5writeEPhi>:
 6ae:	dc 01       	movw	r26, r24
 6b0:	ed 91       	ld	r30, X+
 6b2:	fc 91       	ld	r31, X
 6b4:	36 97       	sbiw	r30, 0x06	; 6
 6b6:	20 81       	ld	r18, Z
 6b8:	31 81       	ldd	r19, Z+1	; 0x01
 6ba:	82 0f       	add	r24, r18
 6bc:	93 1f       	adc	r25, r19
 6be:	0c 94 00 00 	jmp	0	; 0x0 <_ZN21RandomAccessByteArray4seekEj>

000006c2 <_ZTv0_n6_N21RandomAccessByteArray5closeEv>:
 6c2:	08 95       	ret

000006c4 <_ZTv0_n6_N21RandomAccessByteArray4seekEj>:
 6c4:	dc 01       	movw	r26, r24
 6c6:	ed 91       	ld	r30, X+
 6c8:	fc 91       	ld	r31, X
 6ca:	36 97       	sbiw	r30, 0x06	; 6
 6cc:	20 81       	ld	r18, Z
 6ce:	31 81       	ldd	r19, Z+1	; 0x01
 6d0:	82 0f       	add	r24, r18
 6d2:	93 1f       	adc	r25, r19
 6d4:	0c 94 00 00 	jmp	0	; 0x0 <_ZN21RandomAccessByteArray4seekEj>

Disassembly of section .text._ZN12RandomAccessC2Ev:

00000000 <_ZN12RandomAccessC2Ev>:
   0:	fb 01       	movw	r30, r22
   2:	20 81       	ld	r18, Z
   4:	31 81       	ldd	r19, Z+1	; 0x01
   6:	dc 01       	movw	r26, r24
   8:	2d 93       	st	X+, r18
   a:	3c 93       	st	X, r19
   c:	42 81       	ldd	r20, Z+2	; 0x02
   e:	53 81       	ldd	r21, Z+3	; 0x03
  10:	d9 01       	movw	r26, r18
  12:	92 97       	sbiw	r26, 0x22	; 34
  14:	0d 90       	ld	r0, X+
  16:	bc 91       	ld	r27, X
  18:	a0 2d       	mov	r26, r0
  1a:	a8 0f       	add	r26, r24
  1c:	b9 1f       	adc	r27, r25
  1e:	4d 93       	st	X+, r20
  20:	5c 93       	st	X, r21
  22:	dc 01       	movw	r26, r24
  24:	2d 91       	ld	r18, X+
  26:	3c 91       	ld	r19, X
  28:	44 81       	ldd	r20, Z+4	; 0x04
  2a:	55 81       	ldd	r21, Z+5	; 0x05
  2c:	d9 01       	movw	r26, r18
  2e:	94 97       	sbiw	r26, 0x24	; 36
  30:	0d 90       	ld	r0, X+
  32:	bc 91       	ld	r27, X
  34:	a0 2d       	mov	r26, r0
  36:	a8 0f       	add	r26, r24
  38:	b9 1f       	adc	r27, r25
  3a:	4d 93       	st	X+, r20
  3c:	5c 93       	st	X, r21
  3e:	46 81       	ldd	r20, Z+6	; 0x06
  40:	57 81       	ldd	r21, Z+7	; 0x07
  42:	d9 01       	movw	r26, r18
  44:	96 97       	sbiw	r26, 0x26	; 38
  46:	0d 90       	ld	r0, X+
  48:	bc 91       	ld	r27, X
  4a:	a0 2d       	mov	r26, r0
  4c:	a8 0f       	add	r26, r24
  4e:	b9 1f       	adc	r27, r25
  50:	4d 93       	st	X+, r20
  52:	5c 93       	st	X, r21
  54:	40 85       	ldd	r20, Z+8	; 0x08
  56:	51 85       	ldd	r21, Z+9	; 0x09
  58:	f9 01       	movw	r30, r18
  5a:	b8 97       	sbiw	r30, 0x28	; 40
  5c:	01 90       	ld	r0, Z+
  5e:	f0 81       	ld	r31, Z
  60:	e0 2d       	mov	r30, r0
  62:	e8 0f       	add	r30, r24
  64:	f9 1f       	adc	r31, r25
  66:	51 83       	std	Z+1, r21	; 0x01
  68:	40 83       	st	Z, r20
  6a:	08 95       	ret

RandomAccess.o:     file format elf32-avr

Sections:
Idx Name          Size      VMA       LMA       File off  Algn
  0 .text         00000000  00000000  00000000  00000034  2**0
                  CONTENTS, ALLOC, LOAD, READONLY, CODE
  1 .data         00000000  00000000  00000000  00000034  2**0
                  CONTENTS, ALLOC, LOAD, DATA
  2 .bss          00000000  00000000  00000000  00000034  2**0
                  ALLOC
  3 .comment      00000012  00000000  00000000  00000034  2**0
                  CONTENTS, READONLY

PgmspaceSeekableInputStream.o:     file format elf32-avr

Sections:
Idx Name          Size      VMA       LMA       File off  Algn
  0 .group        00000008  00000000  00000000  00000034  2**2
                  CONTENTS, READONLY, EXCLUDE, GROUP, LINK_ONCE_DISCARD
  1 .group        00000014  00000000  00000000  0000003c  2**2
                  CONTENTS, READONLY, EXCLUDE, GROUP, LINK_ONCE_DISCARD
  2 .group        00000008  00000000  00000000  00000050  2**2
                  CONTENTS, READONLY, EXCLUDE, GROUP, LINK_ONCE_DISCARD
  3 .group        00000008  00000000  00000000  00000058  2**2
                  CONTENTS, READONLY, EXCLUDE, GROUP, LINK_ONCE_DISCARD
  4 .text         00000120  00000000  00000000  00000060  2**0
                  CONTENTS, ALLOC, LOAD, RELOC, READONLY, CODE
  5 .data         00000000  00000000  00000000  00000180  2**0
                  CONTENTS, ALLOC, LOAD, DATA
  6 .bss          00000000  00000000  00000000  00000180  2**0
                  ALLOC
  7 .text._ZN19SeekableInputStreamC2Ev 0000003e  00000000  00000000  00000180  2**0
                  CONTENTS, ALLOC, LOAD, READONLY, CODE
  8 .rodata._ZTC27PgmspaceSeekableInputStream2_19PgmspaceInputStream 0000002a  00000000  00000000  000001be  2**0
                  CONTENTS, ALLOC, LOAD, RELOC, READONLY, DATA
  9 .rodata._ZTC27PgmspaceSeekableInputStream0_19SeekableInputStream 00000034  00000000  00000000  000001e8  2**0
                  CONTENTS, ALLOC, LOAD, RELOC, READONLY, DATA
 10 .rodata._ZTT27PgmspaceSeekableInputStream 00000012  00000000  00000000  0000021c  2**0
                  CONTENTS, ALLOC, LOAD, RELOC, READONLY, DATA
 11 .rodata._ZTV27PgmspaceSeekableInputStream 00000036  00000000  00000000  0000022e  2**0
                  CONTENTS, ALLOC, LOAD, RELOC, READONLY, DATA
 12 .rodata._ZTV8Seekable 00000006  00000000  00000000  00000264  2**0
                  CONTENTS, ALLOC, LOAD, RELOC, READONLY, DATA
 13 .rodata._ZTV9Closeable 00000006  00000000  00000000  0000026a  2**0
                  CONTENTS, ALLOC, LOAD, RELOC, READONLY, DATA
 14 .comment      00000012  00000000  00000000  00000270  2**0
                  CONTENTS, READONLY

Disassembly of section .text:

00000000 <_ZN27PgmspaceSeekableInputStream4seekEj>:
   0:	fc 01       	movw	r30, r24
   2:	71 87       	std	Z+9, r23	; 0x09
   4:	60 87       	std	Z+8, r22	; 0x08
   6:	08 95       	ret

00000008 <_ZN27PgmspaceSeekableInputStreamC2EPcj>:
   8:	ef 92       	push	r14
   a:	ff 92       	push	r15
   c:	0f 93       	push	r16
   e:	1f 93       	push	r17
  10:	cf 93       	push	r28
  12:	df 93       	push	r29
  14:	00 d0       	rcall	.+0      	; 0x16 <_ZN27PgmspaceSeekableInputStreamC2EPcj+0xe>
  16:	00 d0       	rcall	.+0      	; 0x18 <_ZN27PgmspaceSeekableInputStreamC2EPcj+0x10>
  18:	cd b7       	in	r28, 0x3d	; 61
  1a:	de b7       	in	r29, 0x3e	; 62
  1c:	7c 01       	movw	r14, r24
  1e:	8b 01       	movw	r16, r22
  20:	6e 5f       	subi	r22, 0xFE	; 254
  22:	7f 4f       	sbci	r23, 0xFF	; 255
  24:	2b 83       	std	Y+3, r18	; 0x03
  26:	3c 83       	std	Y+4, r19	; 0x04
  28:	49 83       	std	Y+1, r20	; 0x01
  2a:	5a 83       	std	Y+2, r21	; 0x02
  2c:	0e 94 00 00 	call	0	; 0x0 <_ZN27PgmspaceSeekableInputStream4seekEj>
  30:	b8 01       	movw	r22, r16
  32:	68 5f       	subi	r22, 0xF8	; 248
  34:	7f 4f       	sbci	r23, 0xFF	; 255
  36:	2b 81       	ldd	r18, Y+3	; 0x03
  38:	3c 81       	ldd	r19, Y+4	; 0x04
  3a:	49 81       	ldd	r20, Y+1	; 0x01
  3c:	5a 81       	ldd	r21, Y+2	; 0x02
  3e:	c7 01       	movw	r24, r14
  40:	02 96       	adiw	r24, 0x02	; 2
  42:	0e 94 00 00 	call	0	; 0x0 <_ZN27PgmspaceSeekableInputStream4seekEj>
  46:	d8 01       	movw	r26, r16
  48:	8d 91       	ld	r24, X+
  4a:	9c 91       	ld	r25, X
  4c:	11 97       	sbiw	r26, 0x01	; 1
  4e:	f7 01       	movw	r30, r14
  50:	91 83       	std	Z+1, r25	; 0x01
  52:	80 83       	st	Z, r24
  54:	1c 96       	adiw	r26, 0x0c	; 12
  56:	2d 91       	ld	r18, X+
  58:	3c 91       	ld	r19, X
  5a:	1d 97       	sbiw	r26, 0x0d	; 13
  5c:	fc 01       	movw	r30, r24
  5e:	38 97       	sbiw	r30, 0x08	; 8
  60:	01 90       	ld	r0, Z+
  62:	f0 81       	ld	r31, Z
  64:	e0 2d       	mov	r30, r0
  66:	ee 0d       	add	r30, r14
  68:	ff 1d       	adc	r31, r15
  6a:	31 83       	std	Z+1, r19	; 0x01
  6c:	20 83       	st	Z, r18
  6e:	1e 96       	adiw	r26, 0x0e	; 14
  70:	8d 91       	ld	r24, X+
  72:	9c 91       	ld	r25, X
  74:	1f 97       	sbiw	r26, 0x0f	; 15
  76:	d7 01       	movw	r26, r14
  78:	ed 91       	ld	r30, X+
  7a:	fc 91       	ld	r31, X
  7c:	11 97       	sbiw	r26, 0x01	; 1
  7e:	3a 97       	sbiw	r30, 0x0a	; 10
  80:	01 90       	ld	r0, Z+
  82:	f0 81       	ld	r31, Z
  84:	e0 2d       	mov	r30, r0
  86:	ee 0d       	add	r30, r14
  88:	ff 1d       	adc	r31, r15
  8a:	91 83       	std	Z+1, r25	; 0x01
  8c:	80 83       	st	Z, r24
  8e:	f8 01       	movw	r30, r16
  90:	80 89       	ldd	r24, Z+16	; 0x10
  92:	91 89       	ldd	r25, Z+17	; 0x11
  94:	13 96       	adiw	r26, 0x03	; 3
  96:	9c 93       	st	X, r25
  98:	8e 93       	st	-X, r24
  9a:	12 97       	sbiw	r26, 0x02	; 2
  9c:	0f 90       	pop	r0
  9e:	0f 90       	pop	r0
  a0:	0f 90       	pop	r0
  a2:	0f 90       	pop	r0
  a4:	df 91       	pop	r29
  a6:	cf 91       	pop	r28
  a8:	1f 91       	pop	r17
  aa:	0f 91       	pop	r16
  ac:	ff 90       	pop	r15
  ae:	ef 90       	pop	r14
  b0:	08 95       	ret

000000b2 <_ZN27PgmspaceSeekableInputStreamC1EPcj>:
  b2:	ef 92       	push	r14
  b4:	ff 92       	push	r15
  b6:	0f 93       	push	r16
  b8:	1f 93       	push	r17
  ba:	cf 93       	push	r28
  bc:	df 93       	push	r29
  be:	ec 01       	movw	r28, r24
  c0:	8b 01       	movw	r16, r22
  c2:	7a 01       	movw	r14, r20
  c4:	80 e0       	ldi	r24, 0x00	; 0
  c6:	90 e0       	ldi	r25, 0x00	; 0
  c8:	99 83       	std	Y+1, r25	; 0x01
  ca:	88 83       	st	Y, r24
  cc:	80 e0       	ldi	r24, 0x00	; 0
  ce:	90 e0       	ldi	r25, 0x00	; 0
  d0:	9b 83       	std	Y+3, r25	; 0x03
  d2:	8a 83       	std	Y+2, r24	; 0x02
  d4:	60 e0       	ldi	r22, 0x00	; 0
  d6:	70 e0       	ldi	r23, 0x00	; 0
  d8:	ce 01       	movw	r24, r28
  da:	0e 94 00 00 	call	0	; 0x0 <_ZN27PgmspaceSeekableInputStream4seekEj>
  de:	97 01       	movw	r18, r14
  e0:	a8 01       	movw	r20, r16
  e2:	60 e0       	ldi	r22, 0x00	; 0
  e4:	70 e0       	ldi	r23, 0x00	; 0
  e6:	ce 01       	movw	r24, r28
  e8:	02 96       	adiw	r24, 0x02	; 2
  ea:	0e 94 00 00 	call	0	; 0x0 <_ZN27PgmspaceSeekableInputStream4seekEj>
  ee:	80 e0       	ldi	r24, 0x00	; 0
  f0:	90 e0       	ldi	r25, 0x00	; 0
  f2:	99 83       	std	Y+1, r25	; 0x01
  f4:	88 83       	st	Y, r24
  f6:	80 e0       	ldi	r24, 0x00	; 0
  f8:	90 e0       	ldi	r25, 0x00	; 0
  fa:	9b 83       	std	Y+3, r25	; 0x03
  fc:	8a 83       	std	Y+2, r24	; 0x02
  fe:	df 91       	pop	r29
 100:	cf 91       	pop	r28
 102:	1f 91       	pop	r17
 104:	0f 91       	pop	r16
 106:	ff 90       	pop	r15
 108:	ef 90       	pop	r14
 10a:	08 95       	ret

0000010c <_ZTv0_n6_N27PgmspaceSeekableInputStream4seekEj>:
 10c:	dc 01       	movw	r26, r24
 10e:	ed 91       	ld	r30, X+
 110:	fc 91       	ld	r31, X
 112:	36 97       	sbiw	r30, 0x06	; 6
 114:	20 81       	ld	r18, Z
 116:	31 81       	ldd	r19, Z+1	; 0x01
 118:	82 0f       	add	r24, r18
 11a:	93 1f       	adc	r25, r19
 11c:	0c 94 00 00 	jmp	0	; 0x0 <_ZN27PgmspaceSeekableInputStream4seekEj>

Disassembly of section .text._ZN19SeekableInputStreamC2Ev:

00000000 <_ZN19SeekableInputStreamC2Ev>:
   0:	fb 01       	movw	r30, r22
   2:	20 81       	ld	r18, Z
   4:	31 81       	ldd	r19, Z+1	; 0x01
   6:	dc 01       	movw	r26, r24
   8:	2d 93       	st	X+, r18
   a:	3c 93       	st	X, r19
   c:	42 81       	ldd	r20, Z+2	; 0x02
   e:	53 81       	ldd	r21, Z+3	; 0x03
  10:	d9 01       	movw	r26, r18
  12:	18 97       	sbiw	r26, 0x08	; 8
  14:	0d 90       	ld	r0, X+
  16:	bc 91       	ld	r27, X
  18:	a0 2d       	mov	r26, r0
  1a:	a8 0f       	add	r26, r24
  1c:	b9 1f       	adc	r27, r25
  1e:	4d 93       	st	X+, r20
  20:	5c 93       	st	X, r21
  22:	24 81       	ldd	r18, Z+4	; 0x04
  24:	35 81       	ldd	r19, Z+5	; 0x05
  26:	dc 01       	movw	r26, r24
  28:	ed 91       	ld	r30, X+
  2a:	fc 91       	ld	r31, X
  2c:	3a 97       	sbiw	r30, 0x0a	; 10
  2e:	01 90       	ld	r0, Z+
  30:	f0 81       	ld	r31, Z
  32:	e0 2d       	mov	r30, r0
  34:	e8 0f       	add	r30, r24
  36:	f9 1f       	adc	r31, r25
  38:	31 83       	std	Z+1, r19	; 0x01
  3a:	20 83       	st	Z, r18
  3c:	08 95       	ret

PgmspaceInputStream.o:     file format elf32-avr

Sections:
Idx Name          Size      VMA       LMA       File off  Algn
  0 .group        0000000c  00000000  00000000  00000034  2**2
                  CONTENTS, READONLY, EXCLUDE, GROUP, LINK_ONCE_DISCARD
  1 .group        00000008  00000000  00000000  00000040  2**2
                  CONTENTS, READONLY, EXCLUDE, GROUP, LINK_ONCE_DISCARD
  2 .text         00000118  00000000  00000000  00000048  2**0
                  CONTENTS, ALLOC, LOAD, RELOC, READONLY, CODE
  3 .data         00000000  00000000  00000000  00000160  2**0
                  CONTENTS, ALLOC, LOAD, DATA
  4 .bss          00000000  00000000  00000000  00000160  2**0
                  ALLOC
  5 .rodata._ZTT19PgmspaceInputStream 00000004  00000000  00000000  00000160  2**0
                  CONTENTS, ALLOC, LOAD, RELOC, READONLY, DATA
  6 .rodata._ZTV19PgmspaceInputStream 0000002a  00000000  00000000  00000164  2**0
                  CONTENTS, ALLOC, LOAD, RELOC, READONLY, DATA
  7 .rodata._ZTV9Closeable 00000006  00000000  00000000  0000018e  2**0
                  CONTENTS, ALLOC, LOAD, RELOC, READONLY, DATA
  8 .comment      00000012  00000000  00000000  00000194  2**0
                  CONTENTS, READONLY

Disassembly of section .text:

00000000 <_ZN19PgmspaceInputStream9availableEv>:
   0:	21 e0       	ldi	r18, 0x01	; 1
   2:	30 e0       	ldi	r19, 0x00	; 0
   4:	fc 01       	movw	r30, r24
   6:	44 81       	ldd	r20, Z+4	; 0x04
   8:	55 81       	ldd	r21, Z+5	; 0x05
   a:	86 81       	ldd	r24, Z+6	; 0x06
   c:	97 81       	ldd	r25, Z+7	; 0x07
   e:	48 17       	cp	r20, r24
  10:	59 07       	cpc	r21, r25
  12:	01 f4       	brne	.+0      	; 0x14 <_ZN19PgmspaceInputStream9availableEv+0x14>
  14:	20 e0       	ldi	r18, 0x00	; 0
  16:	30 e0       	ldi	r19, 0x00	; 0
  18:	c9 01       	movw	r24, r18
  1a:	08 95       	ret

0000001c <_ZN19PgmspaceInputStream4markEv>:
  1c:	fc 01       	movw	r30, r24
  1e:	26 81       	ldd	r18, Z+6	; 0x06
  20:	37 81       	ldd	r19, Z+7	; 0x07
  22:	31 87       	std	Z+9, r19	; 0x09
  24:	20 87       	std	Z+8, r18	; 0x08
  26:	08 95       	ret

00000028 <_ZN19PgmspaceInputStream13markSupportedEv>:
  28:	81 e0       	ldi	r24, 0x01	; 1
  2a:	08 95       	ret

0000002c <_ZN19PgmspaceInputStream4readEv>:
  2c:	dc 01       	movw	r26, r24
  2e:	16 96       	adiw	r26, 0x06	; 6
  30:	8d 91       	ld	r24, X+
  32:	9c 91       	ld	r25, X
  34:	17 97       	sbiw	r26, 0x07	; 7
  36:	12 96       	adiw	r26, 0x02	; 2
  38:	ed 91       	ld	r30, X+
  3a:	fc 91       	ld	r31, X
  3c:	13 97       	sbiw	r26, 0x03	; 3
  3e:	e8 0f       	add	r30, r24
  40:	f9 1f       	adc	r31, r25
  42:	01 96       	adiw	r24, 0x01	; 1
  44:	17 96       	adiw	r26, 0x07	; 7
  46:	9c 93       	st	X, r25
  48:	8e 93       	st	-X, r24
  4a:	16 97       	sbiw	r26, 0x06	; 6
  4c:	84 91       	lpm	r24, Z+
  4e:	90 e0       	ldi	r25, 0x00	; 0
  50:	08 95       	ret

00000052 <_ZN19PgmspaceInputStream5resetEv>:
  52:	fc 01       	movw	r30, r24
  54:	20 85       	ldd	r18, Z+8	; 0x08
  56:	31 85       	ldd	r19, Z+9	; 0x09
  58:	37 83       	std	Z+7, r19	; 0x07
  5a:	26 83       	std	Z+6, r18	; 0x06
  5c:	08 95       	ret

0000005e <_ZN19PgmspaceInputStreamC2EPcj>:
  5e:	fc 01       	movw	r30, r24
  60:	db 01       	movw	r26, r22
  62:	8d 91       	ld	r24, X+
  64:	9c 91       	ld	r25, X
  66:	11 97       	sbiw	r26, 0x01	; 1
  68:	91 83       	std	Z+1, r25	; 0x01
  6a:	80 83       	st	Z, r24
  6c:	12 96       	adiw	r26, 0x02	; 2
  6e:	6d 91       	ld	r22, X+
  70:	7c 91       	ld	r23, X
  72:	13 97       	sbiw	r26, 0x03	; 3
  74:	dc 01       	movw	r26, r24
  76:	58 97       	sbiw	r26, 0x18	; 24
  78:	0d 90       	ld	r0, X+
  7a:	bc 91       	ld	r27, X
  7c:	a0 2d       	mov	r26, r0
  7e:	ae 0f       	add	r26, r30
  80:	bf 1f       	adc	r27, r31
  82:	6d 93       	st	X+, r22
  84:	7c 93       	st	X, r23
  86:	53 83       	std	Z+3, r21	; 0x03
  88:	42 83       	std	Z+2, r20	; 0x02
  8a:	35 83       	std	Z+5, r19	; 0x05
  8c:	24 83       	std	Z+4, r18	; 0x04
  8e:	11 86       	std	Z+9, r1	; 0x09
  90:	10 86       	std	Z+8, r1	; 0x08
  92:	17 82       	std	Z+7, r1	; 0x07
  94:	16 82       	std	Z+6, r1	; 0x06
  96:	08 95       	ret

00000098 <_ZN19PgmspaceInputStreamC1EPcj>:
  98:	fc 01       	movw	r30, r24
  9a:	80 e0       	ldi	r24, 0x00	; 0
  9c:	90 e0       	ldi	r25, 0x00	; 0
  9e:	91 83       	std	Z+1, r25	; 0x01
  a0:	80 83       	st	Z, r24
  a2:	73 83       	std	Z+3, r23	; 0x03
  a4:	62 83       	std	Z+2, r22	; 0x02
  a6:	55 83       	std	Z+5, r21	; 0x05
  a8:	44 83       	std	Z+4, r20	; 0x04
  aa:	11 86       	std	Z+9, r1	; 0x09
  ac:	10 86       	std	Z+8, r1	; 0x08
  ae:	17 82       	std	Z+7, r1	; 0x07
  b0:	16 82       	std	Z+6, r1	; 0x06
  b2:	08 95       	ret

000000b4 <_ZTv0_n20_N19PgmspaceInputStream5resetEv>:
  b4:	dc 01       	movw	r26, r24
  b6:	ed 91       	ld	r30, X+
  b8:	fc 91       	ld	r31, X
  ba:	74 97       	sbiw	r30, 0x14	; 20
  bc:	20 81       	ld	r18, Z
  be:	31 81       	ldd	r19, Z+1	; 0x01
  c0:	82 0f       	add	r24, r18
  c2:	93 1f       	adc	r25, r19
  c4:	0c 94 00 00 	jmp	0	; 0x0 <_ZN19PgmspaceInputStream9availableEv>

000000c8 <_ZTv0_n14_N19PgmspaceInputStream4readEv>:
  c8:	dc 01       	movw	r26, r24
  ca:	ed 91       	ld	r30, X+
  cc:	fc 91       	ld	r31, X
  ce:	3e 97       	sbiw	r30, 0x0e	; 14
  d0:	20 81       	ld	r18, Z
  d2:	31 81       	ldd	r19, Z+1	; 0x01
  d4:	82 0f       	add	r24, r18
  d6:	93 1f       	adc	r25, r19
  d8:	0c 94 00 00 	jmp	0	; 0x0 <_ZN19PgmspaceInputStream9availableEv>

000000dc <_ZTv0_n12_N19PgmspaceInputStream13markSupportedEv>:
  dc:	dc 01       	movw	r26, r24
  de:	ed 91       	ld	r30, X+
  e0:	fc 91       	ld	r31, X
  e2:	3c 97       	sbiw	r30, 0x0c	; 12
  e4:	20 81       	ld	r18, Z
  e6:	31 81       	ldd	r19, Z+1	; 0x01
  e8:	82 0f       	add	r24, r18
  ea:	93 1f       	adc	r25, r19
  ec:	0c 94 00 00 	jmp	0	; 0x0 <_ZN19PgmspaceInputStream9availableEv>

000000f0 <_ZTv0_n10_N19PgmspaceInputStream4markEv>:
  f0:	dc 01       	movw	r26, r24
  f2:	ed 91       	ld	r30, X+
  f4:	fc 91       	ld	r31, X
  f6:	3a 97       	sbiw	r30, 0x0a	; 10
  f8:	20 81       	ld	r18, Z
  fa:	31 81       	ldd	r19, Z+1	; 0x01
  fc:	82 0f       	add	r24, r18
  fe:	93 1f       	adc	r25, r19
 100:	0c 94 00 00 	jmp	0	; 0x0 <_ZN19PgmspaceInputStream9availableEv>

00000104 <_ZTv0_n8_N19PgmspaceInputStream9availableEv>:
 104:	dc 01       	movw	r26, r24
 106:	ed 91       	ld	r30, X+
 108:	fc 91       	ld	r31, X
 10a:	38 97       	sbiw	r30, 0x08	; 8
 10c:	20 81       	ld	r18, Z
 10e:	31 81       	ldd	r19, Z+1	; 0x01
 110:	82 0f       	add	r24, r18
 112:	93 1f       	adc	r25, r19
 114:	0c 94 00 00 	jmp	0	; 0x0 <_ZN19PgmspaceInputStream9availableEv>

OutputStream.o:     file format elf32-avr

Sections:
Idx Name          Size      VMA       LMA       File off  Algn
  0 .group        00000008  00000000  00000000  00000034  2**2
                  CONTENTS, READONLY, EXCLUDE, GROUP, LINK_ONCE_DISCARD
  1 .text         00000074  00000000  00000000  0000003c  2**0
                  CONTENTS, ALLOC, LOAD, RELOC, READONLY, CODE
  2 .data         00000000  00000000  00000000  000000b0  2**0
                  CONTENTS, ALLOC, LOAD, DATA
  3 .bss          00000000  00000000  00000000  000000b0  2**0
                  ALLOC
  4 .rodata._ZTV12OutputStream 0000000e  00000000  00000000  000000b0  2**0
                  CONTENTS, ALLOC, LOAD, RELOC, READONLY, DATA
  5 .comment      00000012  00000000  00000000  000000be  2**0
                  CONTENTS, READONLY

Disassembly of section .text:

00000000 <_ZN12OutputStream5writeEPhi>:
   0:	9a 01       	movw	r18, r20
   2:	dc 01       	movw	r26, r24
   4:	ed 91       	ld	r30, X+
   6:	fc 91       	ld	r31, X
   8:	00 84       	ldd	r0, Z+8	; 0x08
   a:	f1 85       	ldd	r31, Z+9	; 0x09
   c:	e0 2d       	mov	r30, r0
   e:	40 e0       	ldi	r20, 0x00	; 0
  10:	50 e0       	ldi	r21, 0x00	; 0
  12:	09 94       	ijmp

00000014 <_ZN12OutputStream5flushEv>:
  14:	08 95       	ret

00000016 <_ZN12OutputStream5closeEv>:
  16:	08 95       	ret

00000018 <_ZN12OutputStream5writeEPhii>:
  18:	cf 92       	push	r12
  1a:	df 92       	push	r13
  1c:	ef 92       	push	r14
  1e:	ff 92       	push	r15
  20:	0f 93       	push	r16
  22:	1f 93       	push	r17
  24:	cf 93       	push	r28
  26:	df 93       	push	r29
  28:	8c 01       	movw	r16, r24
  2a:	69 01       	movw	r12, r18
  2c:	61 15       	cp	r22, r1
  2e:	71 05       	cpc	r23, r1
  30:	01 f0       	breq	.+0      	; 0x32 <_ZN12OutputStream5writeEPhii+0x1a>
  32:	21 15       	cp	r18, r1
  34:	31 05       	cpc	r19, r1
  36:	01 f0       	breq	.+0      	; 0x38 <_ZN12OutputStream5writeEPhii+0x20>
  38:	7b 01       	movw	r14, r22
  3a:	e4 0e       	add	r14, r20
  3c:	f5 1e       	adc	r15, r21
  3e:	c0 e0       	ldi	r28, 0x00	; 0
  40:	d0 e0       	ldi	r29, 0x00	; 0
  42:	00 c0       	rjmp	.+0      	; 0x44 <_ZN12OutputStream5writeEPhii+0x2c>
  44:	d7 01       	movw	r26, r14
  46:	6d 91       	ld	r22, X+
  48:	7d 01       	movw	r14, r26
  4a:	d8 01       	movw	r26, r16
  4c:	ed 91       	ld	r30, X+
  4e:	fc 91       	ld	r31, X
  50:	04 80       	ldd	r0, Z+4	; 0x04
  52:	f5 81       	ldd	r31, Z+5	; 0x05
  54:	e0 2d       	mov	r30, r0
  56:	c8 01       	movw	r24, r16
  58:	09 95       	icall
  5a:	21 96       	adiw	r28, 0x01	; 1
  5c:	cc 15       	cp	r28, r12
  5e:	dd 05       	cpc	r29, r13
  60:	04 f0       	brlt	.+0      	; 0x62 <_ZN12OutputStream5writeEPhii+0x4a>
  62:	df 91       	pop	r29
  64:	cf 91       	pop	r28
  66:	1f 91       	pop	r17
  68:	0f 91       	pop	r16
  6a:	ff 90       	pop	r15
  6c:	ef 90       	pop	r14
  6e:	df 90       	pop	r13
  70:	cf 90       	pop	r12
  72:	08 95       	ret

InputStream.o:     file format elf32-avr

Sections:
Idx Name          Size      VMA       LMA       File off  Algn
  0 .group        00000008  00000000  00000000  00000034  2**2
                  CONTENTS, READONLY, EXCLUDE, GROUP, LINK_ONCE_DISCARD
  1 .text         00000100  00000000  00000000  0000003c  2**0
                  CONTENTS, ALLOC, LOAD, RELOC, READONLY, CODE
  2 .data         00000000  00000000  00000000  0000013c  2**0
                  CONTENTS, ALLOC, LOAD, DATA
  3 .bss          00000000  00000000  00000000  0000013c  2**0
                  ALLOC
  4 .rodata._ZTV11InputStream 00000016  00000000  00000000  0000013c  2**0
                  CONTENTS, ALLOC, LOAD, RELOC, READONLY, DATA
  5 .comment      00000012  00000000  00000000  00000152  2**0
                  CONTENTS, READONLY

Disassembly of section .text:

00000000 <_ZN11InputStream9availableEv>:
   0:	80 e0       	ldi	r24, 0x00	; 0
   2:	90 e0       	ldi	r25, 0x00	; 0
   4:	08 95       	ret

00000006 <_ZN11InputStream5closeEv>:
   6:	08 95       	ret

00000008 <_ZN11InputStream4markEv>:
   8:	08 95       	ret

0000000a <_ZN11InputStream13markSupportedEv>:
   a:	80 e0       	ldi	r24, 0x00	; 0
   c:	08 95       	ret

0000000e <_ZN11InputStream4readEPhi>:
   e:	9a 01       	movw	r18, r20
  10:	dc 01       	movw	r26, r24
  12:	ed 91       	ld	r30, X+
  14:	fc 91       	ld	r31, X
  16:	04 84       	ldd	r0, Z+12	; 0x0c
  18:	f5 85       	ldd	r31, Z+13	; 0x0d
  1a:	e0 2d       	mov	r30, r0
  1c:	40 e0       	ldi	r20, 0x00	; 0
  1e:	50 e0       	ldi	r21, 0x00	; 0
  20:	09 94       	ijmp

00000022 <_ZN11InputStream4readEPhii>:
  22:	cf 92       	push	r12
  24:	df 92       	push	r13
  26:	ef 92       	push	r14
  28:	ff 92       	push	r15
  2a:	0f 93       	push	r16
  2c:	1f 93       	push	r17
  2e:	cf 93       	push	r28
  30:	df 93       	push	r29
  32:	8c 01       	movw	r16, r24
  34:	eb 01       	movw	r28, r22
  36:	7a 01       	movw	r14, r20
  38:	69 01       	movw	r12, r18
  3a:	20 97       	sbiw	r28, 0x00	; 0
  3c:	01 f0       	breq	.+0      	; 0x3e <_ZN11InputStream4readEPhii+0x1c>
  3e:	dc 01       	movw	r26, r24
  40:	ed 91       	ld	r30, X+
  42:	fc 91       	ld	r31, X
  44:	00 84       	ldd	r0, Z+8	; 0x08
  46:	f1 85       	ldd	r31, Z+9	; 0x09
  48:	e0 2d       	mov	r30, r0
  4a:	09 95       	icall
  4c:	8f 3f       	cpi	r24, 0xFF	; 255
  4e:	bf ef       	ldi	r27, 0xFF	; 255
  50:	9b 07       	cpc	r25, r27
  52:	01 f0       	breq	.+0      	; 0x54 <_ZN11InputStream4readEPhii+0x32>
  54:	ec 0e       	add	r14, r28
  56:	fd 1e       	adc	r15, r29
  58:	f7 01       	movw	r30, r14
  5a:	80 83       	st	Z, r24
  5c:	c1 e0       	ldi	r28, 0x01	; 1
  5e:	d0 e0       	ldi	r29, 0x00	; 0
  60:	00 c0       	rjmp	.+0      	; 0x62 <_ZN11InputStream4readEPhii+0x40>
  62:	d8 01       	movw	r26, r16
  64:	ed 91       	ld	r30, X+
  66:	fc 91       	ld	r31, X
  68:	00 84       	ldd	r0, Z+8	; 0x08
  6a:	f1 85       	ldd	r31, Z+9	; 0x09
  6c:	e0 2d       	mov	r30, r0
  6e:	c8 01       	movw	r24, r16
  70:	09 95       	icall
  72:	8f 3f       	cpi	r24, 0xFF	; 255
  74:	bf ef       	ldi	r27, 0xFF	; 255
  76:	9b 07       	cpc	r25, r27
  78:	01 f0       	breq	.+0      	; 0x7a <_ZN11InputStream4readEPhii+0x58>
  7a:	f7 01       	movw	r30, r14
  7c:	ec 0f       	add	r30, r28
  7e:	fd 1f       	adc	r31, r29
  80:	80 83       	st	Z, r24
  82:	21 96       	adiw	r28, 0x01	; 1
  84:	cc 15       	cp	r28, r12
  86:	dd 05       	cpc	r29, r13
  88:	04 f0       	brlt	.+0      	; 0x8a <_ZN11InputStream4readEPhii+0x68>
  8a:	00 c0       	rjmp	.+0      	; 0x8c <_ZN11InputStream4readEPhii+0x6a>
  8c:	c0 e0       	ldi	r28, 0x00	; 0
  8e:	d0 e0       	ldi	r29, 0x00	; 0
  90:	00 c0       	rjmp	.+0      	; 0x92 <_ZN11InputStream4readEPhii+0x70>
  92:	cf ef       	ldi	r28, 0xFF	; 255
  94:	df ef       	ldi	r29, 0xFF	; 255
  96:	ce 01       	movw	r24, r28
  98:	df 91       	pop	r29
  9a:	cf 91       	pop	r28
  9c:	1f 91       	pop	r17
  9e:	0f 91       	pop	r16
  a0:	ff 90       	pop	r15
  a2:	ef 90       	pop	r14
  a4:	df 90       	pop	r13
  a6:	cf 90       	pop	r12
  a8:	08 95       	ret

000000aa <_ZN11InputStream5resetEv>:
  aa:	08 95       	ret

000000ac <_ZN11InputStream4skipEj>:
  ac:	ef 92       	push	r14
  ae:	ff 92       	push	r15
  b0:	0f 93       	push	r16
  b2:	1f 93       	push	r17
  b4:	cf 93       	push	r28
  b6:	df 93       	push	r29
  b8:	8c 01       	movw	r16, r24
  ba:	7b 01       	movw	r14, r22
  bc:	c0 e0       	ldi	r28, 0x00	; 0
  be:	d0 e0       	ldi	r29, 0x00	; 0
  c0:	ce 15       	cp	r28, r14
  c2:	df 05       	cpc	r29, r15
  c4:	01 f0       	breq	.+0      	; 0xc6 <_ZN11InputStream4skipEj+0x1a>
  c6:	d8 01       	movw	r26, r16
  c8:	ed 91       	ld	r30, X+
  ca:	fc 91       	ld	r31, X
  cc:	02 80       	ldd	r0, Z+2	; 0x02
  ce:	f3 81       	ldd	r31, Z+3	; 0x03
  d0:	e0 2d       	mov	r30, r0
  d2:	c8 01       	movw	r24, r16
  d4:	09 95       	icall
  d6:	18 16       	cp	r1, r24
  d8:	19 06       	cpc	r1, r25
  da:	04 f4       	brge	.+0      	; 0xdc <_ZN11InputStream4skipEj+0x30>
  dc:	d8 01       	movw	r26, r16
  de:	ed 91       	ld	r30, X+
  e0:	fc 91       	ld	r31, X
  e2:	00 84       	ldd	r0, Z+8	; 0x08
  e4:	f1 85       	ldd	r31, Z+9	; 0x09
  e6:	e0 2d       	mov	r30, r0
  e8:	c8 01       	movw	r24, r16
  ea:	09 95       	icall
  ec:	21 96       	adiw	r28, 0x01	; 1
  ee:	00 c0       	rjmp	.+0      	; 0xf0 <_ZN11InputStream4skipEj+0x44>
  f0:	ce 01       	movw	r24, r28
  f2:	df 91       	pop	r29
  f4:	cf 91       	pop	r28
  f6:	1f 91       	pop	r17
  f8:	0f 91       	pop	r16
  fa:	ff 90       	pop	r15
  fc:	ef 90       	pop	r14
  fe:	08 95       	ret

HardwareSerialOutputStream.o:     file format elf32-avr

Sections:
Idx Name          Size      VMA       LMA       File off  Algn
  0 .group        00000008  00000000  00000000  00000034  2**2
                  CONTENTS, READONLY, EXCLUDE, GROUP, LINK_ONCE_DISCARD
  1 .group        00000008  00000000  00000000  0000003c  2**2
                  CONTENTS, READONLY, EXCLUDE, GROUP, LINK_ONCE_DISCARD
  2 .group        00000008  00000000  00000000  00000044  2**2
                  CONTENTS, READONLY, EXCLUDE, GROUP, LINK_ONCE_DISCARD
  3 .text         00000022  00000000  00000000  0000004c  2**0
                  CONTENTS, ALLOC, LOAD, RELOC, READONLY, CODE
  4 .data         00000000  00000000  00000000  0000006e  2**0
                  CONTENTS, ALLOC, LOAD, DATA
  5 .bss          00000000  00000000  00000000  0000006e  2**0
                  ALLOC
  6 .rodata._ZTV26HardwareSerialOutputStream 0000000e  00000000  00000000  0000006e  2**0
                  CONTENTS, ALLOC, LOAD, RELOC, READONLY, DATA
  7 .rodata._ZTV9Closeable 00000006  00000000  00000000  0000007c  2**0
                  CONTENTS, ALLOC, LOAD, RELOC, READONLY, DATA
  8 .rodata._ZTV18SerialOutputStream 0000000e  00000000  00000000  00000082  2**0
                  CONTENTS, ALLOC, LOAD, RELOC, READONLY, DATA
  9 .comment      00000012  00000000  00000000  00000090  2**0
                  CONTENTS, READONLY

Disassembly of section .text:

00000000 <_ZN26HardwareSerialOutputStream5writeEh>:
   0:	80 e0       	ldi	r24, 0x00	; 0
   2:	90 e0       	ldi	r25, 0x00	; 0
   4:	0c 94 00 00 	jmp	0	; 0x0 <_ZN26HardwareSerialOutputStream5writeEh>

00000008 <_ZN26HardwareSerialOutputStreamC1Ej>:
   8:	20 e0       	ldi	r18, 0x00	; 0
   a:	30 e0       	ldi	r19, 0x00	; 0
   c:	fc 01       	movw	r30, r24
   e:	31 83       	std	Z+1, r19	; 0x01
  10:	20 83       	st	Z, r18
  12:	40 e8       	ldi	r20, 0x80	; 128
  14:	55 e2       	ldi	r21, 0x25	; 37
  16:	60 e0       	ldi	r22, 0x00	; 0
  18:	70 e0       	ldi	r23, 0x00	; 0
  1a:	80 e0       	ldi	r24, 0x00	; 0
  1c:	90 e0       	ldi	r25, 0x00	; 0
  1e:	0c 94 00 00 	jmp	0	; 0x0 <_ZN26HardwareSerialOutputStream5writeEh>

HardwareSerialInputStream.o:     file format elf32-avr

Sections:
Idx Name          Size      VMA       LMA       File off  Algn
  0 .group        00000008  00000000  00000000  00000034  2**2
                  CONTENTS, READONLY, EXCLUDE, GROUP, LINK_ONCE_DISCARD
  1 .group        00000008  00000000  00000000  0000003c  2**2
                  CONTENTS, READONLY, EXCLUDE, GROUP, LINK_ONCE_DISCARD
  2 .group        00000008  00000000  00000000  00000044  2**2
                  CONTENTS, READONLY, EXCLUDE, GROUP, LINK_ONCE_DISCARD
  3 .text         00000042  00000000  00000000  0000004c  2**0
                  CONTENTS, ALLOC, LOAD, RELOC, READONLY, CODE
  4 .data         00000000  00000000  00000000  0000008e  2**0
                  CONTENTS, ALLOC, LOAD, DATA
  5 .bss          00000000  00000000  00000000  0000008e  2**0
                  ALLOC
  6 .rodata._ZTV25HardwareSerialInputStream 00000016  00000000  00000000  0000008e  2**0
                  CONTENTS, ALLOC, LOAD, RELOC, READONLY, DATA
  7 .rodata._ZTV9Closeable 00000006  00000000  00000000  000000a4  2**0
                  CONTENTS, ALLOC, LOAD, RELOC, READONLY, DATA
  8 .rodata._ZTV17SerialInputStream 00000016  00000000  00000000  000000aa  2**0
                  CONTENTS, ALLOC, LOAD, RELOC, READONLY, DATA
  9 .comment      00000012  00000000  00000000  000000c0  2**0
                  CONTENTS, READONLY

Disassembly of section .text:

00000000 <_ZN25HardwareSerialInputStream4readEv>:
   0:	dc 01       	movw	r26, r24
   2:	ed 91       	ld	r30, X+
   4:	fc 91       	ld	r31, X
   6:	02 80       	ldd	r0, Z+2	; 0x02
   8:	f3 81       	ldd	r31, Z+3	; 0x03
   a:	e0 2d       	mov	r30, r0
   c:	09 95       	icall
   e:	18 16       	cp	r1, r24
  10:	19 06       	cpc	r1, r25
  12:	04 f4       	brge	.+0      	; 0x14 <_ZN25HardwareSerialInputStream4readEv+0x14>
  14:	80 e0       	ldi	r24, 0x00	; 0
  16:	90 e0       	ldi	r25, 0x00	; 0
  18:	0c 94 00 00 	jmp	0	; 0x0 <_ZN25HardwareSerialInputStream4readEv>
  1c:	8f ef       	ldi	r24, 0xFF	; 255
  1e:	9f ef       	ldi	r25, 0xFF	; 255
  20:	08 95       	ret

00000022 <_ZN25HardwareSerialInputStream9availableEv>:
  22:	80 e0       	ldi	r24, 0x00	; 0
  24:	90 e0       	ldi	r25, 0x00	; 0
  26:	0c 94 00 00 	jmp	0	; 0x0 <_ZN25HardwareSerialInputStream4readEv>

0000002a <_ZN25HardwareSerialInputStreamC1Ej>:
  2a:	20 e0       	ldi	r18, 0x00	; 0
  2c:	30 e0       	ldi	r19, 0x00	; 0
  2e:	fc 01       	movw	r30, r24
  30:	31 83       	std	Z+1, r19	; 0x01
  32:	20 83       	st	Z, r18
  34:	ab 01       	movw	r20, r22
  36:	60 e0       	ldi	r22, 0x00	; 0
  38:	70 e0       	ldi	r23, 0x00	; 0
  3a:	80 e0       	ldi	r24, 0x00	; 0
  3c:	90 e0       	ldi	r25, 0x00	; 0
  3e:	0c 94 00 00 	jmp	0	; 0x0 <_ZN25HardwareSerialInputStream4readEv>

FilterOutputStream.o:     file format elf32-avr

Sections:
Idx Name          Size      VMA       LMA       File off  Algn
  0 .group        00000008  00000000  00000000  00000034  2**2
                  CONTENTS, READONLY, EXCLUDE, GROUP, LINK_ONCE_DISCARD
  1 .group        00000008  00000000  00000000  0000003c  2**2
                  CONTENTS, READONLY, EXCLUDE, GROUP, LINK_ONCE_DISCARD
  2 .text         0000009e  00000000  00000000  00000044  2**0
                  CONTENTS, ALLOC, LOAD, RELOC, READONLY, CODE
  3 .data         00000000  00000000  00000000  000000e2  2**0
                  CONTENTS, ALLOC, LOAD, DATA
  4 .bss          00000000  00000000  00000000  000000e2  2**0
                  ALLOC
  5 .rodata._ZTV18FilterOutputStream 0000000e  00000000  00000000  000000e2  2**0
                  CONTENTS, ALLOC, LOAD, RELOC, READONLY, DATA
  6 .rodata._ZTV9Closeable 00000006  00000000  00000000  000000f0  2**0
                  CONTENTS, ALLOC, LOAD, RELOC, READONLY, DATA
  7 .comment      00000012  00000000  00000000  000000f6  2**0
                  CONTENTS, READONLY

Disassembly of section .text:

00000000 <_ZN18FilterOutputStream5writeEh>:
   0:	dc 01       	movw	r26, r24
   2:	12 96       	adiw	r26, 0x02	; 2
   4:	8d 91       	ld	r24, X+
   6:	9c 91       	ld	r25, X
   8:	13 97       	sbiw	r26, 0x03	; 3
   a:	dc 01       	movw	r26, r24
   c:	ed 91       	ld	r30, X+
   e:	fc 91       	ld	r31, X
  10:	04 80       	ldd	r0, Z+4	; 0x04
  12:	f5 81       	ldd	r31, Z+5	; 0x05
  14:	e0 2d       	mov	r30, r0
  16:	09 94       	ijmp

00000018 <_ZN18FilterOutputStream5writeEPhi>:
  18:	dc 01       	movw	r26, r24
  1a:	12 96       	adiw	r26, 0x02	; 2
  1c:	8d 91       	ld	r24, X+
  1e:	9c 91       	ld	r25, X
  20:	13 97       	sbiw	r26, 0x03	; 3
  22:	dc 01       	movw	r26, r24
  24:	ed 91       	ld	r30, X+
  26:	fc 91       	ld	r31, X
  28:	06 80       	ldd	r0, Z+6	; 0x06
  2a:	f7 81       	ldd	r31, Z+7	; 0x07
  2c:	e0 2d       	mov	r30, r0
  2e:	09 94       	ijmp

00000030 <_ZN18FilterOutputStream5writeEPhii>:
  30:	dc 01       	movw	r26, r24
  32:	12 96       	adiw	r26, 0x02	; 2
  34:	8d 91       	ld	r24, X+
  36:	9c 91       	ld	r25, X
  38:	13 97       	sbiw	r26, 0x03	; 3
  3a:	dc 01       	movw	r26, r24
  3c:	ed 91       	ld	r30, X+
  3e:	fc 91       	ld	r31, X
  40:	00 84       	ldd	r0, Z+8	; 0x08
  42:	f1 85       	ldd	r31, Z+9	; 0x09
  44:	e0 2d       	mov	r30, r0
  46:	09 94       	ijmp

00000048 <_ZN18FilterOutputStream5flushEv>:
  48:	dc 01       	movw	r26, r24
  4a:	12 96       	adiw	r26, 0x02	; 2
  4c:	8d 91       	ld	r24, X+
  4e:	9c 91       	ld	r25, X
  50:	13 97       	sbiw	r26, 0x03	; 3
  52:	dc 01       	movw	r26, r24
  54:	ed 91       	ld	r30, X+
  56:	fc 91       	ld	r31, X
  58:	02 80       	ldd	r0, Z+2	; 0x02
  5a:	f3 81       	ldd	r31, Z+3	; 0x03
  5c:	e0 2d       	mov	r30, r0
  5e:	09 94       	ijmp

00000060 <_ZN18FilterOutputStream5closeEv>:
  60:	cf 93       	push	r28
  62:	df 93       	push	r29
  64:	ec 01       	movw	r28, r24
  66:	8a 81       	ldd	r24, Y+2	; 0x02
  68:	9b 81       	ldd	r25, Y+3	; 0x03
  6a:	dc 01       	movw	r26, r24
  6c:	ed 91       	ld	r30, X+
  6e:	fc 91       	ld	r31, X
  70:	02 80       	ldd	r0, Z+2	; 0x02
  72:	f3 81       	ldd	r31, Z+3	; 0x03
  74:	e0 2d       	mov	r30, r0
  76:	09 95       	icall
  78:	8a 81       	ldd	r24, Y+2	; 0x02
  7a:	9b 81       	ldd	r25, Y+3	; 0x03
  7c:	dc 01       	movw	r26, r24
  7e:	ed 91       	ld	r30, X+
  80:	fc 91       	ld	r31, X
  82:	01 90       	ld	r0, Z+
  84:	f0 81       	ld	r31, Z
  86:	e0 2d       	mov	r30, r0
  88:	df 91       	pop	r29
  8a:	cf 91       	pop	r28
  8c:	09 94       	ijmp

0000008e <_ZN18FilterOutputStreamC1EP12OutputStream>:
  8e:	20 e0       	ldi	r18, 0x00	; 0
  90:	30 e0       	ldi	r19, 0x00	; 0
  92:	fc 01       	movw	r30, r24
  94:	31 83       	std	Z+1, r19	; 0x01
  96:	20 83       	st	Z, r18
  98:	73 83       	std	Z+3, r23	; 0x03
  9a:	62 83       	std	Z+2, r22	; 0x02
  9c:	08 95       	ret

FilterInputStream.o:     file format elf32-avr

Sections:
Idx Name          Size      VMA       LMA       File off  Algn
  0 .group        0000000c  00000000  00000000  00000034  2**2
                  CONTENTS, READONLY, EXCLUDE, GROUP, LINK_ONCE_DISCARD
  1 .group        00000008  00000000  00000000  00000040  2**2
                  CONTENTS, READONLY, EXCLUDE, GROUP, LINK_ONCE_DISCARD
  2 .text         000001ca  00000000  00000000  00000048  2**0
                  CONTENTS, ALLOC, LOAD, RELOC, READONLY, CODE
  3 .data         00000000  00000000  00000000  00000212  2**0
                  CONTENTS, ALLOC, LOAD, DATA
  4 .bss          00000000  00000000  00000000  00000212  2**0
                  ALLOC
  5 .rodata._ZTT17FilterInputStream 00000004  00000000  00000000  00000212  2**0
                  CONTENTS, ALLOC, LOAD, RELOC, READONLY, DATA
  6 .rodata._ZTV17FilterInputStream 0000002a  00000000  00000000  00000216  2**0
                  CONTENTS, ALLOC, LOAD, RELOC, READONLY, DATA
  7 .rodata._ZTV9Closeable 00000006  00000000  00000000  00000240  2**0
                  CONTENTS, ALLOC, LOAD, RELOC, READONLY, DATA
  8 .comment      00000012  00000000  00000000  00000246  2**0
                  CONTENTS, READONLY

Disassembly of section .text:

00000000 <_ZN17FilterInputStream4readEv>:
   0:	dc 01       	movw	r26, r24
   2:	12 96       	adiw	r26, 0x02	; 2
   4:	8d 91       	ld	r24, X+
   6:	9c 91       	ld	r25, X
   8:	13 97       	sbiw	r26, 0x03	; 3
   a:	dc 01       	movw	r26, r24
   c:	ed 91       	ld	r30, X+
   e:	fc 91       	ld	r31, X
  10:	00 84       	ldd	r0, Z+8	; 0x08
  12:	f1 85       	ldd	r31, Z+9	; 0x09
  14:	e0 2d       	mov	r30, r0
  16:	09 94       	ijmp

00000018 <_ZN17FilterInputStream4readEPhi>:
  18:	dc 01       	movw	r26, r24
  1a:	12 96       	adiw	r26, 0x02	; 2
  1c:	8d 91       	ld	r24, X+
  1e:	9c 91       	ld	r25, X
  20:	13 97       	sbiw	r26, 0x03	; 3
  22:	dc 01       	movw	r26, r24
  24:	ed 91       	ld	r30, X+
  26:	fc 91       	ld	r31, X
  28:	02 84       	ldd	r0, Z+10	; 0x0a
  2a:	f3 85       	ldd	r31, Z+11	; 0x0b
  2c:	e0 2d       	mov	r30, r0
  2e:	09 94       	ijmp

00000030 <_ZN17FilterInputStream4readEPhii>:
  30:	dc 01       	movw	r26, r24
  32:	12 96       	adiw	r26, 0x02	; 2
  34:	8d 91       	ld	r24, X+
  36:	9c 91       	ld	r25, X
  38:	13 97       	sbiw	r26, 0x03	; 3
  3a:	dc 01       	movw	r26, r24
  3c:	ed 91       	ld	r30, X+
  3e:	fc 91       	ld	r31, X
  40:	04 84       	ldd	r0, Z+12	; 0x0c
  42:	f5 85       	ldd	r31, Z+13	; 0x0d
  44:	e0 2d       	mov	r30, r0
  46:	09 94       	ijmp

00000048 <_ZN17FilterInputStream4skipEj>:
  48:	dc 01       	movw	r26, r24
  4a:	12 96       	adiw	r26, 0x02	; 2
  4c:	8d 91       	ld	r24, X+
  4e:	9c 91       	ld	r25, X
  50:	13 97       	sbiw	r26, 0x03	; 3
  52:	dc 01       	movw	r26, r24
  54:	ed 91       	ld	r30, X+
  56:	fc 91       	ld	r31, X
  58:	00 88       	ldd	r0, Z+16	; 0x10
  5a:	f1 89       	ldd	r31, Z+17	; 0x11
  5c:	e0 2d       	mov	r30, r0
  5e:	09 94       	ijmp

00000060 <_ZN17FilterInputStream9availableEv>:
  60:	dc 01       	movw	r26, r24
  62:	12 96       	adiw	r26, 0x02	; 2
  64:	8d 91       	ld	r24, X+
  66:	9c 91       	ld	r25, X
  68:	13 97       	sbiw	r26, 0x03	; 3
  6a:	dc 01       	movw	r26, r24
  6c:	ed 91       	ld	r30, X+
  6e:	fc 91       	ld	r31, X
  70:	02 80       	ldd	r0, Z+2	; 0x02
  72:	f3 81       	ldd	r31, Z+3	; 0x03
  74:	e0 2d       	mov	r30, r0
  76:	09 94       	ijmp

00000078 <_ZN17FilterInputStream5closeEv>:
  78:	dc 01       	movw	r26, r24
  7a:	12 96       	adiw	r26, 0x02	; 2
  7c:	8d 91       	ld	r24, X+
  7e:	9c 91       	ld	r25, X
  80:	13 97       	sbiw	r26, 0x03	; 3
  82:	dc 01       	movw	r26, r24
  84:	ed 91       	ld	r30, X+
  86:	fc 91       	ld	r31, X
  88:	01 90       	ld	r0, Z+
  8a:	f0 81       	ld	r31, Z
  8c:	e0 2d       	mov	r30, r0
  8e:	09 94       	ijmp

00000090 <_ZN17FilterInputStream4markEv>:
  90:	dc 01       	movw	r26, r24
  92:	12 96       	adiw	r26, 0x02	; 2
  94:	8d 91       	ld	r24, X+
  96:	9c 91       	ld	r25, X
  98:	13 97       	sbiw	r26, 0x03	; 3
  9a:	dc 01       	movw	r26, r24
  9c:	ed 91       	ld	r30, X+
  9e:	fc 91       	ld	r31, X
  a0:	04 80       	ldd	r0, Z+4	; 0x04
  a2:	f5 81       	ldd	r31, Z+5	; 0x05
  a4:	e0 2d       	mov	r30, r0
  a6:	09 94       	ijmp

000000a8 <_ZN17FilterInputStream5resetEv>:
  a8:	dc 01       	movw	r26, r24
  aa:	12 96       	adiw	r26, 0x02	; 2
  ac:	8d 91       	ld	r24, X+
  ae:	9c 91       	ld	r25, X
  b0:	13 97       	sbiw	r26, 0x03	; 3
  b2:	dc 01       	movw	r26, r24
  b4:	ed 91       	ld	r30, X+
  b6:	fc 91       	ld	r31, X
  b8:	06 84       	ldd	r0, Z+14	; 0x0e
  ba:	f7 85       	ldd	r31, Z+15	; 0x0f
  bc:	e0 2d       	mov	r30, r0
  be:	09 94       	ijmp

000000c0 <_ZN17FilterInputStream13markSupportedEv>:
  c0:	dc 01       	movw	r26, r24
  c2:	12 96       	adiw	r26, 0x02	; 2
  c4:	8d 91       	ld	r24, X+
  c6:	9c 91       	ld	r25, X
  c8:	13 97       	sbiw	r26, 0x03	; 3
  ca:	dc 01       	movw	r26, r24
  cc:	ed 91       	ld	r30, X+
  ce:	fc 91       	ld	r31, X
  d0:	06 80       	ldd	r0, Z+6	; 0x06
  d2:	f7 81       	ldd	r31, Z+7	; 0x07
  d4:	e0 2d       	mov	r30, r0
  d6:	09 94       	ijmp

000000d8 <_ZN17FilterInputStreamC2EP11InputStream>:
  d8:	fb 01       	movw	r30, r22
  da:	20 81       	ld	r18, Z
  dc:	31 81       	ldd	r19, Z+1	; 0x01
  de:	fc 01       	movw	r30, r24
  e0:	31 83       	std	Z+1, r19	; 0x01
  e2:	20 83       	st	Z, r18
  e4:	fb 01       	movw	r30, r22
  e6:	62 81       	ldd	r22, Z+2	; 0x02
  e8:	73 81       	ldd	r23, Z+3	; 0x03
  ea:	f9 01       	movw	r30, r18
  ec:	78 97       	sbiw	r30, 0x18	; 24
  ee:	01 90       	ld	r0, Z+
  f0:	f0 81       	ld	r31, Z
  f2:	e0 2d       	mov	r30, r0
  f4:	e8 0f       	add	r30, r24
  f6:	f9 1f       	adc	r31, r25
  f8:	71 83       	std	Z+1, r23	; 0x01
  fa:	60 83       	st	Z, r22
  fc:	fc 01       	movw	r30, r24
  fe:	53 83       	std	Z+3, r21	; 0x03
 100:	42 83       	std	Z+2, r20	; 0x02
 102:	08 95       	ret

00000104 <_ZN17FilterInputStreamC1EP11InputStream>:
 104:	20 e0       	ldi	r18, 0x00	; 0
 106:	30 e0       	ldi	r19, 0x00	; 0
 108:	fc 01       	movw	r30, r24
 10a:	31 83       	std	Z+1, r19	; 0x01
 10c:	20 83       	st	Z, r18
 10e:	73 83       	std	Z+3, r23	; 0x03
 110:	62 83       	std	Z+2, r22	; 0x02
 112:	08 95       	ret

00000114 <_ZTv0_n12_N17FilterInputStream13markSupportedEv>:
 114:	dc 01       	movw	r26, r24
 116:	ed 91       	ld	r30, X+
 118:	fc 91       	ld	r31, X
 11a:	3c 97       	sbiw	r30, 0x0c	; 12
 11c:	20 81       	ld	r18, Z
 11e:	31 81       	ldd	r19, Z+1	; 0x01
 120:	82 0f       	add	r24, r18
 122:	93 1f       	adc	r25, r19
 124:	0c 94 00 00 	jmp	0	; 0x0 <_ZN17FilterInputStream4readEv>

00000128 <_ZTv0_n20_N17FilterInputStream5resetEv>:
 128:	dc 01       	movw	r26, r24
 12a:	ed 91       	ld	r30, X+
 12c:	fc 91       	ld	r31, X
 12e:	74 97       	sbiw	r30, 0x14	; 20
 130:	20 81       	ld	r18, Z
 132:	31 81       	ldd	r19, Z+1	; 0x01
 134:	82 0f       	add	r24, r18
 136:	93 1f       	adc	r25, r19
 138:	0c 94 00 00 	jmp	0	; 0x0 <_ZN17FilterInputStream4readEv>

0000013c <_ZTv0_n10_N17FilterInputStream4markEv>:
 13c:	dc 01       	movw	r26, r24
 13e:	ed 91       	ld	r30, X+
 140:	fc 91       	ld	r31, X
 142:	3a 97       	sbiw	r30, 0x0a	; 10
 144:	20 81       	ld	r18, Z
 146:	31 81       	ldd	r19, Z+1	; 0x01
 148:	82 0f       	add	r24, r18
 14a:	93 1f       	adc	r25, r19
 14c:	0c 94 00 00 	jmp	0	; 0x0 <_ZN17FilterInputStream4readEv>

00000150 <_ZTv0_n6_N17FilterInputStream5closeEv>:
 150:	dc 01       	movw	r26, r24
 152:	ed 91       	ld	r30, X+
 154:	fc 91       	ld	r31, X
 156:	36 97       	sbiw	r30, 0x06	; 6
 158:	20 81       	ld	r18, Z
 15a:	31 81       	ldd	r19, Z+1	; 0x01
 15c:	82 0f       	add	r24, r18
 15e:	93 1f       	adc	r25, r19
 160:	0c 94 00 00 	jmp	0	; 0x0 <_ZN17FilterInputStream4readEv>

00000164 <_ZTv0_n8_N17FilterInputStream9availableEv>:
 164:	dc 01       	movw	r26, r24
 166:	ed 91       	ld	r30, X+
 168:	fc 91       	ld	r31, X
 16a:	38 97       	sbiw	r30, 0x08	; 8
 16c:	20 81       	ld	r18, Z
 16e:	31 81       	ldd	r19, Z+1	; 0x01
 170:	82 0f       	add	r24, r18
 172:	93 1f       	adc	r25, r19
 174:	0c 94 00 00 	jmp	0	; 0x0 <_ZN17FilterInputStream4readEv>

00000178 <_ZTv0_n22_N17FilterInputStream4skipEj>:
 178:	dc 01       	movw	r26, r24
 17a:	ed 91       	ld	r30, X+
 17c:	fc 91       	ld	r31, X
 17e:	76 97       	sbiw	r30, 0x16	; 22
 180:	20 81       	ld	r18, Z
 182:	31 81       	ldd	r19, Z+1	; 0x01
 184:	82 0f       	add	r24, r18
 186:	93 1f       	adc	r25, r19
 188:	0c 94 00 00 	jmp	0	; 0x0 <_ZN17FilterInputStream4readEv>

0000018c <_ZTv0_n18_N17FilterInputStream4readEPhii>:
 18c:	dc 01       	movw	r26, r24
 18e:	ed 91       	ld	r30, X+
 190:	fc 91       	ld	r31, X
 192:	72 97       	sbiw	r30, 0x12	; 18
 194:	01 90       	ld	r0, Z+
 196:	f0 81       	ld	r31, Z
 198:	e0 2d       	mov	r30, r0
 19a:	8e 0f       	add	r24, r30
 19c:	9f 1f       	adc	r25, r31
 19e:	0c 94 00 00 	jmp	0	; 0x0 <_ZN17FilterInputStream4readEv>

000001a2 <_ZTv0_n16_N17FilterInputStream4readEPhi>:
 1a2:	dc 01       	movw	r26, r24
 1a4:	ed 91       	ld	r30, X+
 1a6:	fc 91       	ld	r31, X
 1a8:	70 97       	sbiw	r30, 0x10	; 16
 1aa:	20 81       	ld	r18, Z
 1ac:	31 81       	ldd	r19, Z+1	; 0x01
 1ae:	82 0f       	add	r24, r18
 1b0:	93 1f       	adc	r25, r19
 1b2:	0c 94 00 00 	jmp	0	; 0x0 <_ZN17FilterInputStream4readEv>

000001b6 <_ZTv0_n14_N17FilterInputStream4readEv>:
 1b6:	dc 01       	movw	r26, r24
 1b8:	ed 91       	ld	r30, X+
 1ba:	fc 91       	ld	r31, X
 1bc:	3e 97       	sbiw	r30, 0x0e	; 14
 1be:	20 81       	ld	r18, Z
 1c0:	31 81       	ldd	r19, Z+1	; 0x01
 1c2:	82 0f       	add	r24, r18
 1c4:	93 1f       	adc	r25, r19
 1c6:	0c 94 00 00 	jmp	0	; 0x0 <_ZN17FilterInputStream4readEv>

ExternalEepromSeekableInputStream.o:     file format elf32-avr

Sections:
Idx Name          Size      VMA       LMA       File off  Algn
  0 .group        00000008  00000000  00000000  00000034  2**2
                  CONTENTS, READONLY, EXCLUDE, GROUP, LINK_ONCE_DISCARD
  1 .group        00000014  00000000  00000000  0000003c  2**2
                  CONTENTS, READONLY, EXCLUDE, GROUP, LINK_ONCE_DISCARD
  2 .group        00000008  00000000  00000000  00000050  2**2
                  CONTENTS, READONLY, EXCLUDE, GROUP, LINK_ONCE_DISCARD
  3 .group        00000008  00000000  00000000  00000058  2**2
                  CONTENTS, READONLY, EXCLUDE, GROUP, LINK_ONCE_DISCARD
  4 .text         000000ce  00000000  00000000  00000060  2**0
                  CONTENTS, ALLOC, LOAD, RELOC, READONLY, CODE
  5 .data         00000000  00000000  00000000  0000012e  2**0
                  CONTENTS, ALLOC, LOAD, DATA
  6 .bss          00000000  00000000  00000000  0000012e  2**0
                  ALLOC
  7 .text._ZN19SeekableInputStreamC2Ev 0000003e  00000000  00000000  0000012e  2**0
                  CONTENTS, ALLOC, LOAD, READONLY, CODE
  8 .rodata._ZTC33ExternalEepromSeekableInputStream10_19SeekableInputStream 00000034  00000000  00000000  0000016c  2**0
                  CONTENTS, ALLOC, LOAD, RELOC, READONLY, DATA
  9 .rodata._ZTC33ExternalEepromSeekableInputStream0_25ExternalEepromInputStream 0000002a  00000000  00000000  000001a0  2**0
                  CONTENTS, ALLOC, LOAD, RELOC, READONLY, DATA
 10 .rodata._ZTT33ExternalEepromSeekableInputStream 00000012  00000000  00000000  000001ca  2**0
                  CONTENTS, ALLOC, LOAD, RELOC, READONLY, DATA
 11 .rodata._ZTV33ExternalEepromSeekableInputStream 0000003a  00000000  00000000  000001dc  2**0
                  CONTENTS, ALLOC, LOAD, RELOC, READONLY, DATA
 12 .rodata._ZTV9Closeable 00000006  00000000  00000000  00000216  2**0
                  CONTENTS, ALLOC, LOAD, RELOC, READONLY, DATA
 13 .rodata._ZTV8Seekable 00000006  00000000  00000000  0000021c  2**0
                  CONTENTS, ALLOC, LOAD, RELOC, READONLY, DATA
 14 .comment      00000012  00000000  00000000  00000222  2**0
                  CONTENTS, READONLY

Disassembly of section .text:

00000000 <_ZN33ExternalEepromSeekableInputStream4seekEj>:
   0:	fc 01       	movw	r30, r24
   2:	75 83       	std	Z+5, r23	; 0x05
   4:	64 83       	std	Z+4, r22	; 0x04
   6:	08 95       	ret

00000008 <_ZN33ExternalEepromSeekableInputStreamC2EP14ExternalEeprom>:
   8:	0f 93       	push	r16
   a:	1f 93       	push	r17
   c:	cf 93       	push	r28
   e:	df 93       	push	r29
  10:	ec 01       	movw	r28, r24
  12:	8b 01       	movw	r16, r22
  14:	6e 5f       	subi	r22, 0xFE	; 254
  16:	7f 4f       	sbci	r23, 0xFF	; 255
  18:	0e 94 00 00 	call	0	; 0x0 <_ZN33ExternalEepromSeekableInputStream4seekEj>
  1c:	b8 01       	movw	r22, r16
  1e:	6a 5f       	subi	r22, 0xFA	; 250
  20:	7f 4f       	sbci	r23, 0xFF	; 255
  22:	ce 01       	movw	r24, r28
  24:	0a 96       	adiw	r24, 0x0a	; 10
  26:	0e 94 00 00 	call	0	; 0x0 <_ZN33ExternalEepromSeekableInputStream4seekEj>
  2a:	f8 01       	movw	r30, r16
  2c:	80 81       	ld	r24, Z
  2e:	91 81       	ldd	r25, Z+1	; 0x01
  30:	99 83       	std	Y+1, r25	; 0x01
  32:	88 83       	st	Y, r24
  34:	24 85       	ldd	r18, Z+12	; 0x0c
  36:	35 85       	ldd	r19, Z+13	; 0x0d
  38:	fc 01       	movw	r30, r24
  3a:	78 97       	sbiw	r30, 0x18	; 24
  3c:	01 90       	ld	r0, Z+
  3e:	f0 81       	ld	r31, Z
  40:	e0 2d       	mov	r30, r0
  42:	ec 0f       	add	r30, r28
  44:	fd 1f       	adc	r31, r29
  46:	31 83       	std	Z+1, r19	; 0x01
  48:	20 83       	st	Z, r18
  4a:	f8 01       	movw	r30, r16
  4c:	86 85       	ldd	r24, Z+14	; 0x0e
  4e:	97 85       	ldd	r25, Z+15	; 0x0f
  50:	9b 87       	std	Y+11, r25	; 0x0b
  52:	8a 87       	std	Y+10, r24	; 0x0a
  54:	80 89       	ldd	r24, Z+16	; 0x10
  56:	91 89       	ldd	r25, Z+17	; 0x11
  58:	e8 81       	ld	r30, Y
  5a:	f9 81       	ldd	r31, Y+1	; 0x01
  5c:	7a 97       	sbiw	r30, 0x1a	; 26
  5e:	01 90       	ld	r0, Z+
  60:	f0 81       	ld	r31, Z
  62:	e0 2d       	mov	r30, r0
  64:	ec 0f       	add	r30, r28
  66:	fd 1f       	adc	r31, r29
  68:	91 83       	std	Z+1, r25	; 0x01
  6a:	80 83       	st	Z, r24
  6c:	df 91       	pop	r29
  6e:	cf 91       	pop	r28
  70:	1f 91       	pop	r17
  72:	0f 91       	pop	r16
  74:	08 95       	ret

00000076 <_ZN33ExternalEepromSeekableInputStreamC1EP14ExternalEeprom>:
  76:	cf 93       	push	r28
  78:	df 93       	push	r29
  7a:	ec 01       	movw	r28, r24
  7c:	ab 01       	movw	r20, r22
  7e:	80 e0       	ldi	r24, 0x00	; 0
  80:	90 e0       	ldi	r25, 0x00	; 0
  82:	99 83       	std	Y+1, r25	; 0x01
  84:	88 83       	st	Y, r24
  86:	80 e0       	ldi	r24, 0x00	; 0
  88:	90 e0       	ldi	r25, 0x00	; 0
  8a:	9b 87       	std	Y+11, r25	; 0x0b
  8c:	8a 87       	std	Y+10, r24	; 0x0a
  8e:	60 e0       	ldi	r22, 0x00	; 0
  90:	70 e0       	ldi	r23, 0x00	; 0
  92:	ce 01       	movw	r24, r28
  94:	0e 94 00 00 	call	0	; 0x0 <_ZN33ExternalEepromSeekableInputStream4seekEj>
  98:	60 e0       	ldi	r22, 0x00	; 0
  9a:	70 e0       	ldi	r23, 0x00	; 0
  9c:	ce 01       	movw	r24, r28
  9e:	0a 96       	adiw	r24, 0x0a	; 10
  a0:	0e 94 00 00 	call	0	; 0x0 <_ZN33ExternalEepromSeekableInputStream4seekEj>
  a4:	80 e0       	ldi	r24, 0x00	; 0
  a6:	90 e0       	ldi	r25, 0x00	; 0
  a8:	99 83       	std	Y+1, r25	; 0x01
  aa:	88 83       	st	Y, r24
  ac:	80 e0       	ldi	r24, 0x00	; 0
  ae:	90 e0       	ldi	r25, 0x00	; 0
  b0:	9b 87       	std	Y+11, r25	; 0x0b
  b2:	8a 87       	std	Y+10, r24	; 0x0a
  b4:	df 91       	pop	r29
  b6:	cf 91       	pop	r28
  b8:	08 95       	ret

000000ba <_ZTv0_n6_N33ExternalEepromSeekableInputStream4seekEj>:
  ba:	dc 01       	movw	r26, r24
  bc:	ed 91       	ld	r30, X+
  be:	fc 91       	ld	r31, X
  c0:	36 97       	sbiw	r30, 0x06	; 6
  c2:	20 81       	ld	r18, Z
  c4:	31 81       	ldd	r19, Z+1	; 0x01
  c6:	82 0f       	add	r24, r18
  c8:	93 1f       	adc	r25, r19
  ca:	0c 94 00 00 	jmp	0	; 0x0 <_ZN33ExternalEepromSeekableInputStream4seekEj>

Disassembly of section .text._ZN19SeekableInputStreamC2Ev:

00000000 <_ZN19SeekableInputStreamC2Ev>:
   0:	fb 01       	movw	r30, r22
   2:	20 81       	ld	r18, Z
   4:	31 81       	ldd	r19, Z+1	; 0x01
   6:	dc 01       	movw	r26, r24
   8:	2d 93       	st	X+, r18
   a:	3c 93       	st	X, r19
   c:	42 81       	ldd	r20, Z+2	; 0x02
   e:	53 81       	ldd	r21, Z+3	; 0x03
  10:	d9 01       	movw	r26, r18
  12:	18 97       	sbiw	r26, 0x08	; 8
  14:	0d 90       	ld	r0, X+
  16:	bc 91       	ld	r27, X
  18:	a0 2d       	mov	r26, r0
  1a:	a8 0f       	add	r26, r24
  1c:	b9 1f       	adc	r27, r25
  1e:	4d 93       	st	X+, r20
  20:	5c 93       	st	X, r21
  22:	24 81       	ldd	r18, Z+4	; 0x04
  24:	35 81       	ldd	r19, Z+5	; 0x05
  26:	dc 01       	movw	r26, r24
  28:	ed 91       	ld	r30, X+
  2a:	fc 91       	ld	r31, X
  2c:	3a 97       	sbiw	r30, 0x0a	; 10
  2e:	01 90       	ld	r0, Z+
  30:	f0 81       	ld	r31, Z
  32:	e0 2d       	mov	r30, r0
  34:	e8 0f       	add	r30, r24
  36:	f9 1f       	adc	r31, r25
  38:	31 83       	std	Z+1, r19	; 0x01
  3a:	20 83       	st	Z, r18
  3c:	08 95       	ret

ExternalEepromOutputStream.o:     file format elf32-avr

Sections:
Idx Name          Size      VMA       LMA       File off  Algn
  0 .group        00000008  00000000  00000000  00000034  2**2
                  CONTENTS, READONLY, EXCLUDE, GROUP, LINK_ONCE_DISCARD
  1 .group        00000008  00000000  00000000  0000003c  2**2
                  CONTENTS, READONLY, EXCLUDE, GROUP, LINK_ONCE_DISCARD
  2 .text         0000008a  00000000  00000000  00000044  2**0
                  CONTENTS, ALLOC, LOAD, RELOC, READONLY, CODE
  3 .data         00000000  00000000  00000000  000000ce  2**0
                  CONTENTS, ALLOC, LOAD, DATA
  4 .bss          00000000  00000000  00000000  000000ce  2**0
                  ALLOC
  5 .rodata._ZTV26ExternalEepromOutputStream 0000000e  00000000  00000000  000000ce  2**0
                  CONTENTS, ALLOC, LOAD, RELOC, READONLY, DATA
  6 .rodata._ZTV9Closeable 00000006  00000000  00000000  000000dc  2**0
                  CONTENTS, ALLOC, LOAD, RELOC, READONLY, DATA
  7 .comment      00000012  00000000  00000000  000000e2  2**0
                  CONTENTS, READONLY

Disassembly of section .text:

00000000 <_ZN26ExternalEepromOutputStream5writeEh>:
   0:	cf 93       	push	r28
   2:	df 93       	push	r29
   4:	dc 01       	movw	r26, r24
   6:	46 2f       	mov	r20, r22
   8:	12 96       	adiw	r26, 0x02	; 2
   a:	8d 91       	ld	r24, X+
   c:	9c 91       	ld	r25, X
   e:	13 97       	sbiw	r26, 0x03	; 3
  10:	ec 01       	movw	r28, r24
  12:	e8 81       	ld	r30, Y
  14:	f9 81       	ldd	r31, Y+1	; 0x01
  16:	01 90       	ld	r0, Z+
  18:	f0 81       	ld	r31, Z
  1a:	e0 2d       	mov	r30, r0
  1c:	14 96       	adiw	r26, 0x04	; 4
  1e:	6d 91       	ld	r22, X+
  20:	7c 91       	ld	r23, X
  22:	15 97       	sbiw	r26, 0x05	; 5
  24:	eb 01       	movw	r28, r22
  26:	21 96       	adiw	r28, 0x01	; 1
  28:	15 96       	adiw	r26, 0x05	; 5
  2a:	dc 93       	st	X, r29
  2c:	ce 93       	st	-X, r28
  2e:	14 97       	sbiw	r26, 0x04	; 4
  30:	df 91       	pop	r29
  32:	cf 91       	pop	r28
  34:	09 94       	ijmp

00000036 <_ZN26ExternalEepromOutputStream5writeEPhii>:
  36:	0f 93       	push	r16
  38:	1f 93       	push	r17
  3a:	cf 93       	push	r28
  3c:	df 93       	push	r29
  3e:	ec 01       	movw	r28, r24
  40:	89 01       	movw	r16, r18
  42:	8a 81       	ldd	r24, Y+2	; 0x02
  44:	9b 81       	ldd	r25, Y+3	; 0x03
  46:	dc 01       	movw	r26, r24
  48:	ed 91       	ld	r30, X+
  4a:	fc 91       	ld	r31, X
  4c:	64 0f       	add	r22, r20
  4e:	75 1f       	adc	r23, r21
  50:	ac 81       	ldd	r26, Y+4	; 0x04
  52:	bd 81       	ldd	r27, Y+5	; 0x05
  54:	02 80       	ldd	r0, Z+2	; 0x02
  56:	f3 81       	ldd	r31, Z+3	; 0x03
  58:	e0 2d       	mov	r30, r0
  5a:	ab 01       	movw	r20, r22
  5c:	bd 01       	movw	r22, r26
  5e:	09 95       	icall
  60:	8c 81       	ldd	r24, Y+4	; 0x04
  62:	9d 81       	ldd	r25, Y+5	; 0x05
  64:	80 0f       	add	r24, r16
  66:	91 1f       	adc	r25, r17
  68:	9d 83       	std	Y+5, r25	; 0x05
  6a:	8c 83       	std	Y+4, r24	; 0x04
  6c:	df 91       	pop	r29
  6e:	cf 91       	pop	r28
  70:	1f 91       	pop	r17
  72:	0f 91       	pop	r16
  74:	08 95       	ret

00000076 <_ZN26ExternalEepromOutputStreamC1EP14ExternalEeprom>:
  76:	fc 01       	movw	r30, r24
  78:	80 e0       	ldi	r24, 0x00	; 0
  7a:	90 e0       	ldi	r25, 0x00	; 0
  7c:	91 83       	std	Z+1, r25	; 0x01
  7e:	80 83       	st	Z, r24
  80:	73 83       	std	Z+3, r23	; 0x03
  82:	62 83       	std	Z+2, r22	; 0x02
  84:	15 82       	std	Z+5, r1	; 0x05
  86:	14 82       	std	Z+4, r1	; 0x04
  88:	08 95       	ret

ExternalEepromInputStream.o:     file format elf32-avr

Sections:
Idx Name          Size      VMA       LMA       File off  Algn
  0 .group        0000000c  00000000  00000000  00000034  2**2
                  CONTENTS, READONLY, EXCLUDE, GROUP, LINK_ONCE_DISCARD
  1 .group        00000008  00000000  00000000  00000040  2**2
                  CONTENTS, READONLY, EXCLUDE, GROUP, LINK_ONCE_DISCARD
  2 .text         000001bc  00000000  00000000  00000048  2**0
                  CONTENTS, ALLOC, LOAD, RELOC, READONLY, CODE
  3 .data         00000000  00000000  00000000  00000204  2**0
                  CONTENTS, ALLOC, LOAD, DATA
  4 .bss          00000000  00000000  00000000  00000204  2**0
                  ALLOC
  5 .rodata._ZTT25ExternalEepromInputStream 00000004  00000000  00000000  00000204  2**0
                  CONTENTS, ALLOC, LOAD, RELOC, READONLY, DATA
  6 .rodata._ZTV25ExternalEepromInputStream 0000002a  00000000  00000000  00000208  2**0
                  CONTENTS, ALLOC, LOAD, RELOC, READONLY, DATA
  7 .rodata._ZTV9Closeable 00000006  00000000  00000000  00000232  2**0
                  CONTENTS, ALLOC, LOAD, RELOC, READONLY, DATA
  8 .comment      00000012  00000000  00000000  00000238  2**0
                  CONTENTS, READONLY

Disassembly of section .text:

00000000 <_ZN25ExternalEepromInputStream9availableEv>:
   0:	21 e0       	ldi	r18, 0x01	; 1
   2:	30 e0       	ldi	r19, 0x00	; 0
   4:	fc 01       	movw	r30, r24
   6:	40 85       	ldd	r20, Z+8	; 0x08
   8:	51 85       	ldd	r21, Z+9	; 0x09
   a:	84 81       	ldd	r24, Z+4	; 0x04
   c:	95 81       	ldd	r25, Z+5	; 0x05
   e:	84 17       	cp	r24, r20
  10:	95 07       	cpc	r25, r21
  12:	00 f0       	brcs	.+0      	; 0x14 <_ZN25ExternalEepromInputStream9availableEv+0x14>
  14:	20 e0       	ldi	r18, 0x00	; 0
  16:	30 e0       	ldi	r19, 0x00	; 0
  18:	c9 01       	movw	r24, r18
  1a:	08 95       	ret

0000001c <_ZN25ExternalEepromInputStream4markEv>:
  1c:	fc 01       	movw	r30, r24
  1e:	24 81       	ldd	r18, Z+4	; 0x04
  20:	35 81       	ldd	r19, Z+5	; 0x05
  22:	37 83       	std	Z+7, r19	; 0x07
  24:	26 83       	std	Z+6, r18	; 0x06
  26:	08 95       	ret

00000028 <_ZN25ExternalEepromInputStream13markSupportedEv>:
  28:	81 e0       	ldi	r24, 0x01	; 1
  2a:	08 95       	ret

0000002c <_ZN25ExternalEepromInputStream4readEv>:
  2c:	cf 93       	push	r28
  2e:	df 93       	push	r29
  30:	dc 01       	movw	r26, r24
  32:	14 96       	adiw	r26, 0x04	; 4
  34:	6d 91       	ld	r22, X+
  36:	7c 91       	ld	r23, X
  38:	15 97       	sbiw	r26, 0x05	; 5
  3a:	18 96       	adiw	r26, 0x08	; 8
  3c:	8d 91       	ld	r24, X+
  3e:	9c 91       	ld	r25, X
  40:	19 97       	sbiw	r26, 0x09	; 9
  42:	68 17       	cp	r22, r24
  44:	79 07       	cpc	r23, r25
  46:	00 f4       	brcc	.+0      	; 0x48 <_ZN25ExternalEepromInputStream4readEv+0x1c>
  48:	12 96       	adiw	r26, 0x02	; 2
  4a:	8d 91       	ld	r24, X+
  4c:	9c 91       	ld	r25, X
  4e:	13 97       	sbiw	r26, 0x03	; 3
  50:	ec 01       	movw	r28, r24
  52:	e8 81       	ld	r30, Y
  54:	f9 81       	ldd	r31, Y+1	; 0x01
  56:	04 80       	ldd	r0, Z+4	; 0x04
  58:	f5 81       	ldd	r31, Z+5	; 0x05
  5a:	e0 2d       	mov	r30, r0
  5c:	9b 01       	movw	r18, r22
  5e:	2f 5f       	subi	r18, 0xFF	; 255
  60:	3f 4f       	sbci	r19, 0xFF	; 255
  62:	15 96       	adiw	r26, 0x05	; 5
  64:	3c 93       	st	X, r19
  66:	2e 93       	st	-X, r18
  68:	14 97       	sbiw	r26, 0x04	; 4
  6a:	df 91       	pop	r29
  6c:	cf 91       	pop	r28
  6e:	09 94       	ijmp
  70:	8f ef       	ldi	r24, 0xFF	; 255
  72:	9f ef       	ldi	r25, 0xFF	; 255
  74:	df 91       	pop	r29
  76:	cf 91       	pop	r28
  78:	08 95       	ret

0000007a <_ZN25ExternalEepromInputStream4readEPhii>:
  7a:	0f 93       	push	r16
  7c:	1f 93       	push	r17
  7e:	cf 93       	push	r28
  80:	df 93       	push	r29
  82:	ec 01       	movw	r28, r24
  84:	ac 81       	ldd	r26, Y+4	; 0x04
  86:	bd 81       	ldd	r27, Y+5	; 0x05
  88:	88 85       	ldd	r24, Y+8	; 0x08
  8a:	99 85       	ldd	r25, Y+9	; 0x09
  8c:	8a 1b       	sub	r24, r26
  8e:	9b 0b       	sbc	r25, r27
  90:	82 17       	cp	r24, r18
  92:	93 07       	cpc	r25, r19
  94:	00 f4       	brcc	.+0      	; 0x96 <_ZN25ExternalEepromInputStream4readEPhii+0x1c>
  96:	9c 01       	movw	r18, r24
  98:	8a 81       	ldd	r24, Y+2	; 0x02
  9a:	9b 81       	ldd	r25, Y+3	; 0x03
  9c:	fc 01       	movw	r30, r24
  9e:	00 81       	ld	r16, Z
  a0:	11 81       	ldd	r17, Z+1	; 0x01
  a2:	46 0f       	add	r20, r22
  a4:	57 1f       	adc	r21, r23
  a6:	f8 01       	movw	r30, r16
  a8:	06 81       	ldd	r16, Z+6	; 0x06
  aa:	17 81       	ldd	r17, Z+7	; 0x07
  ac:	bd 01       	movw	r22, r26
  ae:	f8 01       	movw	r30, r16
  b0:	09 95       	icall
  b2:	9c 01       	movw	r18, r24
  b4:	8c 81       	ldd	r24, Y+4	; 0x04
  b6:	9d 81       	ldd	r25, Y+5	; 0x05
  b8:	82 0f       	add	r24, r18
  ba:	93 1f       	adc	r25, r19
  bc:	9d 83       	std	Y+5, r25	; 0x05
  be:	8c 83       	std	Y+4, r24	; 0x04
  c0:	c9 01       	movw	r24, r18
  c2:	df 91       	pop	r29
  c4:	cf 91       	pop	r28
  c6:	1f 91       	pop	r17
  c8:	0f 91       	pop	r16
  ca:	08 95       	ret

000000cc <_ZN25ExternalEepromInputStream5resetEv>:
  cc:	fc 01       	movw	r30, r24
  ce:	26 81       	ldd	r18, Z+6	; 0x06
  d0:	37 81       	ldd	r19, Z+7	; 0x07
  d2:	35 83       	std	Z+5, r19	; 0x05
  d4:	24 83       	std	Z+4, r18	; 0x04
  d6:	08 95       	ret

000000d8 <_ZN25ExternalEepromInputStreamC2EP14ExternalEeprom>:
  d8:	fc 01       	movw	r30, r24
  da:	db 01       	movw	r26, r22
  dc:	8d 91       	ld	r24, X+
  de:	9c 91       	ld	r25, X
  e0:	11 97       	sbiw	r26, 0x01	; 1
  e2:	91 83       	std	Z+1, r25	; 0x01
  e4:	80 83       	st	Z, r24
  e6:	12 96       	adiw	r26, 0x02	; 2
  e8:	2d 91       	ld	r18, X+
  ea:	3c 91       	ld	r19, X
  ec:	13 97       	sbiw	r26, 0x03	; 3
  ee:	dc 01       	movw	r26, r24
  f0:	58 97       	sbiw	r26, 0x18	; 24
  f2:	0d 90       	ld	r0, X+
  f4:	bc 91       	ld	r27, X
  f6:	a0 2d       	mov	r26, r0
  f8:	ae 0f       	add	r26, r30
  fa:	bf 1f       	adc	r27, r31
  fc:	2d 93       	st	X+, r18
  fe:	3c 93       	st	X, r19
 100:	53 83       	std	Z+3, r21	; 0x03
 102:	42 83       	std	Z+2, r20	; 0x02
 104:	17 82       	std	Z+7, r1	; 0x07
 106:	16 82       	std	Z+6, r1	; 0x06
 108:	15 82       	std	Z+5, r1	; 0x05
 10a:	14 82       	std	Z+4, r1	; 0x04
 10c:	da 01       	movw	r26, r20
 10e:	12 96       	adiw	r26, 0x02	; 2
 110:	8d 91       	ld	r24, X+
 112:	9c 91       	ld	r25, X
 114:	13 97       	sbiw	r26, 0x03	; 3
 116:	91 87       	std	Z+9, r25	; 0x09
 118:	80 87       	std	Z+8, r24	; 0x08
 11a:	08 95       	ret

0000011c <_ZN25ExternalEepromInputStreamC1EP14ExternalEeprom>:
 11c:	fc 01       	movw	r30, r24
 11e:	80 e0       	ldi	r24, 0x00	; 0
 120:	90 e0       	ldi	r25, 0x00	; 0
 122:	91 83       	std	Z+1, r25	; 0x01
 124:	80 83       	st	Z, r24
 126:	73 83       	std	Z+3, r23	; 0x03
 128:	62 83       	std	Z+2, r22	; 0x02
 12a:	17 82       	std	Z+7, r1	; 0x07
 12c:	16 82       	std	Z+6, r1	; 0x06
 12e:	15 82       	std	Z+5, r1	; 0x05
 130:	14 82       	std	Z+4, r1	; 0x04
 132:	db 01       	movw	r26, r22
 134:	12 96       	adiw	r26, 0x02	; 2
 136:	8d 91       	ld	r24, X+
 138:	9c 91       	ld	r25, X
 13a:	13 97       	sbiw	r26, 0x03	; 3
 13c:	91 87       	std	Z+9, r25	; 0x09
 13e:	80 87       	std	Z+8, r24	; 0x08
 140:	08 95       	ret

00000142 <_ZTv0_n20_N25ExternalEepromInputStream5resetEv>:
 142:	dc 01       	movw	r26, r24
 144:	ed 91       	ld	r30, X+
 146:	fc 91       	ld	r31, X
 148:	74 97       	sbiw	r30, 0x14	; 20
 14a:	20 81       	ld	r18, Z
 14c:	31 81       	ldd	r19, Z+1	; 0x01
 14e:	82 0f       	add	r24, r18
 150:	93 1f       	adc	r25, r19
 152:	0c 94 00 00 	jmp	0	; 0x0 <_ZN25ExternalEepromInputStream9availableEv>

00000156 <_ZTv0_n18_N25ExternalEepromInputStream4readEPhii>:
 156:	dc 01       	movw	r26, r24
 158:	ed 91       	ld	r30, X+
 15a:	fc 91       	ld	r31, X
 15c:	72 97       	sbiw	r30, 0x12	; 18
 15e:	01 90       	ld	r0, Z+
 160:	f0 81       	ld	r31, Z
 162:	e0 2d       	mov	r30, r0
 164:	8e 0f       	add	r24, r30
 166:	9f 1f       	adc	r25, r31
 168:	0c 94 00 00 	jmp	0	; 0x0 <_ZN25ExternalEepromInputStream9availableEv>

0000016c <_ZTv0_n14_N25ExternalEepromInputStream4readEv>:
 16c:	dc 01       	movw	r26, r24
 16e:	ed 91       	ld	r30, X+
 170:	fc 91       	ld	r31, X
 172:	3e 97       	sbiw	r30, 0x0e	; 14
 174:	20 81       	ld	r18, Z
 176:	31 81       	ldd	r19, Z+1	; 0x01
 178:	82 0f       	add	r24, r18
 17a:	93 1f       	adc	r25, r19
 17c:	0c 94 00 00 	jmp	0	; 0x0 <_ZN25ExternalEepromInputStream9availableEv>

00000180 <_ZTv0_n12_N25ExternalEepromInputStream13markSupportedEv>:
 180:	dc 01       	movw	r26, r24
 182:	ed 91       	ld	r30, X+
 184:	fc 91       	ld	r31, X
 186:	3c 97       	sbiw	r30, 0x0c	; 12
 188:	20 81       	ld	r18, Z
 18a:	31 81       	ldd	r19, Z+1	; 0x01
 18c:	82 0f       	add	r24, r18
 18e:	93 1f       	adc	r25, r19
 190:	0c 94 00 00 	jmp	0	; 0x0 <_ZN25ExternalEepromInputStream9availableEv>

00000194 <_ZTv0_n10_N25ExternalEepromInputStream4markEv>:
 194:	dc 01       	movw	r26, r24
 196:	ed 91       	ld	r30, X+
 198:	fc 91       	ld	r31, X
 19a:	3a 97       	sbiw	r30, 0x0a	; 10
 19c:	20 81       	ld	r18, Z
 19e:	31 81       	ldd	r19, Z+1	; 0x01
 1a0:	82 0f       	add	r24, r18
 1a2:	93 1f       	adc	r25, r19
 1a4:	0c 94 00 00 	jmp	0	; 0x0 <_ZN25ExternalEepromInputStream9availableEv>

000001a8 <_ZTv0_n8_N25ExternalEepromInputStream9availableEv>:
 1a8:	dc 01       	movw	r26, r24
 1aa:	ed 91       	ld	r30, X+
 1ac:	fc 91       	ld	r31, X
 1ae:	38 97       	sbiw	r30, 0x08	; 8
 1b0:	20 81       	ld	r18, Z
 1b2:	31 81       	ldd	r19, Z+1	; 0x01
 1b4:	82 0f       	add	r24, r18
 1b6:	93 1f       	adc	r25, r19
 1b8:	0c 94 00 00 	jmp	0	; 0x0 <_ZN25ExternalEepromInputStream9availableEv>

DataOutputStream.o:     file format elf32-avr

Sections:
Idx Name          Size      VMA       LMA       File off  Algn
  0 .group        00000008  00000000  00000000  00000034  2**2
                  CONTENTS, READONLY, EXCLUDE, GROUP, LINK_ONCE_DISCARD
  1 .group        00000008  00000000  00000000  0000003c  2**2
                  CONTENTS, READONLY, EXCLUDE, GROUP, LINK_ONCE_DISCARD
  2 .text         00000230  00000000  00000000  00000044  2**0
                  CONTENTS, ALLOC, LOAD, RELOC, READONLY, CODE
  3 .data         00000000  00000000  00000000  00000274  2**0
                  CONTENTS, ALLOC, LOAD, DATA
  4 .bss          00000000  00000000  00000000  00000274  2**0
                  ALLOC
  5 .rodata._ZTV16DataOutputStream 00000020  00000000  00000000  00000274  2**0
                  CONTENTS, ALLOC, LOAD, RELOC, READONLY, DATA
  6 .rodata._ZTV10DataOutput 00000020  00000000  00000000  00000294  2**0
                  CONTENTS, ALLOC, LOAD, RELOC, READONLY, DATA
  7 .comment      00000012  00000000  00000000  000002b4  2**0
                  CONTENTS, READONLY

Disassembly of section .text:

00000000 <_ZN16DataOutputStream5writeEPhi>:
   0:	dc 01       	movw	r26, r24
   2:	ed 91       	ld	r30, X+
   4:	fc 91       	ld	r31, X
   6:	06 80       	ldd	r0, Z+6	; 0x06
   8:	f7 81       	ldd	r31, Z+7	; 0x07
   a:	e0 2d       	mov	r30, r0
   c:	09 94       	ijmp

0000000e <_ZN16DataOutputStream5writeEh>:
   e:	dc 01       	movw	r26, r24
  10:	ed 91       	ld	r30, X+
  12:	fc 91       	ld	r31, X
  14:	04 80       	ldd	r0, Z+4	; 0x04
  16:	f5 81       	ldd	r31, Z+5	; 0x05
  18:	e0 2d       	mov	r30, r0
  1a:	09 94       	ijmp

0000001c <_ZN16DataOutputStream9writeByteEh>:
  1c:	dc 01       	movw	r26, r24
  1e:	12 96       	adiw	r26, 0x02	; 2
  20:	8d 91       	ld	r24, X+
  22:	9c 91       	ld	r25, X
  24:	13 97       	sbiw	r26, 0x03	; 3
  26:	dc 01       	movw	r26, r24
  28:	ed 91       	ld	r30, X+
  2a:	fc 91       	ld	r31, X
  2c:	04 80       	ldd	r0, Z+4	; 0x04
  2e:	f5 81       	ldd	r31, Z+5	; 0x05
  30:	e0 2d       	mov	r30, r0
  32:	09 94       	ijmp

00000034 <_ZN16DataOutputStream10writeBytesEPhi>:
  34:	cf 92       	push	r12
  36:	df 92       	push	r13
  38:	ef 92       	push	r14
  3a:	ff 92       	push	r15
  3c:	0f 93       	push	r16
  3e:	1f 93       	push	r17
  40:	cf 93       	push	r28
  42:	df 93       	push	r29
  44:	7c 01       	movw	r14, r24
  46:	6a 01       	movw	r12, r20
  48:	eb 01       	movw	r28, r22
  4a:	8b 01       	movw	r16, r22
  4c:	00 c0       	rjmp	.+0      	; 0x4e <_ZN16DataOutputStream10writeBytesEPhi+0x1a>
  4e:	d7 01       	movw	r26, r14
  50:	12 96       	adiw	r26, 0x02	; 2
  52:	8d 91       	ld	r24, X+
  54:	9c 91       	ld	r25, X
  56:	13 97       	sbiw	r26, 0x03	; 3
  58:	f8 01       	movw	r30, r16
  5a:	61 91       	ld	r22, Z+
  5c:	8f 01       	movw	r16, r30
  5e:	dc 01       	movw	r26, r24
  60:	ed 91       	ld	r30, X+
  62:	fc 91       	ld	r31, X
  64:	04 80       	ldd	r0, Z+4	; 0x04
  66:	f5 81       	ldd	r31, Z+5	; 0x05
  68:	e0 2d       	mov	r30, r0
  6a:	09 95       	icall
  6c:	c8 01       	movw	r24, r16
  6e:	8c 1b       	sub	r24, r28
  70:	9d 0b       	sbc	r25, r29
  72:	8c 15       	cp	r24, r12
  74:	9d 05       	cpc	r25, r13
  76:	04 f0       	brlt	.+0      	; 0x78 <_ZN16DataOutputStream10writeBytesEPhi+0x44>
  78:	df 91       	pop	r29
  7a:	cf 91       	pop	r28
  7c:	1f 91       	pop	r17
  7e:	0f 91       	pop	r16
  80:	ff 90       	pop	r15
  82:	ef 90       	pop	r14
  84:	df 90       	pop	r13
  86:	cf 90       	pop	r12
  88:	08 95       	ret

0000008a <_ZN16DataOutputStream12writeBooleanEb>:
  8a:	dc 01       	movw	r26, r24
  8c:	12 96       	adiw	r26, 0x02	; 2
  8e:	8d 91       	ld	r24, X+
  90:	9c 91       	ld	r25, X
  92:	13 97       	sbiw	r26, 0x03	; 3
  94:	dc 01       	movw	r26, r24
  96:	ed 91       	ld	r30, X+
  98:	fc 91       	ld	r31, X
  9a:	04 80       	ldd	r0, Z+4	; 0x04
  9c:	f5 81       	ldd	r31, Z+5	; 0x05
  9e:	e0 2d       	mov	r30, r0
  a0:	09 94       	ijmp

000000a2 <_ZN16DataOutputStream9writeCharEc>:
  a2:	dc 01       	movw	r26, r24
  a4:	12 96       	adiw	r26, 0x02	; 2
  a6:	8d 91       	ld	r24, X+
  a8:	9c 91       	ld	r25, X
  aa:	13 97       	sbiw	r26, 0x03	; 3
  ac:	dc 01       	movw	r26, r24
  ae:	ed 91       	ld	r30, X+
  b0:	fc 91       	ld	r31, X
  b2:	04 80       	ldd	r0, Z+4	; 0x04
  b4:	f5 81       	ldd	r31, Z+5	; 0x05
  b6:	e0 2d       	mov	r30, r0
  b8:	09 94       	ijmp

000000ba <_ZN16DataOutputStream17writeUnsignedCharEh>:
  ba:	dc 01       	movw	r26, r24
  bc:	12 96       	adiw	r26, 0x02	; 2
  be:	8d 91       	ld	r24, X+
  c0:	9c 91       	ld	r25, X
  c2:	13 97       	sbiw	r26, 0x03	; 3
  c4:	dc 01       	movw	r26, r24
  c6:	ed 91       	ld	r30, X+
  c8:	fc 91       	ld	r31, X
  ca:	04 80       	ldd	r0, Z+4	; 0x04
  cc:	f5 81       	ldd	r31, Z+5	; 0x05
  ce:	e0 2d       	mov	r30, r0
  d0:	09 94       	ijmp

000000d2 <_ZN16DataOutputStream8writeIntEi>:
  d2:	1f 93       	push	r17
  d4:	cf 93       	push	r28
  d6:	df 93       	push	r29
  d8:	ec 01       	movw	r28, r24
  da:	16 2f       	mov	r17, r22
  dc:	67 2f       	mov	r22, r23
  de:	8a 81       	ldd	r24, Y+2	; 0x02
  e0:	9b 81       	ldd	r25, Y+3	; 0x03
  e2:	dc 01       	movw	r26, r24
  e4:	ed 91       	ld	r30, X+
  e6:	fc 91       	ld	r31, X
  e8:	04 80       	ldd	r0, Z+4	; 0x04
  ea:	f5 81       	ldd	r31, Z+5	; 0x05
  ec:	e0 2d       	mov	r30, r0
  ee:	09 95       	icall
  f0:	8a 81       	ldd	r24, Y+2	; 0x02
  f2:	9b 81       	ldd	r25, Y+3	; 0x03
  f4:	dc 01       	movw	r26, r24
  f6:	ed 91       	ld	r30, X+
  f8:	fc 91       	ld	r31, X
  fa:	04 80       	ldd	r0, Z+4	; 0x04
  fc:	f5 81       	ldd	r31, Z+5	; 0x05
  fe:	e0 2d       	mov	r30, r0
 100:	61 2f       	mov	r22, r17
 102:	df 91       	pop	r29
 104:	cf 91       	pop	r28
 106:	1f 91       	pop	r17
 108:	09 94       	ijmp

0000010a <_ZN16DataOutputStream16writeUnsignedIntEj>:
 10a:	dc 01       	movw	r26, r24
 10c:	ed 91       	ld	r30, X+
 10e:	fc 91       	ld	r31, X
 110:	06 84       	ldd	r0, Z+14	; 0x0e
 112:	f7 85       	ldd	r31, Z+15	; 0x0f
 114:	e0 2d       	mov	r30, r0
 116:	09 94       	ijmp

00000118 <_ZN16DataOutputStream9writeWordEj>:
 118:	dc 01       	movw	r26, r24
 11a:	ed 91       	ld	r30, X+
 11c:	fc 91       	ld	r31, X
 11e:	06 84       	ldd	r0, Z+14	; 0x0e
 120:	f7 85       	ldd	r31, Z+15	; 0x0f
 122:	e0 2d       	mov	r30, r0
 124:	09 94       	ijmp

00000126 <_ZN16DataOutputStream9writeLongEl>:
 126:	cf 92       	push	r12
 128:	df 92       	push	r13
 12a:	ef 92       	push	r14
 12c:	ff 92       	push	r15
 12e:	cf 93       	push	r28
 130:	df 93       	push	r29
 132:	ec 01       	movw	r28, r24
 134:	6a 01       	movw	r12, r20
 136:	7b 01       	movw	r14, r22
 138:	aa 81       	ldd	r26, Y+2	; 0x02
 13a:	bb 81       	ldd	r27, Y+3	; 0x03
 13c:	ed 91       	ld	r30, X+
 13e:	fc 91       	ld	r31, X
 140:	11 97       	sbiw	r26, 0x01	; 1
 142:	67 2f       	mov	r22, r23
 144:	77 27       	eor	r23, r23
 146:	88 27       	eor	r24, r24
 148:	99 27       	eor	r25, r25
 14a:	04 80       	ldd	r0, Z+4	; 0x04
 14c:	f5 81       	ldd	r31, Z+5	; 0x05
 14e:	e0 2d       	mov	r30, r0
 150:	cd 01       	movw	r24, r26
 152:	09 95       	icall
 154:	aa 81       	ldd	r26, Y+2	; 0x02
 156:	bb 81       	ldd	r27, Y+3	; 0x03
 158:	ed 91       	ld	r30, X+
 15a:	fc 91       	ld	r31, X
 15c:	11 97       	sbiw	r26, 0x01	; 1
 15e:	b7 01       	movw	r22, r14
 160:	99 27       	eor	r25, r25
 162:	77 fd       	sbrc	r23, 7
 164:	90 95       	com	r25
 166:	89 2f       	mov	r24, r25
 168:	04 80       	ldd	r0, Z+4	; 0x04
 16a:	f5 81       	ldd	r31, Z+5	; 0x05
 16c:	e0 2d       	mov	r30, r0
 16e:	cd 01       	movw	r24, r26
 170:	09 95       	icall
 172:	aa 81       	ldd	r26, Y+2	; 0x02
 174:	bb 81       	ldd	r27, Y+3	; 0x03
 176:	ed 91       	ld	r30, X+
 178:	fc 91       	ld	r31, X
 17a:	11 97       	sbiw	r26, 0x01	; 1
 17c:	99 27       	eor	r25, r25
 17e:	f7 fc       	sbrc	r15, 7
 180:	9a 95       	dec	r25
 182:	8f 2d       	mov	r24, r15
 184:	7e 2d       	mov	r23, r14
 186:	6d 2d       	mov	r22, r13
 188:	04 80       	ldd	r0, Z+4	; 0x04
 18a:	f5 81       	ldd	r31, Z+5	; 0x05
 18c:	e0 2d       	mov	r30, r0
 18e:	cd 01       	movw	r24, r26
 190:	09 95       	icall
 192:	8a 81       	ldd	r24, Y+2	; 0x02
 194:	9b 81       	ldd	r25, Y+3	; 0x03
 196:	dc 01       	movw	r26, r24
 198:	ed 91       	ld	r30, X+
 19a:	fc 91       	ld	r31, X
 19c:	04 80       	ldd	r0, Z+4	; 0x04
 19e:	f5 81       	ldd	r31, Z+5	; 0x05
 1a0:	e0 2d       	mov	r30, r0
 1a2:	6c 2d       	mov	r22, r12
 1a4:	df 91       	pop	r29
 1a6:	cf 91       	pop	r28
 1a8:	ff 90       	pop	r15
 1aa:	ef 90       	pop	r14
 1ac:	df 90       	pop	r13
 1ae:	cf 90       	pop	r12
 1b0:	09 94       	ijmp

000001b2 <_ZN16DataOutputStream17writeUnsignedLongEm>:
 1b2:	dc 01       	movw	r26, r24
 1b4:	ed 91       	ld	r30, X+
 1b6:	fc 91       	ld	r31, X
 1b8:	04 88       	ldd	r0, Z+20	; 0x14
 1ba:	f5 89       	ldd	r31, Z+21	; 0x15
 1bc:	e0 2d       	mov	r30, r0
 1be:	09 94       	ijmp

000001c0 <_ZN16DataOutputStream10writeFloatEf>:
 1c0:	0f 93       	push	r16
 1c2:	1f 93       	push	r17
 1c4:	cf 93       	push	r28
 1c6:	df 93       	push	r29
 1c8:	ec 01       	movw	r28, r24
 1ca:	08 81       	ld	r16, Y
 1cc:	19 81       	ldd	r17, Y+1	; 0x01
 1ce:	cb 01       	movw	r24, r22
 1d0:	ba 01       	movw	r22, r20
 1d2:	0e 94 00 00 	call	0	; 0x0 <_ZN16DataOutputStream5writeEPhi>
 1d6:	ab 01       	movw	r20, r22
 1d8:	bc 01       	movw	r22, r24
 1da:	d8 01       	movw	r26, r16
 1dc:	54 96       	adiw	r26, 0x14	; 20
 1de:	ed 91       	ld	r30, X+
 1e0:	fc 91       	ld	r31, X
 1e2:	55 97       	sbiw	r26, 0x15	; 21
 1e4:	ce 01       	movw	r24, r28
 1e6:	df 91       	pop	r29
 1e8:	cf 91       	pop	r28
 1ea:	1f 91       	pop	r17
 1ec:	0f 91       	pop	r16
 1ee:	09 94       	ijmp

000001f0 <_ZN16DataOutputStream11writeDoubleEd>:
 1f0:	0f 93       	push	r16
 1f2:	1f 93       	push	r17
 1f4:	cf 93       	push	r28
 1f6:	df 93       	push	r29
 1f8:	ec 01       	movw	r28, r24
 1fa:	08 81       	ld	r16, Y
 1fc:	19 81       	ldd	r17, Y+1	; 0x01
 1fe:	cb 01       	movw	r24, r22
 200:	ba 01       	movw	r22, r20
 202:	0e 94 00 00 	call	0	; 0x0 <_ZN16DataOutputStream5writeEPhi>
 206:	ab 01       	movw	r20, r22
 208:	bc 01       	movw	r22, r24
 20a:	d8 01       	movw	r26, r16
 20c:	54 96       	adiw	r26, 0x14	; 20
 20e:	ed 91       	ld	r30, X+
 210:	fc 91       	ld	r31, X
 212:	55 97       	sbiw	r26, 0x15	; 21
 214:	ce 01       	movw	r24, r28
 216:	df 91       	pop	r29
 218:	cf 91       	pop	r28
 21a:	1f 91       	pop	r17
 21c:	0f 91       	pop	r16
 21e:	09 94       	ijmp

00000220 <_ZN16DataOutputStreamC1EP12OutputStream>:
 220:	20 e0       	ldi	r18, 0x00	; 0
 222:	30 e0       	ldi	r19, 0x00	; 0
 224:	fc 01       	movw	r30, r24
 226:	31 83       	std	Z+1, r19	; 0x01
 228:	20 83       	st	Z, r18
 22a:	73 83       	std	Z+3, r23	; 0x03
 22c:	62 83       	std	Z+2, r22	; 0x02
 22e:	08 95       	ret

DataOutput.o:     file format elf32-avr

Sections:
Idx Name          Size      VMA       LMA       File off  Algn
  0 .text         00000000  00000000  00000000  00000034  2**0
                  CONTENTS, ALLOC, LOAD, READONLY, CODE
  1 .data         00000000  00000000  00000000  00000034  2**0
                  CONTENTS, ALLOC, LOAD, DATA
  2 .bss          00000000  00000000  00000000  00000034  2**0
                  ALLOC
  3 .comment      00000012  00000000  00000000  00000034  2**0
                  CONTENTS, READONLY

DataInputStream.o:     file format elf32-avr

Sections:
Idx Name          Size      VMA       LMA       File off  Algn
  0 .group        00000008  00000000  00000000  00000034  2**2
                  CONTENTS, READONLY, EXCLUDE, GROUP, LINK_ONCE_DISCARD
  1 .group        00000008  00000000  00000000  0000003c  2**2
                  CONTENTS, READONLY, EXCLUDE, GROUP, LINK_ONCE_DISCARD
  2 .text         0000025a  00000000  00000000  00000044  2**0
                  CONTENTS, ALLOC, LOAD, RELOC, READONLY, CODE
  3 .data         00000000  00000000  00000000  0000029e  2**0
                  CONTENTS, ALLOC, LOAD, DATA
  4 .bss          00000000  00000000  00000000  0000029e  2**0
                  ALLOC
  5 .rodata._ZTV15DataInputStream 0000001e  00000000  00000000  0000029e  2**0
                  CONTENTS, ALLOC, LOAD, RELOC, READONLY, DATA
  6 .rodata._ZTV9DataInput 0000001e  00000000  00000000  000002bc  2**0
                  CONTENTS, ALLOC, LOAD, RELOC, READONLY, DATA
  7 .comment      00000012  00000000  00000000  000002da  2**0
                  CONTENTS, READONLY

Disassembly of section .text:

00000000 <_ZN15DataInputStream8readByteEv>:
   0:	dc 01       	movw	r26, r24
   2:	12 96       	adiw	r26, 0x02	; 2
   4:	8d 91       	ld	r24, X+
   6:	9c 91       	ld	r25, X
   8:	13 97       	sbiw	r26, 0x03	; 3
   a:	dc 01       	movw	r26, r24
   c:	ed 91       	ld	r30, X+
   e:	fc 91       	ld	r31, X
  10:	00 84       	ldd	r0, Z+8	; 0x08
  12:	f1 85       	ldd	r31, Z+9	; 0x09
  14:	e0 2d       	mov	r30, r0
  16:	09 95       	icall
  18:	08 95       	ret

0000001a <_ZN15DataInputStream11readBooleanEv>:
  1a:	dc 01       	movw	r26, r24
  1c:	12 96       	adiw	r26, 0x02	; 2
  1e:	8d 91       	ld	r24, X+
  20:	9c 91       	ld	r25, X
  22:	13 97       	sbiw	r26, 0x03	; 3
  24:	dc 01       	movw	r26, r24
  26:	ed 91       	ld	r30, X+
  28:	fc 91       	ld	r31, X
  2a:	00 84       	ldd	r0, Z+8	; 0x08
  2c:	f1 85       	ldd	r31, Z+9	; 0x09
  2e:	e0 2d       	mov	r30, r0
  30:	09 95       	icall
  32:	21 e0       	ldi	r18, 0x01	; 1
  34:	89 2b       	or	r24, r25
  36:	01 f4       	brne	.+0      	; 0x38 <_ZN15DataInputStream11readBooleanEv+0x1e>
  38:	20 e0       	ldi	r18, 0x00	; 0
  3a:	82 2f       	mov	r24, r18
  3c:	08 95       	ret

0000003e <_ZN15DataInputStream8readCharEv>:
  3e:	dc 01       	movw	r26, r24
  40:	12 96       	adiw	r26, 0x02	; 2
  42:	8d 91       	ld	r24, X+
  44:	9c 91       	ld	r25, X
  46:	13 97       	sbiw	r26, 0x03	; 3
  48:	dc 01       	movw	r26, r24
  4a:	ed 91       	ld	r30, X+
  4c:	fc 91       	ld	r31, X
  4e:	00 84       	ldd	r0, Z+8	; 0x08
  50:	f1 85       	ldd	r31, Z+9	; 0x09
  52:	e0 2d       	mov	r30, r0
  54:	09 95       	icall
  56:	08 95       	ret

00000058 <_ZN15DataInputStream16readUnsignedCharEv>:
  58:	dc 01       	movw	r26, r24
  5a:	12 96       	adiw	r26, 0x02	; 2
  5c:	8d 91       	ld	r24, X+
  5e:	9c 91       	ld	r25, X
  60:	13 97       	sbiw	r26, 0x03	; 3
  62:	dc 01       	movw	r26, r24
  64:	ed 91       	ld	r30, X+
  66:	fc 91       	ld	r31, X
  68:	00 84       	ldd	r0, Z+8	; 0x08
  6a:	f1 85       	ldd	r31, Z+9	; 0x09
  6c:	e0 2d       	mov	r30, r0
  6e:	09 95       	icall
  70:	08 95       	ret

00000072 <_ZN15DataInputStream7readIntEv>:
  72:	0f 93       	push	r16
  74:	1f 93       	push	r17
  76:	cf 93       	push	r28
  78:	df 93       	push	r29
  7a:	8c 01       	movw	r16, r24
  7c:	dc 01       	movw	r26, r24
  7e:	12 96       	adiw	r26, 0x02	; 2
  80:	8d 91       	ld	r24, X+
  82:	9c 91       	ld	r25, X
  84:	13 97       	sbiw	r26, 0x03	; 3
  86:	dc 01       	movw	r26, r24
  88:	ed 91       	ld	r30, X+
  8a:	fc 91       	ld	r31, X
  8c:	00 84       	ldd	r0, Z+8	; 0x08
  8e:	f1 85       	ldd	r31, Z+9	; 0x09
  90:	e0 2d       	mov	r30, r0
  92:	09 95       	icall
  94:	d8 2f       	mov	r29, r24
  96:	b0 e0       	ldi	r27, 0x00	; 0
  98:	cb 2f       	mov	r28, r27
  9a:	f8 01       	movw	r30, r16
  9c:	82 81       	ldd	r24, Z+2	; 0x02
  9e:	93 81       	ldd	r25, Z+3	; 0x03
  a0:	dc 01       	movw	r26, r24
  a2:	ed 91       	ld	r30, X+
  a4:	fc 91       	ld	r31, X
  a6:	00 84       	ldd	r0, Z+8	; 0x08
  a8:	f1 85       	ldd	r31, Z+9	; 0x09
  aa:	e0 2d       	mov	r30, r0
  ac:	09 95       	icall
  ae:	c8 2b       	or	r28, r24
  b0:	ce 01       	movw	r24, r28
  b2:	df 91       	pop	r29
  b4:	cf 91       	pop	r28
  b6:	1f 91       	pop	r17
  b8:	0f 91       	pop	r16
  ba:	08 95       	ret

000000bc <_ZN15DataInputStream15readUnsignedIntEv>:
  bc:	dc 01       	movw	r26, r24
  be:	ed 91       	ld	r30, X+
  c0:	fc 91       	ld	r31, X
  c2:	00 84       	ldd	r0, Z+8	; 0x08
  c4:	f1 85       	ldd	r31, Z+9	; 0x09
  c6:	e0 2d       	mov	r30, r0
  c8:	09 94       	ijmp

000000ca <_ZN15DataInputStream8readWordEv>:
  ca:	dc 01       	movw	r26, r24
  cc:	ed 91       	ld	r30, X+
  ce:	fc 91       	ld	r31, X
  d0:	00 84       	ldd	r0, Z+8	; 0x08
  d2:	f1 85       	ldd	r31, Z+9	; 0x09
  d4:	e0 2d       	mov	r30, r0
  d6:	09 94       	ijmp

000000d8 <_ZN15DataInputStream8readLongEv>:
  d8:	cf 92       	push	r12
  da:	df 92       	push	r13
  dc:	ef 92       	push	r14
  de:	ff 92       	push	r15
  e0:	0f 93       	push	r16
  e2:	1f 93       	push	r17
  e4:	cf 93       	push	r28
  e6:	df 93       	push	r29
  e8:	ec 01       	movw	r28, r24
  ea:	8a 81       	ldd	r24, Y+2	; 0x02
  ec:	9b 81       	ldd	r25, Y+3	; 0x03
  ee:	dc 01       	movw	r26, r24
  f0:	ed 91       	ld	r30, X+
  f2:	fc 91       	ld	r31, X
  f4:	00 84       	ldd	r0, Z+8	; 0x08
  f6:	f1 85       	ldd	r31, Z+9	; 0x09
  f8:	e0 2d       	mov	r30, r0
  fa:	09 95       	icall
  fc:	6c 01       	movw	r12, r24
  fe:	ee 24       	eor	r14, r14
 100:	d7 fc       	sbrc	r13, 7
 102:	e0 94       	com	r14
 104:	fe 2c       	mov	r15, r14
 106:	fe 2c       	mov	r15, r14
 108:	ed 2c       	mov	r14, r13
 10a:	dc 2c       	mov	r13, r12
 10c:	cc 24       	eor	r12, r12
 10e:	8a 81       	ldd	r24, Y+2	; 0x02
 110:	9b 81       	ldd	r25, Y+3	; 0x03
 112:	dc 01       	movw	r26, r24
 114:	ed 91       	ld	r30, X+
 116:	fc 91       	ld	r31, X
 118:	00 84       	ldd	r0, Z+8	; 0x08
 11a:	f1 85       	ldd	r31, Z+9	; 0x09
 11c:	e0 2d       	mov	r30, r0
 11e:	09 95       	icall
 120:	99 27       	eor	r25, r25
 122:	ac 01       	movw	r20, r24
 124:	66 27       	eor	r22, r22
 126:	57 fd       	sbrc	r21, 7
 128:	60 95       	com	r22
 12a:	76 2f       	mov	r23, r22
 12c:	4c 29       	or	r20, r12
 12e:	5d 29       	or	r21, r13
 130:	6e 29       	or	r22, r14
 132:	7f 29       	or	r23, r15
 134:	cc 24       	eor	r12, r12
 136:	d4 2e       	mov	r13, r20
 138:	e5 2e       	mov	r14, r21
 13a:	f6 2e       	mov	r15, r22
 13c:	8a 81       	ldd	r24, Y+2	; 0x02
 13e:	9b 81       	ldd	r25, Y+3	; 0x03
 140:	dc 01       	movw	r26, r24
 142:	ed 91       	ld	r30, X+
 144:	fc 91       	ld	r31, X
 146:	00 84       	ldd	r0, Z+8	; 0x08
 148:	f1 85       	ldd	r31, Z+9	; 0x09
 14a:	e0 2d       	mov	r30, r0
 14c:	09 95       	icall
 14e:	99 27       	eor	r25, r25
 150:	ac 01       	movw	r20, r24
 152:	66 27       	eor	r22, r22
 154:	57 fd       	sbrc	r21, 7
 156:	60 95       	com	r22
 158:	76 2f       	mov	r23, r22
 15a:	4c 29       	or	r20, r12
 15c:	5d 29       	or	r21, r13
 15e:	6e 29       	or	r22, r14
 160:	7f 29       	or	r23, r15
 162:	cc 24       	eor	r12, r12
 164:	d4 2e       	mov	r13, r20
 166:	e5 2e       	mov	r14, r21
 168:	f6 2e       	mov	r15, r22
 16a:	8a 81       	ldd	r24, Y+2	; 0x02
 16c:	9b 81       	ldd	r25, Y+3	; 0x03
 16e:	dc 01       	movw	r26, r24
 170:	ed 91       	ld	r30, X+
 172:	fc 91       	ld	r31, X
 174:	00 84       	ldd	r0, Z+8	; 0x08
 176:	f1 85       	ldd	r31, Z+9	; 0x09
 178:	e0 2d       	mov	r30, r0
 17a:	09 95       	icall
 17c:	99 27       	eor	r25, r25
 17e:	8c 01       	movw	r16, r24
 180:	22 27       	eor	r18, r18
 182:	17 fd       	sbrc	r17, 7
 184:	20 95       	com	r18
 186:	32 2f       	mov	r19, r18
 188:	0c 29       	or	r16, r12
 18a:	1d 29       	or	r17, r13
 18c:	2e 29       	or	r18, r14
 18e:	3f 29       	or	r19, r15
 190:	b8 01       	movw	r22, r16
 192:	c9 01       	movw	r24, r18
 194:	df 91       	pop	r29
 196:	cf 91       	pop	r28
 198:	1f 91       	pop	r17
 19a:	0f 91       	pop	r16
 19c:	ff 90       	pop	r15
 19e:	ef 90       	pop	r14
 1a0:	df 90       	pop	r13
 1a2:	cf 90       	pop	r12
 1a4:	08 95       	ret

000001a6 <_ZN15DataInputStream16readUnsignedLongEv>:
 1a6:	dc 01       	movw	r26, r24
 1a8:	ed 91       	ld	r30, X+
 1aa:	fc 91       	ld	r31, X
 1ac:	06 84       	ldd	r0, Z+14	; 0x0e
 1ae:	f7 85       	ldd	r31, Z+15	; 0x0f
 1b0:	e0 2d       	mov	r30, r0
 1b2:	09 94       	ijmp

000001b4 <_ZN15DataInputStream9readFloatEv>:
 1b4:	dc 01       	movw	r26, r24
 1b6:	ed 91       	ld	r30, X+
 1b8:	fc 91       	ld	r31, X
 1ba:	06 84       	ldd	r0, Z+14	; 0x0e
 1bc:	f7 85       	ldd	r31, Z+15	; 0x0f
 1be:	e0 2d       	mov	r30, r0
 1c0:	09 95       	icall
 1c2:	0e 94 00 00 	call	0	; 0x0 <_ZN15DataInputStream8readByteEv>
 1c6:	08 95       	ret

000001c8 <_ZN15DataInputStream10readDoubleEv>:
 1c8:	dc 01       	movw	r26, r24
 1ca:	ed 91       	ld	r30, X+
 1cc:	fc 91       	ld	r31, X
 1ce:	06 84       	ldd	r0, Z+14	; 0x0e
 1d0:	f7 85       	ldd	r31, Z+15	; 0x0f
 1d2:	e0 2d       	mov	r30, r0
 1d4:	09 95       	icall
 1d6:	0e 94 00 00 	call	0	; 0x0 <_ZN15DataInputStream8readByteEv>
 1da:	08 95       	ret

000001dc <_ZN15DataInputStream9readFullyEPhi>:
 1dc:	cf 92       	push	r12
 1de:	df 92       	push	r13
 1e0:	ef 92       	push	r14
 1e2:	ff 92       	push	r15
 1e4:	0f 93       	push	r16
 1e6:	1f 93       	push	r17
 1e8:	cf 93       	push	r28
 1ea:	df 93       	push	r29
 1ec:	7c 01       	movw	r14, r24
 1ee:	6a 01       	movw	r12, r20
 1f0:	eb 01       	movw	r28, r22
 1f2:	8b 01       	movw	r16, r22
 1f4:	00 c0       	rjmp	.+0      	; 0x1f6 <_ZN15DataInputStream9readFullyEPhi+0x1a>
 1f6:	d7 01       	movw	r26, r14
 1f8:	12 96       	adiw	r26, 0x02	; 2
 1fa:	8d 91       	ld	r24, X+
 1fc:	9c 91       	ld	r25, X
 1fe:	13 97       	sbiw	r26, 0x03	; 3
 200:	dc 01       	movw	r26, r24
 202:	ed 91       	ld	r30, X+
 204:	fc 91       	ld	r31, X
 206:	00 84       	ldd	r0, Z+8	; 0x08
 208:	f1 85       	ldd	r31, Z+9	; 0x09
 20a:	e0 2d       	mov	r30, r0
 20c:	09 95       	icall
 20e:	f8 01       	movw	r30, r16
 210:	81 93       	st	Z+, r24
 212:	8f 01       	movw	r16, r30
 214:	c8 01       	movw	r24, r16
 216:	8c 1b       	sub	r24, r28
 218:	9d 0b       	sbc	r25, r29
 21a:	8c 15       	cp	r24, r12
 21c:	9d 05       	cpc	r25, r13
 21e:	04 f0       	brlt	.+0      	; 0x220 <_ZN15DataInputStream9readFullyEPhi+0x44>
 220:	df 91       	pop	r29
 222:	cf 91       	pop	r28
 224:	1f 91       	pop	r17
 226:	0f 91       	pop	r16
 228:	ff 90       	pop	r15
 22a:	ef 90       	pop	r14
 22c:	df 90       	pop	r13
 22e:	cf 90       	pop	r12
 230:	08 95       	ret

00000232 <_ZN15DataInputStream9skipBytesEj>:
 232:	dc 01       	movw	r26, r24
 234:	12 96       	adiw	r26, 0x02	; 2
 236:	8d 91       	ld	r24, X+
 238:	9c 91       	ld	r25, X
 23a:	13 97       	sbiw	r26, 0x03	; 3
 23c:	dc 01       	movw	r26, r24
 23e:	ed 91       	ld	r30, X+
 240:	fc 91       	ld	r31, X
 242:	00 88       	ldd	r0, Z+16	; 0x10
 244:	f1 89       	ldd	r31, Z+17	; 0x11
 246:	e0 2d       	mov	r30, r0
 248:	09 94       	ijmp

0000024a <_ZN15DataInputStreamC1EP11InputStream>:
 24a:	20 e0       	ldi	r18, 0x00	; 0
 24c:	30 e0       	ldi	r19, 0x00	; 0
 24e:	fc 01       	movw	r30, r24
 250:	31 83       	std	Z+1, r19	; 0x01
 252:	20 83       	st	Z, r18
 254:	73 83       	std	Z+3, r23	; 0x03
 256:	62 83       	std	Z+2, r22	; 0x02
 258:	08 95       	ret

DataInput.o:     file format elf32-avr

Sections:
Idx Name          Size      VMA       LMA       File off  Algn
  0 .text         00000000  00000000  00000000  00000034  2**0
                  CONTENTS, ALLOC, LOAD, READONLY, CODE
  1 .data         00000000  00000000  00000000  00000034  2**0
                  CONTENTS, ALLOC, LOAD, DATA
  2 .bss          00000000  00000000  00000000  00000034  2**0
                  ALLOC
  3 .comment      00000012  00000000  00000000  00000034  2**0
                  CONTENTS, READONLY

Closeable.o:     file format elf32-avr

Sections:
Idx Name          Size      VMA       LMA       File off  Algn
  0 .text         00000000  00000000  00000000  00000034  2**0
                  CONTENTS, ALLOC, LOAD, READONLY, CODE
  1 .data         00000000  00000000  00000000  00000034  2**0
                  CONTENTS, ALLOC, LOAD, DATA
  2 .bss          00000000  00000000  00000000  00000034  2**0
                  ALLOC
  3 .comment      00000012  00000000  00000000  00000034  2**0
                  CONTENTS, READONLY

ByteArraySeekableInputStream.o:     file format elf32-avr

Sections:
Idx Name          Size      VMA       LMA       File off  Algn
  0 .group        00000008  00000000  00000000  00000034  2**2
                  CONTENTS, READONLY, EXCLUDE, GROUP, LINK_ONCE_DISCARD
  1 .group        00000014  00000000  00000000  0000003c  2**2
                  CONTENTS, READONLY, EXCLUDE, GROUP, LINK_ONCE_DISCARD
  2 .group        00000008  00000000  00000000  00000050  2**2
                  CONTENTS, READONLY, EXCLUDE, GROUP, LINK_ONCE_DISCARD
  3 .group        00000008  00000000  00000000  00000058  2**2
                  CONTENTS, READONLY, EXCLUDE, GROUP, LINK_ONCE_DISCARD
  4 .text         00000120  00000000  00000000  00000060  2**0
                  CONTENTS, ALLOC, LOAD, RELOC, READONLY, CODE
  5 .data         00000000  00000000  00000000  00000180  2**0
                  CONTENTS, ALLOC, LOAD, DATA
  6 .bss          00000000  00000000  00000000  00000180  2**0
                  ALLOC
  7 .text._ZN19SeekableInputStreamC2Ev 0000003e  00000000  00000000  00000180  2**0
                  CONTENTS, ALLOC, LOAD, READONLY, CODE
  8 .rodata._ZTC28ByteArraySeekableInputStream2_20ByteArrayInputStream 0000002a  00000000  00000000  000001be  2**0
                  CONTENTS, ALLOC, LOAD, RELOC, READONLY, DATA
  9 .rodata._ZTC28ByteArraySeekableInputStream0_19SeekableInputStream 00000034  00000000  00000000  000001e8  2**0
                  CONTENTS, ALLOC, LOAD, RELOC, READONLY, DATA
 10 .rodata._ZTT28ByteArraySeekableInputStream 00000012  00000000  00000000  0000021c  2**0
                  CONTENTS, ALLOC, LOAD, RELOC, READONLY, DATA
 11 .rodata._ZTV28ByteArraySeekableInputStream 00000036  00000000  00000000  0000022e  2**0
                  CONTENTS, ALLOC, LOAD, RELOC, READONLY, DATA
 12 .rodata._ZTV8Seekable 00000006  00000000  00000000  00000264  2**0
                  CONTENTS, ALLOC, LOAD, RELOC, READONLY, DATA
 13 .rodata._ZTV9Closeable 00000006  00000000  00000000  0000026a  2**0
                  CONTENTS, ALLOC, LOAD, RELOC, READONLY, DATA
 14 .comment      00000012  00000000  00000000  00000270  2**0
                  CONTENTS, READONLY

Disassembly of section .text:

00000000 <_ZN28ByteArraySeekableInputStream4seekEj>:
   0:	fc 01       	movw	r30, r24
   2:	71 87       	std	Z+9, r23	; 0x09
   4:	60 87       	std	Z+8, r22	; 0x08
   6:	08 95       	ret

00000008 <_ZN28ByteArraySeekableInputStreamC2EPhj>:
   8:	ef 92       	push	r14
   a:	ff 92       	push	r15
   c:	0f 93       	push	r16
   e:	1f 93       	push	r17
  10:	cf 93       	push	r28
  12:	df 93       	push	r29
  14:	00 d0       	rcall	.+0      	; 0x16 <_ZN28ByteArraySeekableInputStreamC2EPhj+0xe>
  16:	00 d0       	rcall	.+0      	; 0x18 <_ZN28ByteArraySeekableInputStreamC2EPhj+0x10>
  18:	cd b7       	in	r28, 0x3d	; 61
  1a:	de b7       	in	r29, 0x3e	; 62
  1c:	7c 01       	movw	r14, r24
  1e:	8b 01       	movw	r16, r22
  20:	6e 5f       	subi	r22, 0xFE	; 254
  22:	7f 4f       	sbci	r23, 0xFF	; 255
  24:	2b 83       	std	Y+3, r18	; 0x03
  26:	3c 83       	std	Y+4, r19	; 0x04
  28:	49 83       	std	Y+1, r20	; 0x01
  2a:	5a 83       	std	Y+2, r21	; 0x02
  2c:	0e 94 00 00 	call	0	; 0x0 <_ZN28ByteArraySeekableInputStream4seekEj>
  30:	b8 01       	movw	r22, r16
  32:	68 5f       	subi	r22, 0xF8	; 248
  34:	7f 4f       	sbci	r23, 0xFF	; 255
  36:	2b 81       	ldd	r18, Y+3	; 0x03
  38:	3c 81       	ldd	r19, Y+4	; 0x04
  3a:	49 81       	ldd	r20, Y+1	; 0x01
  3c:	5a 81       	ldd	r21, Y+2	; 0x02
  3e:	c7 01       	movw	r24, r14
  40:	02 96       	adiw	r24, 0x02	; 2
  42:	0e 94 00 00 	call	0	; 0x0 <_ZN28ByteArraySeekableInputStream4seekEj>
  46:	d8 01       	movw	r26, r16
  48:	8d 91       	ld	r24, X+
  4a:	9c 91       	ld	r25, X
  4c:	11 97       	sbiw	r26, 0x01	; 1
  4e:	f7 01       	movw	r30, r14
  50:	91 83       	std	Z+1, r25	; 0x01
  52:	80 83       	st	Z, r24
  54:	1c 96       	adiw	r26, 0x0c	; 12
  56:	2d 91       	ld	r18, X+
  58:	3c 91       	ld	r19, X
  5a:	1d 97       	sbiw	r26, 0x0d	; 13
  5c:	fc 01       	movw	r30, r24
  5e:	38 97       	sbiw	r30, 0x08	; 8
  60:	01 90       	ld	r0, Z+
  62:	f0 81       	ld	r31, Z
  64:	e0 2d       	mov	r30, r0
  66:	ee 0d       	add	r30, r14
  68:	ff 1d       	adc	r31, r15
  6a:	31 83       	std	Z+1, r19	; 0x01
  6c:	20 83       	st	Z, r18
  6e:	1e 96       	adiw	r26, 0x0e	; 14
  70:	8d 91       	ld	r24, X+
  72:	9c 91       	ld	r25, X
  74:	1f 97       	sbiw	r26, 0x0f	; 15
  76:	d7 01       	movw	r26, r14
  78:	ed 91       	ld	r30, X+
  7a:	fc 91       	ld	r31, X
  7c:	11 97       	sbiw	r26, 0x01	; 1
  7e:	3a 97       	sbiw	r30, 0x0a	; 10
  80:	01 90       	ld	r0, Z+
  82:	f0 81       	ld	r31, Z
  84:	e0 2d       	mov	r30, r0
  86:	ee 0d       	add	r30, r14
  88:	ff 1d       	adc	r31, r15
  8a:	91 83       	std	Z+1, r25	; 0x01
  8c:	80 83       	st	Z, r24
  8e:	f8 01       	movw	r30, r16
  90:	80 89       	ldd	r24, Z+16	; 0x10
  92:	91 89       	ldd	r25, Z+17	; 0x11
  94:	13 96       	adiw	r26, 0x03	; 3
  96:	9c 93       	st	X, r25
  98:	8e 93       	st	-X, r24
  9a:	12 97       	sbiw	r26, 0x02	; 2
  9c:	0f 90       	pop	r0
  9e:	0f 90       	pop	r0
  a0:	0f 90       	pop	r0
  a2:	0f 90       	pop	r0
  a4:	df 91       	pop	r29
  a6:	cf 91       	pop	r28
  a8:	1f 91       	pop	r17
  aa:	0f 91       	pop	r16
  ac:	ff 90       	pop	r15
  ae:	ef 90       	pop	r14
  b0:	08 95       	ret

000000b2 <_ZN28ByteArraySeekableInputStreamC1EPhj>:
  b2:	ef 92       	push	r14
  b4:	ff 92       	push	r15
  b6:	0f 93       	push	r16
  b8:	1f 93       	push	r17
  ba:	cf 93       	push	r28
  bc:	df 93       	push	r29
  be:	ec 01       	movw	r28, r24
  c0:	8b 01       	movw	r16, r22
  c2:	7a 01       	movw	r14, r20
  c4:	80 e0       	ldi	r24, 0x00	; 0
  c6:	90 e0       	ldi	r25, 0x00	; 0
  c8:	99 83       	std	Y+1, r25	; 0x01
  ca:	88 83       	st	Y, r24
  cc:	80 e0       	ldi	r24, 0x00	; 0
  ce:	90 e0       	ldi	r25, 0x00	; 0
  d0:	9b 83       	std	Y+3, r25	; 0x03
  d2:	8a 83       	std	Y+2, r24	; 0x02
  d4:	60 e0       	ldi	r22, 0x00	; 0
  d6:	70 e0       	ldi	r23, 0x00	; 0
  d8:	ce 01       	movw	r24, r28
  da:	0e 94 00 00 	call	0	; 0x0 <_ZN28ByteArraySeekableInputStream4seekEj>
  de:	97 01       	movw	r18, r14
  e0:	a8 01       	movw	r20, r16
  e2:	60 e0       	ldi	r22, 0x00	; 0
  e4:	70 e0       	ldi	r23, 0x00	; 0
  e6:	ce 01       	movw	r24, r28
  e8:	02 96       	adiw	r24, 0x02	; 2
  ea:	0e 94 00 00 	call	0	; 0x0 <_ZN28ByteArraySeekableInputStream4seekEj>
  ee:	80 e0       	ldi	r24, 0x00	; 0
  f0:	90 e0       	ldi	r25, 0x00	; 0
  f2:	99 83       	std	Y+1, r25	; 0x01
  f4:	88 83       	st	Y, r24
  f6:	80 e0       	ldi	r24, 0x00	; 0
  f8:	90 e0       	ldi	r25, 0x00	; 0
  fa:	9b 83       	std	Y+3, r25	; 0x03
  fc:	8a 83       	std	Y+2, r24	; 0x02
  fe:	df 91       	pop	r29
 100:	cf 91       	pop	r28
 102:	1f 91       	pop	r17
 104:	0f 91       	pop	r16
 106:	ff 90       	pop	r15
 108:	ef 90       	pop	r14
 10a:	08 95       	ret

0000010c <_ZTv0_n6_N28ByteArraySeekableInputStream4seekEj>:
 10c:	dc 01       	movw	r26, r24
 10e:	ed 91       	ld	r30, X+
 110:	fc 91       	ld	r31, X
 112:	36 97       	sbiw	r30, 0x06	; 6
 114:	20 81       	ld	r18, Z
 116:	31 81       	ldd	r19, Z+1	; 0x01
 118:	82 0f       	add	r24, r18
 11a:	93 1f       	adc	r25, r19
 11c:	0c 94 00 00 	jmp	0	; 0x0 <_ZN28ByteArraySeekableInputStream4seekEj>

Disassembly of section .text._ZN19SeekableInputStreamC2Ev:

00000000 <_ZN19SeekableInputStreamC2Ev>:
   0:	fb 01       	movw	r30, r22
   2:	20 81       	ld	r18, Z
   4:	31 81       	ldd	r19, Z+1	; 0x01
   6:	dc 01       	movw	r26, r24
   8:	2d 93       	st	X+, r18
   a:	3c 93       	st	X, r19
   c:	42 81       	ldd	r20, Z+2	; 0x02
   e:	53 81       	ldd	r21, Z+3	; 0x03
  10:	d9 01       	movw	r26, r18
  12:	18 97       	sbiw	r26, 0x08	; 8
  14:	0d 90       	ld	r0, X+
  16:	bc 91       	ld	r27, X
  18:	a0 2d       	mov	r26, r0
  1a:	a8 0f       	add	r26, r24
  1c:	b9 1f       	adc	r27, r25
  1e:	4d 93       	st	X+, r20
  20:	5c 93       	st	X, r21
  22:	24 81       	ldd	r18, Z+4	; 0x04
  24:	35 81       	ldd	r19, Z+5	; 0x05
  26:	dc 01       	movw	r26, r24
  28:	ed 91       	ld	r30, X+
  2a:	fc 91       	ld	r31, X
  2c:	3a 97       	sbiw	r30, 0x0a	; 10
  2e:	01 90       	ld	r0, Z+
  30:	f0 81       	ld	r31, Z
  32:	e0 2d       	mov	r30, r0
  34:	e8 0f       	add	r30, r24
  36:	f9 1f       	adc	r31, r25
  38:	31 83       	std	Z+1, r19	; 0x01
  3a:	20 83       	st	Z, r18
  3c:	08 95       	ret

ByteArrayOutputStream.o:     file format elf32-avr

Sections:
Idx Name          Size      VMA       LMA       File off  Algn
  0 .group        00000008  00000000  00000000  00000034  2**2
                  CONTENTS, READONLY, EXCLUDE, GROUP, LINK_ONCE_DISCARD
  1 .group        00000008  00000000  00000000  0000003c  2**2
                  CONTENTS, READONLY, EXCLUDE, GROUP, LINK_ONCE_DISCARD
  2 .text         00000048  00000000  00000000  00000044  2**0
                  CONTENTS, ALLOC, LOAD, RELOC, READONLY, CODE
  3 .data         00000000  00000000  00000000  0000008c  2**0
                  CONTENTS, ALLOC, LOAD, DATA
  4 .bss          00000000  00000000  00000000  0000008c  2**0
                  ALLOC
  5 .rodata._ZTV21ByteArrayOutputStream 0000000e  00000000  00000000  0000008c  2**0
                  CONTENTS, ALLOC, LOAD, RELOC, READONLY, DATA
  6 .rodata._ZTV9Closeable 00000006  00000000  00000000  0000009a  2**0
                  CONTENTS, ALLOC, LOAD, RELOC, READONLY, DATA
  7 .comment      00000012  00000000  00000000  000000a0  2**0
                  CONTENTS, READONLY

Disassembly of section .text:

00000000 <_ZN21ByteArrayOutputStream5writeEh>:
   0:	fc 01       	movw	r30, r24
   2:	86 81       	ldd	r24, Z+6	; 0x06
   4:	97 81       	ldd	r25, Z+7	; 0x07
   6:	a2 81       	ldd	r26, Z+2	; 0x02
   8:	b3 81       	ldd	r27, Z+3	; 0x03
   a:	a8 0f       	add	r26, r24
   c:	b9 1f       	adc	r27, r25
   e:	6c 93       	st	X, r22
  10:	01 96       	adiw	r24, 0x01	; 1
  12:	97 83       	std	Z+7, r25	; 0x07
  14:	86 83       	std	Z+6, r24	; 0x06
  16:	08 95       	ret

00000018 <_ZN21ByteArrayOutputStreamC1EPhj>:
  18:	fc 01       	movw	r30, r24
  1a:	80 e0       	ldi	r24, 0x00	; 0
  1c:	90 e0       	ldi	r25, 0x00	; 0
  1e:	91 83       	std	Z+1, r25	; 0x01
  20:	80 83       	st	Z, r24
  22:	73 83       	std	Z+3, r23	; 0x03
  24:	62 83       	std	Z+2, r22	; 0x02
  26:	55 83       	std	Z+5, r21	; 0x05
  28:	44 83       	std	Z+4, r20	; 0x04
  2a:	17 82       	std	Z+7, r1	; 0x07
  2c:	16 82       	std	Z+6, r1	; 0x06
  2e:	08 95       	ret

00000030 <_ZN21ByteArrayOutputStream5resetEv>:
  30:	fc 01       	movw	r30, r24
  32:	17 82       	std	Z+7, r1	; 0x07
  34:	16 82       	std	Z+6, r1	; 0x06
  36:	08 95       	ret

00000038 <_ZN21ByteArrayOutputStream4sizeEv>:
  38:	fc 01       	movw	r30, r24
  3a:	84 81       	ldd	r24, Z+4	; 0x04
  3c:	95 81       	ldd	r25, Z+5	; 0x05
  3e:	08 95       	ret

00000040 <_ZN21ByteArrayOutputStream11toByteArrayEv>:
  40:	fc 01       	movw	r30, r24
  42:	82 81       	ldd	r24, Z+2	; 0x02
  44:	93 81       	ldd	r25, Z+3	; 0x03
  46:	08 95       	ret

ByteArrayInputStream.o:     file format elf32-avr

Sections:
Idx Name          Size      VMA       LMA       File off  Algn
  0 .group        0000000c  00000000  00000000  00000034  2**2
                  CONTENTS, READONLY, EXCLUDE, GROUP, LINK_ONCE_DISCARD
  1 .group        00000008  00000000  00000000  00000040  2**2
                  CONTENTS, READONLY, EXCLUDE, GROUP, LINK_ONCE_DISCARD
  2 .text         0000010e  00000000  00000000  00000048  2**0
                  CONTENTS, ALLOC, LOAD, RELOC, READONLY, CODE
  3 .data         00000000  00000000  00000000  00000156  2**0
                  CONTENTS, ALLOC, LOAD, DATA
  4 .bss          00000000  00000000  00000000  00000156  2**0
                  ALLOC
  5 .rodata._ZTT20ByteArrayInputStream 00000004  00000000  00000000  00000156  2**0
                  CONTENTS, ALLOC, LOAD, RELOC, READONLY, DATA
  6 .rodata._ZTV20ByteArrayInputStream 0000002a  00000000  00000000  0000015a  2**0
                  CONTENTS, ALLOC, LOAD, RELOC, READONLY, DATA
  7 .rodata._ZTV9Closeable 00000006  00000000  00000000  00000184  2**0
                  CONTENTS, ALLOC, LOAD, RELOC, READONLY, DATA
  8 .comment      00000012  00000000  00000000  0000018a  2**0
                  CONTENTS, READONLY

Disassembly of section .text:

00000000 <_ZN20ByteArrayInputStream9availableEv>:
   0:	21 e0       	ldi	r18, 0x01	; 1
   2:	30 e0       	ldi	r19, 0x00	; 0
   4:	fc 01       	movw	r30, r24
   6:	44 81       	ldd	r20, Z+4	; 0x04
   8:	55 81       	ldd	r21, Z+5	; 0x05
   a:	86 81       	ldd	r24, Z+6	; 0x06
   c:	97 81       	ldd	r25, Z+7	; 0x07
   e:	48 17       	cp	r20, r24
  10:	59 07       	cpc	r21, r25
  12:	01 f4       	brne	.+0      	; 0x14 <_ZN20ByteArrayInputStream9availableEv+0x14>
  14:	20 e0       	ldi	r18, 0x00	; 0
  16:	30 e0       	ldi	r19, 0x00	; 0
  18:	c9 01       	movw	r24, r18
  1a:	08 95       	ret

0000001c <_ZN20ByteArrayInputStream4markEv>:
  1c:	fc 01       	movw	r30, r24
  1e:	26 81       	ldd	r18, Z+6	; 0x06
  20:	37 81       	ldd	r19, Z+7	; 0x07
  22:	31 87       	std	Z+9, r19	; 0x09
  24:	20 87       	std	Z+8, r18	; 0x08
  26:	08 95       	ret

00000028 <_ZN20ByteArrayInputStream13markSupportedEv>:
  28:	81 e0       	ldi	r24, 0x01	; 1
  2a:	08 95       	ret

0000002c <_ZN20ByteArrayInputStream4readEv>:
  2c:	fc 01       	movw	r30, r24
  2e:	26 81       	ldd	r18, Z+6	; 0x06
  30:	37 81       	ldd	r19, Z+7	; 0x07
  32:	a2 81       	ldd	r26, Z+2	; 0x02
  34:	b3 81       	ldd	r27, Z+3	; 0x03
  36:	a2 0f       	add	r26, r18
  38:	b3 1f       	adc	r27, r19
  3a:	8c 91       	ld	r24, X
  3c:	2f 5f       	subi	r18, 0xFF	; 255
  3e:	3f 4f       	sbci	r19, 0xFF	; 255
  40:	37 83       	std	Z+7, r19	; 0x07
  42:	26 83       	std	Z+6, r18	; 0x06
  44:	90 e0       	ldi	r25, 0x00	; 0
  46:	08 95       	ret

00000048 <_ZN20ByteArrayInputStream5resetEv>:
  48:	fc 01       	movw	r30, r24
  4a:	20 85       	ldd	r18, Z+8	; 0x08
  4c:	31 85       	ldd	r19, Z+9	; 0x09
  4e:	37 83       	std	Z+7, r19	; 0x07
  50:	26 83       	std	Z+6, r18	; 0x06
  52:	08 95       	ret

00000054 <_ZN20ByteArrayInputStreamC2EPhj>:
  54:	fc 01       	movw	r30, r24
  56:	db 01       	movw	r26, r22
  58:	8d 91       	ld	r24, X+
  5a:	9c 91       	ld	r25, X
  5c:	11 97       	sbiw	r26, 0x01	; 1
  5e:	91 83       	std	Z+1, r25	; 0x01
  60:	80 83       	st	Z, r24
  62:	12 96       	adiw	r26, 0x02	; 2
  64:	6d 91       	ld	r22, X+
  66:	7c 91       	ld	r23, X
  68:	13 97       	sbiw	r26, 0x03	; 3
  6a:	dc 01       	movw	r26, r24
  6c:	58 97       	sbiw	r26, 0x18	; 24
  6e:	0d 90       	ld	r0, X+
  70:	bc 91       	ld	r27, X
  72:	a0 2d       	mov	r26, r0
  74:	ae 0f       	add	r26, r30
  76:	bf 1f       	adc	r27, r31
  78:	6d 93       	st	X+, r22
  7a:	7c 93       	st	X, r23
  7c:	53 83       	std	Z+3, r21	; 0x03
  7e:	42 83       	std	Z+2, r20	; 0x02
  80:	35 83       	std	Z+5, r19	; 0x05
  82:	24 83       	std	Z+4, r18	; 0x04
  84:	11 86       	std	Z+9, r1	; 0x09
  86:	10 86       	std	Z+8, r1	; 0x08
  88:	17 82       	std	Z+7, r1	; 0x07
  8a:	16 82       	std	Z+6, r1	; 0x06
  8c:	08 95       	ret

0000008e <_ZN20ByteArrayInputStreamC1EPhj>:
  8e:	fc 01       	movw	r30, r24
  90:	80 e0       	ldi	r24, 0x00	; 0
  92:	90 e0       	ldi	r25, 0x00	; 0
  94:	91 83       	std	Z+1, r25	; 0x01
  96:	80 83       	st	Z, r24
  98:	73 83       	std	Z+3, r23	; 0x03
  9a:	62 83       	std	Z+2, r22	; 0x02
  9c:	55 83       	std	Z+5, r21	; 0x05
  9e:	44 83       	std	Z+4, r20	; 0x04
  a0:	11 86       	std	Z+9, r1	; 0x09
  a2:	10 86       	std	Z+8, r1	; 0x08
  a4:	17 82       	std	Z+7, r1	; 0x07
  a6:	16 82       	std	Z+6, r1	; 0x06
  a8:	08 95       	ret

000000aa <_ZTv0_n20_N20ByteArrayInputStream5resetEv>:
  aa:	dc 01       	movw	r26, r24
  ac:	ed 91       	ld	r30, X+
  ae:	fc 91       	ld	r31, X
  b0:	74 97       	sbiw	r30, 0x14	; 20
  b2:	20 81       	ld	r18, Z
  b4:	31 81       	ldd	r19, Z+1	; 0x01
  b6:	82 0f       	add	r24, r18
  b8:	93 1f       	adc	r25, r19
  ba:	0c 94 00 00 	jmp	0	; 0x0 <_ZN20ByteArrayInputStream9availableEv>

000000be <_ZTv0_n14_N20ByteArrayInputStream4readEv>:
  be:	dc 01       	movw	r26, r24
  c0:	ed 91       	ld	r30, X+
  c2:	fc 91       	ld	r31, X
  c4:	3e 97       	sbiw	r30, 0x0e	; 14
  c6:	20 81       	ld	r18, Z
  c8:	31 81       	ldd	r19, Z+1	; 0x01
  ca:	82 0f       	add	r24, r18
  cc:	93 1f       	adc	r25, r19
  ce:	0c 94 00 00 	jmp	0	; 0x0 <_ZN20ByteArrayInputStream9availableEv>

000000d2 <_ZTv0_n12_N20ByteArrayInputStream13markSupportedEv>:
  d2:	dc 01       	movw	r26, r24
  d4:	ed 91       	ld	r30, X+
  d6:	fc 91       	ld	r31, X
  d8:	3c 97       	sbiw	r30, 0x0c	; 12
  da:	20 81       	ld	r18, Z
  dc:	31 81       	ldd	r19, Z+1	; 0x01
  de:	82 0f       	add	r24, r18
  e0:	93 1f       	adc	r25, r19
  e2:	0c 94 00 00 	jmp	0	; 0x0 <_ZN20ByteArrayInputStream9availableEv>

000000e6 <_ZTv0_n10_N20ByteArrayInputStream4markEv>:
  e6:	dc 01       	movw	r26, r24
  e8:	ed 91       	ld	r30, X+
  ea:	fc 91       	ld	r31, X
  ec:	3a 97       	sbiw	r30, 0x0a	; 10
  ee:	20 81       	ld	r18, Z
  f0:	31 81       	ldd	r19, Z+1	; 0x01
  f2:	82 0f       	add	r24, r18
  f4:	93 1f       	adc	r25, r19
  f6:	0c 94 00 00 	jmp	0	; 0x0 <_ZN20ByteArrayInputStream9availableEv>

000000fa <_ZTv0_n8_N20ByteArrayInputStream9availableEv>:
  fa:	dc 01       	movw	r26, r24
  fc:	ed 91       	ld	r30, X+
  fe:	fc 91       	ld	r31, X
 100:	38 97       	sbiw	r30, 0x08	; 8
 102:	20 81       	ld	r18, Z
 104:	31 81       	ldd	r19, Z+1	; 0x01
 106:	82 0f       	add	r24, r18
 108:	93 1f       	adc	r25, r19
 10a:	0c 94 00 00 	jmp	0	; 0x0 <_ZN20ByteArrayInputStream9availableEv>

BufferedOutputStream.o:     file format elf32-avr

Sections:
Idx Name          Size      VMA       LMA       File off  Algn
  0 .group        00000008  00000000  00000000  00000034  2**2
                  CONTENTS, READONLY, EXCLUDE, GROUP, LINK_ONCE_DISCARD
  1 .text         000001ca  00000000  00000000  0000003c  2**0
                  CONTENTS, ALLOC, LOAD, RELOC, READONLY, CODE
  2 .data         00000000  00000000  00000000  00000206  2**0
                  CONTENTS, ALLOC, LOAD, DATA
  3 .bss          00000000  00000000  00000000  00000206  2**0
                  ALLOC
  4 .rodata._ZTV20BufferedOutputStream 0000000e  00000000  00000000  00000206  2**0
                  CONTENTS, ALLOC, LOAD, RELOC, READONLY, DATA
  5 .comment      00000012  00000000  00000000  00000214  2**0
                  CONTENTS, READONLY

Disassembly of section .text:

00000000 <_ZN20BufferedOutputStream5writeEPhi>:
   0:	9a 01       	movw	r18, r20
   2:	dc 01       	movw	r26, r24
   4:	ed 91       	ld	r30, X+
   6:	fc 91       	ld	r31, X
   8:	00 84       	ldd	r0, Z+8	; 0x08
   a:	f1 85       	ldd	r31, Z+9	; 0x09
   c:	e0 2d       	mov	r30, r0
   e:	40 e0       	ldi	r20, 0x00	; 0
  10:	50 e0       	ldi	r21, 0x00	; 0
  12:	09 94       	ijmp

00000014 <_ZN20BufferedOutputStream5closeEv>:
  14:	cf 93       	push	r28
  16:	df 93       	push	r29
  18:	ec 01       	movw	r28, r24
  1a:	e8 81       	ld	r30, Y
  1c:	f9 81       	ldd	r31, Y+1	; 0x01
  1e:	02 80       	ldd	r0, Z+2	; 0x02
  20:	f3 81       	ldd	r31, Z+3	; 0x03
  22:	e0 2d       	mov	r30, r0
  24:	09 95       	icall
  26:	8a 81       	ldd	r24, Y+2	; 0x02
  28:	9b 81       	ldd	r25, Y+3	; 0x03
  2a:	dc 01       	movw	r26, r24
  2c:	ed 91       	ld	r30, X+
  2e:	fc 91       	ld	r31, X
  30:	01 90       	ld	r0, Z+
  32:	f0 81       	ld	r31, Z
  34:	e0 2d       	mov	r30, r0
  36:	df 91       	pop	r29
  38:	cf 91       	pop	r28
  3a:	09 94       	ijmp

0000003c <_ZN20BufferedOutputStreamC1EP12OutputStreamPhi>:
  3c:	ef 92       	push	r14
  3e:	ff 92       	push	r15
  40:	0f 93       	push	r16
  42:	1f 93       	push	r17
  44:	cf 93       	push	r28
  46:	df 93       	push	r29
  48:	ec 01       	movw	r28, r24
  4a:	7a 01       	movw	r14, r20
  4c:	89 01       	movw	r16, r18
  4e:	0e 94 00 00 	call	0	; 0x0 <_ZN20BufferedOutputStream5writeEPhi>
  52:	80 e0       	ldi	r24, 0x00	; 0
  54:	90 e0       	ldi	r25, 0x00	; 0
  56:	99 83       	std	Y+1, r25	; 0x01
  58:	88 83       	st	Y, r24
  5a:	fd 82       	std	Y+5, r15	; 0x05
  5c:	ec 82       	std	Y+4, r14	; 0x04
  5e:	1f 83       	std	Y+7, r17	; 0x07
  60:	0e 83       	std	Y+6, r16	; 0x06
  62:	19 86       	std	Y+9, r1	; 0x09
  64:	18 86       	std	Y+8, r1	; 0x08
  66:	df 91       	pop	r29
  68:	cf 91       	pop	r28
  6a:	1f 91       	pop	r17
  6c:	0f 91       	pop	r16
  6e:	ff 90       	pop	r15
  70:	ef 90       	pop	r14
  72:	08 95       	ret

00000074 <_ZN20BufferedOutputStream11flushBufferEv>:
  74:	cf 93       	push	r28
  76:	df 93       	push	r29
  78:	ec 01       	movw	r28, r24
  7a:	28 85       	ldd	r18, Y+8	; 0x08
  7c:	39 85       	ldd	r19, Y+9	; 0x09
  7e:	12 16       	cp	r1, r18
  80:	13 06       	cpc	r1, r19
  82:	04 f4       	brge	.+0      	; 0x84 <_ZN20BufferedOutputStream11flushBufferEv+0x10>
  84:	8a 81       	ldd	r24, Y+2	; 0x02
  86:	9b 81       	ldd	r25, Y+3	; 0x03
  88:	dc 01       	movw	r26, r24
  8a:	ed 91       	ld	r30, X+
  8c:	fc 91       	ld	r31, X
  8e:	6c 81       	ldd	r22, Y+4	; 0x04
  90:	7d 81       	ldd	r23, Y+5	; 0x05
  92:	00 84       	ldd	r0, Z+8	; 0x08
  94:	f1 85       	ldd	r31, Z+9	; 0x09
  96:	e0 2d       	mov	r30, r0
  98:	40 e0       	ldi	r20, 0x00	; 0
  9a:	50 e0       	ldi	r21, 0x00	; 0
  9c:	09 95       	icall
  9e:	19 86       	std	Y+9, r1	; 0x09
  a0:	18 86       	std	Y+8, r1	; 0x08
  a2:	df 91       	pop	r29
  a4:	cf 91       	pop	r28
  a6:	08 95       	ret

000000a8 <_ZN20BufferedOutputStream5flushEv>:
  a8:	cf 93       	push	r28
  aa:	df 93       	push	r29
  ac:	ec 01       	movw	r28, r24
  ae:	0e 94 00 00 	call	0	; 0x0 <_ZN20BufferedOutputStream5writeEPhi>
  b2:	8a 81       	ldd	r24, Y+2	; 0x02
  b4:	9b 81       	ldd	r25, Y+3	; 0x03
  b6:	dc 01       	movw	r26, r24
  b8:	ed 91       	ld	r30, X+
  ba:	fc 91       	ld	r31, X
  bc:	02 80       	ldd	r0, Z+2	; 0x02
  be:	f3 81       	ldd	r31, Z+3	; 0x03
  c0:	e0 2d       	mov	r30, r0
  c2:	df 91       	pop	r29
  c4:	cf 91       	pop	r28
  c6:	09 94       	ijmp

000000c8 <_ZN20BufferedOutputStream5writeEPhii>:
  c8:	cf 92       	push	r12
  ca:	df 92       	push	r13
  cc:	ef 92       	push	r14
  ce:	ff 92       	push	r15
  d0:	0f 93       	push	r16
  d2:	1f 93       	push	r17
  d4:	cf 93       	push	r28
  d6:	df 93       	push	r29
  d8:	ec 01       	movw	r28, r24
  da:	6b 01       	movw	r12, r22
  dc:	7a 01       	movw	r14, r20
  de:	89 01       	movw	r16, r18
  e0:	8e 81       	ldd	r24, Y+6	; 0x06
  e2:	9f 81       	ldd	r25, Y+7	; 0x07
  e4:	28 17       	cp	r18, r24
  e6:	39 07       	cpc	r19, r25
  e8:	04 f0       	brlt	.+0      	; 0xea <_ZN20BufferedOutputStream5writeEPhii+0x22>
  ea:	ce 01       	movw	r24, r28
  ec:	0e 94 00 00 	call	0	; 0x0 <_ZN20BufferedOutputStream5writeEPhi>
  f0:	8a 81       	ldd	r24, Y+2	; 0x02
  f2:	9b 81       	ldd	r25, Y+3	; 0x03
  f4:	dc 01       	movw	r26, r24
  f6:	ed 91       	ld	r30, X+
  f8:	fc 91       	ld	r31, X
  fa:	00 84       	ldd	r0, Z+8	; 0x08
  fc:	f1 85       	ldd	r31, Z+9	; 0x09
  fe:	e0 2d       	mov	r30, r0
 100:	98 01       	movw	r18, r16
 102:	a7 01       	movw	r20, r14
 104:	b6 01       	movw	r22, r12
 106:	df 91       	pop	r29
 108:	cf 91       	pop	r28
 10a:	1f 91       	pop	r17
 10c:	0f 91       	pop	r16
 10e:	ff 90       	pop	r15
 110:	ef 90       	pop	r14
 112:	df 90       	pop	r13
 114:	cf 90       	pop	r12
 116:	09 94       	ijmp
 118:	28 85       	ldd	r18, Y+8	; 0x08
 11a:	39 85       	ldd	r19, Y+9	; 0x09
 11c:	82 1b       	sub	r24, r18
 11e:	93 0b       	sbc	r25, r19
 120:	80 17       	cp	r24, r16
 122:	91 07       	cpc	r25, r17
 124:	04 f4       	brge	.+0      	; 0x126 <_ZN20BufferedOutputStream5writeEPhii+0x5e>
 126:	ce 01       	movw	r24, r28
 128:	0e 94 00 00 	call	0	; 0x0 <_ZN20BufferedOutputStream5writeEPhi>
 12c:	d6 01       	movw	r26, r12
 12e:	ae 0d       	add	r26, r14
 130:	bf 1d       	adc	r27, r15
 132:	80 e0       	ldi	r24, 0x00	; 0
 134:	90 e0       	ldi	r25, 0x00	; 0
 136:	00 c0       	rjmp	.+0      	; 0x138 <_ZN20BufferedOutputStream5writeEPhii+0x70>
 138:	4d 91       	ld	r20, X+
 13a:	ec 81       	ldd	r30, Y+4	; 0x04
 13c:	fd 81       	ldd	r31, Y+5	; 0x05
 13e:	e2 0f       	add	r30, r18
 140:	f3 1f       	adc	r31, r19
 142:	e8 0f       	add	r30, r24
 144:	f9 1f       	adc	r31, r25
 146:	40 83       	st	Z, r20
 148:	01 96       	adiw	r24, 0x01	; 1
 14a:	28 85       	ldd	r18, Y+8	; 0x08
 14c:	39 85       	ldd	r19, Y+9	; 0x09
 14e:	80 17       	cp	r24, r16
 150:	91 07       	cpc	r25, r17
 152:	04 f0       	brlt	.+0      	; 0x154 <_ZN20BufferedOutputStream5writeEPhii+0x8c>
 154:	02 0f       	add	r16, r18
 156:	13 1f       	adc	r17, r19
 158:	19 87       	std	Y+9, r17	; 0x09
 15a:	08 87       	std	Y+8, r16	; 0x08
 15c:	df 91       	pop	r29
 15e:	cf 91       	pop	r28
 160:	1f 91       	pop	r17
 162:	0f 91       	pop	r16
 164:	ff 90       	pop	r15
 166:	ef 90       	pop	r14
 168:	df 90       	pop	r13
 16a:	cf 90       	pop	r12
 16c:	08 95       	ret

0000016e <_ZN20BufferedOutputStream5writeEh>:
 16e:	0f 93       	push	r16
 170:	1f 93       	push	r17
 172:	cf 93       	push	r28
 174:	df 93       	push	r29
 176:	1f 92       	push	r1
 178:	cd b7       	in	r28, 0x3d	; 61
 17a:	de b7       	in	r29, 0x3e	; 62
 17c:	8c 01       	movw	r16, r24
 17e:	dc 01       	movw	r26, r24
 180:	18 96       	adiw	r26, 0x08	; 8
 182:	2d 91       	ld	r18, X+
 184:	3c 91       	ld	r19, X
 186:	19 97       	sbiw	r26, 0x09	; 9
 188:	16 96       	adiw	r26, 0x06	; 6
 18a:	8d 91       	ld	r24, X+
 18c:	9c 91       	ld	r25, X
 18e:	17 97       	sbiw	r26, 0x07	; 7
 190:	28 17       	cp	r18, r24
 192:	39 07       	cpc	r19, r25
 194:	04 f0       	brlt	.+0      	; 0x196 <_ZN20BufferedOutputStream5writeEh+0x28>
 196:	c8 01       	movw	r24, r16
 198:	69 83       	std	Y+1, r22	; 0x01
 19a:	0e 94 00 00 	call	0	; 0x0 <_ZN20BufferedOutputStream5writeEPhi>
 19e:	69 81       	ldd	r22, Y+1	; 0x01
 1a0:	f8 01       	movw	r30, r16
 1a2:	80 85       	ldd	r24, Z+8	; 0x08
 1a4:	91 85       	ldd	r25, Z+9	; 0x09
 1a6:	04 80       	ldd	r0, Z+4	; 0x04
 1a8:	f5 81       	ldd	r31, Z+5	; 0x05
 1aa:	e0 2d       	mov	r30, r0
 1ac:	e8 0f       	add	r30, r24
 1ae:	f9 1f       	adc	r31, r25
 1b0:	60 83       	st	Z, r22
 1b2:	01 96       	adiw	r24, 0x01	; 1
 1b4:	d8 01       	movw	r26, r16
 1b6:	19 96       	adiw	r26, 0x09	; 9
 1b8:	9c 93       	st	X, r25
 1ba:	8e 93       	st	-X, r24
 1bc:	18 97       	sbiw	r26, 0x08	; 8
 1be:	0f 90       	pop	r0
 1c0:	df 91       	pop	r29
 1c2:	cf 91       	pop	r28
 1c4:	1f 91       	pop	r17
 1c6:	0f 91       	pop	r16
 1c8:	08 95       	ret

BufferedInputStream.o:     file format elf32-avr

Sections:
Idx Name          Size      VMA       LMA       File off  Algn
  0 .group        00000010  00000000  00000000  00000034  2**2
                  CONTENTS, READONLY, EXCLUDE, GROUP, LINK_ONCE_DISCARD
  1 .group        00000008  00000000  00000000  00000044  2**2
                  CONTENTS, READONLY, EXCLUDE, GROUP, LINK_ONCE_DISCARD
  2 .text         000003fe  00000000  00000000  0000004c  2**0
                  CONTENTS, ALLOC, LOAD, RELOC, READONLY, CODE
  3 .data         00000000  00000000  00000000  0000044a  2**0
                  CONTENTS, ALLOC, LOAD, DATA
  4 .bss          00000000  00000000  00000000  0000044a  2**0
                  ALLOC
  5 .rodata._ZTC19BufferedInputStream0_17FilterInputStream 0000002a  00000000  00000000  0000044a  2**0
                  CONTENTS, ALLOC, LOAD, RELOC, READONLY, DATA
  6 .rodata._ZTT19BufferedInputStream 00000008  00000000  00000000  00000474  2**0
                  CONTENTS, ALLOC, LOAD, RELOC, READONLY, DATA
  7 .rodata._ZTV19BufferedInputStream 0000002a  00000000  00000000  0000047c  2**0
                  CONTENTS, ALLOC, LOAD, RELOC, READONLY, DATA
  8 .rodata._ZTV9Closeable 00000006  00000000  00000000  000004a6  2**0
                  CONTENTS, ALLOC, LOAD, RELOC, READONLY, DATA
  9 .comment      00000012  00000000  00000000  000004ac  2**0
                  CONTENTS, READONLY

Disassembly of section .text:

00000000 <_ZN19BufferedInputStream9availableEv>:
   0:	cf 93       	push	r28
   2:	df 93       	push	r29
   4:	ec 01       	movw	r28, r24
   6:	8a 81       	ldd	r24, Y+2	; 0x02
   8:	9b 81       	ldd	r25, Y+3	; 0x03
   a:	dc 01       	movw	r26, r24
   c:	ed 91       	ld	r30, X+
   e:	fc 91       	ld	r31, X
  10:	02 80       	ldd	r0, Z+2	; 0x02
  12:	f3 81       	ldd	r31, Z+3	; 0x03
  14:	e0 2d       	mov	r30, r0
  16:	09 95       	icall
  18:	28 85       	ldd	r18, Y+8	; 0x08
  1a:	39 85       	ldd	r19, Y+9	; 0x09
  1c:	4a 85       	ldd	r20, Y+10	; 0x0a
  1e:	5b 85       	ldd	r21, Y+11	; 0x0b
  20:	24 1b       	sub	r18, r20
  22:	35 0b       	sbc	r19, r21
  24:	28 0f       	add	r18, r24
  26:	39 1f       	adc	r19, r25
  28:	c9 01       	movw	r24, r18
  2a:	df 91       	pop	r29
  2c:	cf 91       	pop	r28
  2e:	08 95       	ret

00000030 <_ZN19BufferedInputStream5closeEv>:
  30:	dc 01       	movw	r26, r24
  32:	12 96       	adiw	r26, 0x02	; 2
  34:	8d 91       	ld	r24, X+
  36:	9c 91       	ld	r25, X
  38:	13 97       	sbiw	r26, 0x03	; 3
  3a:	dc 01       	movw	r26, r24
  3c:	ed 91       	ld	r30, X+
  3e:	fc 91       	ld	r31, X
  40:	01 90       	ld	r0, Z+
  42:	f0 81       	ld	r31, Z
  44:	e0 2d       	mov	r30, r0
  46:	09 94       	ijmp

00000048 <_ZN19BufferedInputStream5resetEv>:
  48:	fc 01       	movw	r30, r24
  4a:	86 85       	ldd	r24, Z+14	; 0x0e
  4c:	88 23       	and	r24, r24
  4e:	01 f0       	breq	.+0      	; 0x50 <_ZN19BufferedInputStream5resetEv+0x8>
  50:	84 85       	ldd	r24, Z+12	; 0x0c
  52:	95 85       	ldd	r25, Z+13	; 0x0d
  54:	93 87       	std	Z+11, r25	; 0x0b
  56:	82 87       	std	Z+10, r24	; 0x0a
  58:	08 95       	ret

0000005a <_ZN19BufferedInputStream4readEPhi>:
  5a:	9a 01       	movw	r18, r20
  5c:	dc 01       	movw	r26, r24
  5e:	ed 91       	ld	r30, X+
  60:	fc 91       	ld	r31, X
  62:	04 84       	ldd	r0, Z+12	; 0x0c
  64:	f5 85       	ldd	r31, Z+13	; 0x0d
  66:	e0 2d       	mov	r30, r0
  68:	40 e0       	ldi	r20, 0x00	; 0
  6a:	50 e0       	ldi	r21, 0x00	; 0
  6c:	09 94       	ijmp

0000006e <_ZN19BufferedInputStream13markSupportedEv>:
  6e:	81 e0       	ldi	r24, 0x01	; 1
  70:	08 95       	ret

00000072 <_ZN19BufferedInputStream4skipEj>:
  72:	cf 93       	push	r28
  74:	df 93       	push	r29
  76:	fc 01       	movw	r30, r24
  78:	82 85       	ldd	r24, Z+10	; 0x0a
  7a:	93 85       	ldd	r25, Z+11	; 0x0b
  7c:	c0 85       	ldd	r28, Z+8	; 0x08
  7e:	d1 85       	ldd	r29, Z+9	; 0x09
  80:	c8 1b       	sub	r28, r24
  82:	d9 0b       	sbc	r29, r25
  84:	c6 17       	cp	r28, r22
  86:	d7 07       	cpc	r29, r23
  88:	00 f0       	brcs	.+0      	; 0x8a <_ZN19BufferedInputStream4skipEj+0x18>
  8a:	86 0f       	add	r24, r22
  8c:	97 1f       	adc	r25, r23
  8e:	93 87       	std	Z+11, r25	; 0x0b
  90:	82 87       	std	Z+10, r24	; 0x0a
  92:	00 c0       	rjmp	.+0      	; 0x94 <_ZN19BufferedInputStream4skipEj+0x22>
  94:	13 86       	std	Z+11, r1	; 0x0b
  96:	12 86       	std	Z+10, r1	; 0x0a
  98:	11 86       	std	Z+9, r1	; 0x09
  9a:	10 86       	std	Z+8, r1	; 0x08
  9c:	16 86       	std	Z+14, r1	; 0x0e
  9e:	82 81       	ldd	r24, Z+2	; 0x02
  a0:	93 81       	ldd	r25, Z+3	; 0x03
  a2:	dc 01       	movw	r26, r24
  a4:	ed 91       	ld	r30, X+
  a6:	fc 91       	ld	r31, X
  a8:	6c 1b       	sub	r22, r28
  aa:	7d 0b       	sbc	r23, r29
  ac:	00 88       	ldd	r0, Z+16	; 0x10
  ae:	f1 89       	ldd	r31, Z+17	; 0x11
  b0:	e0 2d       	mov	r30, r0
  b2:	09 95       	icall
  b4:	bc 01       	movw	r22, r24
  b6:	6c 0f       	add	r22, r28
  b8:	7d 1f       	adc	r23, r29
  ba:	cb 01       	movw	r24, r22
  bc:	df 91       	pop	r29
  be:	cf 91       	pop	r28
  c0:	08 95       	ret

000000c2 <_ZN19BufferedInputStreamC2EP11InputStreamPhi>:
  c2:	cf 92       	push	r12
  c4:	df 92       	push	r13
  c6:	ef 92       	push	r14
  c8:	ff 92       	push	r15
  ca:	0f 93       	push	r16
  cc:	1f 93       	push	r17
  ce:	cf 93       	push	r28
  d0:	df 93       	push	r29
  d2:	ec 01       	movw	r28, r24
  d4:	7b 01       	movw	r14, r22
  d6:	69 01       	movw	r12, r18
  d8:	6e 5f       	subi	r22, 0xFE	; 254
  da:	7f 4f       	sbci	r23, 0xFF	; 255
  dc:	0e 94 00 00 	call	0	; 0x0 <_ZN19BufferedInputStream9availableEv>
  e0:	f7 01       	movw	r30, r14
  e2:	80 81       	ld	r24, Z
  e4:	91 81       	ldd	r25, Z+1	; 0x01
  e6:	99 83       	std	Y+1, r25	; 0x01
  e8:	88 83       	st	Y, r24
  ea:	26 81       	ldd	r18, Z+6	; 0x06
  ec:	37 81       	ldd	r19, Z+7	; 0x07
  ee:	fc 01       	movw	r30, r24
  f0:	78 97       	sbiw	r30, 0x18	; 24
  f2:	01 90       	ld	r0, Z+
  f4:	f0 81       	ld	r31, Z
  f6:	e0 2d       	mov	r30, r0
  f8:	ec 0f       	add	r30, r28
  fa:	fd 1f       	adc	r31, r29
  fc:	31 83       	std	Z+1, r19	; 0x01
  fe:	20 83       	st	Z, r18
 100:	df 82       	std	Y+7, r13	; 0x07
 102:	ce 82       	std	Y+6, r12	; 0x06
 104:	1d 83       	std	Y+5, r17	; 0x05
 106:	0c 83       	std	Y+4, r16	; 0x04
 108:	19 86       	std	Y+9, r1	; 0x09
 10a:	18 86       	std	Y+8, r1	; 0x08
 10c:	1b 86       	std	Y+11, r1	; 0x0b
 10e:	1a 86       	std	Y+10, r1	; 0x0a
 110:	df 91       	pop	r29
 112:	cf 91       	pop	r28
 114:	1f 91       	pop	r17
 116:	0f 91       	pop	r16
 118:	ff 90       	pop	r15
 11a:	ef 90       	pop	r14
 11c:	df 90       	pop	r13
 11e:	cf 90       	pop	r12
 120:	08 95       	ret

00000122 <_ZN19BufferedInputStreamC1EP11InputStreamPhi>:
 122:	ef 92       	push	r14
 124:	ff 92       	push	r15
 126:	0f 93       	push	r16
 128:	1f 93       	push	r17
 12a:	cf 93       	push	r28
 12c:	df 93       	push	r29
 12e:	ec 01       	movw	r28, r24
 130:	8a 01       	movw	r16, r20
 132:	79 01       	movw	r14, r18
 134:	80 e0       	ldi	r24, 0x00	; 0
 136:	90 e0       	ldi	r25, 0x00	; 0
 138:	99 83       	std	Y+1, r25	; 0x01
 13a:	88 83       	st	Y, r24
 13c:	ab 01       	movw	r20, r22
 13e:	60 e0       	ldi	r22, 0x00	; 0
 140:	70 e0       	ldi	r23, 0x00	; 0
 142:	ce 01       	movw	r24, r28
 144:	0e 94 00 00 	call	0	; 0x0 <_ZN19BufferedInputStream9availableEv>
 148:	80 e0       	ldi	r24, 0x00	; 0
 14a:	90 e0       	ldi	r25, 0x00	; 0
 14c:	99 83       	std	Y+1, r25	; 0x01
 14e:	88 83       	st	Y, r24
 150:	1f 83       	std	Y+7, r17	; 0x07
 152:	0e 83       	std	Y+6, r16	; 0x06
 154:	fd 82       	std	Y+5, r15	; 0x05
 156:	ec 82       	std	Y+4, r14	; 0x04
 158:	19 86       	std	Y+9, r1	; 0x09
 15a:	18 86       	std	Y+8, r1	; 0x08
 15c:	1b 86       	std	Y+11, r1	; 0x0b
 15e:	1a 86       	std	Y+10, r1	; 0x0a
 160:	df 91       	pop	r29
 162:	cf 91       	pop	r28
 164:	1f 91       	pop	r17
 166:	0f 91       	pop	r16
 168:	ff 90       	pop	r15
 16a:	ef 90       	pop	r14
 16c:	08 95       	ret

0000016e <_ZN19BufferedInputStream20realineBufferContentEv>:
 16e:	fc 01       	movw	r30, r24
 170:	82 85       	ldd	r24, Z+10	; 0x0a
 172:	93 85       	ldd	r25, Z+11	; 0x0b
 174:	18 16       	cp	r1, r24
 176:	19 06       	cpc	r1, r25
 178:	04 f4       	brge	.+0      	; 0x17a <_ZN19BufferedInputStream20realineBufferContentEv+0xc>
 17a:	20 85       	ldd	r18, Z+8	; 0x08
 17c:	31 85       	ldd	r19, Z+9	; 0x09
 17e:	28 1b       	sub	r18, r24
 180:	39 0b       	sbc	r19, r25
 182:	80 e0       	ldi	r24, 0x00	; 0
 184:	90 e0       	ldi	r25, 0x00	; 0
 186:	00 c0       	rjmp	.+0      	; 0x188 <_ZN19BufferedInputStream20realineBufferContentEv+0x1a>
 188:	46 81       	ldd	r20, Z+6	; 0x06
 18a:	57 81       	ldd	r21, Z+7	; 0x07
 18c:	a4 0f       	add	r26, r20
 18e:	b5 1f       	adc	r27, r21
 190:	a8 0f       	add	r26, r24
 192:	b9 1f       	adc	r27, r25
 194:	6c 91       	ld	r22, X
 196:	da 01       	movw	r26, r20
 198:	a8 0f       	add	r26, r24
 19a:	b9 1f       	adc	r27, r25
 19c:	6c 93       	st	X, r22
 19e:	01 96       	adiw	r24, 0x01	; 1
 1a0:	a2 85       	ldd	r26, Z+10	; 0x0a
 1a2:	b3 85       	ldd	r27, Z+11	; 0x0b
 1a4:	82 17       	cp	r24, r18
 1a6:	93 07       	cpc	r25, r19
 1a8:	04 f0       	brlt	.+0      	; 0x1aa <_ZN19BufferedInputStream20realineBufferContentEv+0x3c>
 1aa:	80 85       	ldd	r24, Z+8	; 0x08
 1ac:	91 85       	ldd	r25, Z+9	; 0x09
 1ae:	8a 1b       	sub	r24, r26
 1b0:	9b 0b       	sbc	r25, r27
 1b2:	91 87       	std	Z+9, r25	; 0x09
 1b4:	80 87       	std	Z+8, r24	; 0x08
 1b6:	13 86       	std	Z+11, r1	; 0x0b
 1b8:	12 86       	std	Z+10, r1	; 0x0a
 1ba:	08 95       	ret

000001bc <_ZN19BufferedInputStream4fillEi>:
 1bc:	0f 93       	push	r16
 1be:	1f 93       	push	r17
 1c0:	cf 93       	push	r28
 1c2:	df 93       	push	r29
 1c4:	ec 01       	movw	r28, r24
 1c6:	8b 01       	movw	r16, r22
 1c8:	2c 81       	ldd	r18, Y+4	; 0x04
 1ca:	3d 81       	ldd	r19, Y+5	; 0x05
 1cc:	26 1b       	sub	r18, r22
 1ce:	37 0b       	sbc	r19, r23
 1d0:	12 16       	cp	r1, r18
 1d2:	13 06       	cpc	r1, r19
 1d4:	04 f4       	brge	.+0      	; 0x1d6 <_ZN19BufferedInputStream4fillEi+0x1a>
 1d6:	8a 81       	ldd	r24, Y+2	; 0x02
 1d8:	9b 81       	ldd	r25, Y+3	; 0x03
 1da:	dc 01       	movw	r26, r24
 1dc:	ed 91       	ld	r30, X+
 1de:	fc 91       	ld	r31, X
 1e0:	6e 81       	ldd	r22, Y+6	; 0x06
 1e2:	7f 81       	ldd	r23, Y+7	; 0x07
 1e4:	04 84       	ldd	r0, Z+12	; 0x0c
 1e6:	f5 85       	ldd	r31, Z+13	; 0x0d
 1e8:	e0 2d       	mov	r30, r0
 1ea:	a8 01       	movw	r20, r16
 1ec:	09 95       	icall
 1ee:	18 16       	cp	r1, r24
 1f0:	19 06       	cpc	r1, r25
 1f2:	04 f4       	brge	.+0      	; 0x1f4 <_ZN19BufferedInputStream4fillEi+0x38>
 1f4:	08 0f       	add	r16, r24
 1f6:	19 1f       	adc	r17, r25
 1f8:	19 87       	std	Y+9, r17	; 0x09
 1fa:	08 87       	std	Y+8, r16	; 0x08
 1fc:	df 91       	pop	r29
 1fe:	cf 91       	pop	r28
 200:	1f 91       	pop	r17
 202:	0f 91       	pop	r16
 204:	08 95       	ret

00000206 <_ZN19BufferedInputStream4markEv>:
 206:	cf 93       	push	r28
 208:	df 93       	push	r29
 20a:	ec 01       	movw	r28, r24
 20c:	0e 94 00 00 	call	0	; 0x0 <_ZN19BufferedInputStream9availableEv>
 210:	68 85       	ldd	r22, Y+8	; 0x08
 212:	79 85       	ldd	r23, Y+9	; 0x09
 214:	ce 01       	movw	r24, r28
 216:	0e 94 00 00 	call	0	; 0x0 <_ZN19BufferedInputStream9availableEv>
 21a:	1d 86       	std	Y+13, r1	; 0x0d
 21c:	1c 86       	std	Y+12, r1	; 0x0c
 21e:	81 e0       	ldi	r24, 0x01	; 1
 220:	8e 87       	std	Y+14, r24	; 0x0e
 222:	df 91       	pop	r29
 224:	cf 91       	pop	r28
 226:	08 95       	ret

00000228 <_ZN19BufferedInputStream4readEv>:
 228:	cf 93       	push	r28
 22a:	df 93       	push	r29
 22c:	ec 01       	movw	r28, r24
 22e:	2a 85       	ldd	r18, Y+10	; 0x0a
 230:	3b 85       	ldd	r19, Y+11	; 0x0b
 232:	88 85       	ldd	r24, Y+8	; 0x08
 234:	99 85       	ldd	r25, Y+9	; 0x09
 236:	28 17       	cp	r18, r24
 238:	39 07       	cpc	r19, r25
 23a:	04 f0       	brlt	.+0      	; 0x23c <_ZN19BufferedInputStream4readEv+0x14>
 23c:	1e 86       	std	Y+14, r1	; 0x0e
 23e:	60 e0       	ldi	r22, 0x00	; 0
 240:	70 e0       	ldi	r23, 0x00	; 0
 242:	ce 01       	movw	r24, r28
 244:	0e 94 00 00 	call	0	; 0x0 <_ZN19BufferedInputStream9availableEv>
 248:	88 85       	ldd	r24, Y+8	; 0x08
 24a:	99 85       	ldd	r25, Y+9	; 0x09
 24c:	89 2b       	or	r24, r25
 24e:	01 f0       	breq	.+0      	; 0x250 <_ZN19BufferedInputStream4readEv+0x28>
 250:	1b 86       	std	Y+11, r1	; 0x0b
 252:	1a 86       	std	Y+10, r1	; 0x0a
 254:	8a 85       	ldd	r24, Y+10	; 0x0a
 256:	9b 85       	ldd	r25, Y+11	; 0x0b
 258:	ee 81       	ldd	r30, Y+6	; 0x06
 25a:	ff 81       	ldd	r31, Y+7	; 0x07
 25c:	e8 0f       	add	r30, r24
 25e:	f9 1f       	adc	r31, r25
 260:	20 81       	ld	r18, Z
 262:	30 e0       	ldi	r19, 0x00	; 0
 264:	01 96       	adiw	r24, 0x01	; 1
 266:	9b 87       	std	Y+11, r25	; 0x0b
 268:	8a 87       	std	Y+10, r24	; 0x0a
 26a:	00 c0       	rjmp	.+0      	; 0x26c <_ZN19BufferedInputStream4readEv+0x44>
 26c:	2f ef       	ldi	r18, 0xFF	; 255
 26e:	3f ef       	ldi	r19, 0xFF	; 255
 270:	c9 01       	movw	r24, r18
 272:	df 91       	pop	r29
 274:	cf 91       	pop	r28
 276:	08 95       	ret

00000278 <_ZN19BufferedInputStream4readEPhii>:
 278:	cf 92       	push	r12
 27a:	df 92       	push	r13
 27c:	ef 92       	push	r14
 27e:	ff 92       	push	r15
 280:	0f 93       	push	r16
 282:	1f 93       	push	r17
 284:	cf 93       	push	r28
 286:	df 93       	push	r29
 288:	ec 01       	movw	r28, r24
 28a:	89 01       	movw	r16, r18
 28c:	e8 84       	ldd	r14, Y+8	; 0x08
 28e:	f9 84       	ldd	r15, Y+9	; 0x09
 290:	8a 85       	ldd	r24, Y+10	; 0x0a
 292:	9b 85       	ldd	r25, Y+11	; 0x0b
 294:	e8 1a       	sub	r14, r24
 296:	f9 0a       	sbc	r15, r25
 298:	db 01       	movw	r26, r22
 29a:	a4 0f       	add	r26, r20
 29c:	b5 1f       	adc	r27, r21
 29e:	80 e0       	ldi	r24, 0x00	; 0
 2a0:	90 e0       	ldi	r25, 0x00	; 0
 2a2:	e2 16       	cp	r14, r18
 2a4:	f3 06       	cpc	r15, r19
 2a6:	04 f4       	brge	.+0      	; 0x2a8 <_ZN19BufferedInputStream4readEPhii+0x30>
 2a8:	00 c0       	rjmp	.+0      	; 0x2aa <_ZN19BufferedInputStream4readEPhii+0x32>
 2aa:	ee 81       	ldd	r30, Y+6	; 0x06
 2ac:	ff 81       	ldd	r31, Y+7	; 0x07
 2ae:	e2 0f       	add	r30, r18
 2b0:	f3 1f       	adc	r31, r19
 2b2:	e8 0f       	add	r30, r24
 2b4:	f9 1f       	adc	r31, r25
 2b6:	20 81       	ld	r18, Z
 2b8:	2d 93       	st	X+, r18
 2ba:	01 96       	adiw	r24, 0x01	; 1
 2bc:	2a 85       	ldd	r18, Y+10	; 0x0a
 2be:	3b 85       	ldd	r19, Y+11	; 0x0b
 2c0:	80 17       	cp	r24, r16
 2c2:	91 07       	cpc	r25, r17
 2c4:	04 f0       	brlt	.+0      	; 0x2c6 <_ZN19BufferedInputStream4readEPhii+0x4e>
 2c6:	20 0f       	add	r18, r16
 2c8:	31 1f       	adc	r19, r17
 2ca:	3b 87       	std	Y+11, r19	; 0x0b
 2cc:	2a 87       	std	Y+10, r18	; 0x0a
 2ce:	00 c0       	rjmp	.+0      	; 0x2d0 <_ZN19BufferedInputStream4readEPhii+0x58>
 2d0:	ee 81       	ldd	r30, Y+6	; 0x06
 2d2:	ff 81       	ldd	r31, Y+7	; 0x07
 2d4:	2a 85       	ldd	r18, Y+10	; 0x0a
 2d6:	3b 85       	ldd	r19, Y+11	; 0x0b
 2d8:	e2 0f       	add	r30, r18
 2da:	f3 1f       	adc	r31, r19
 2dc:	e8 0f       	add	r30, r24
 2de:	f9 1f       	adc	r31, r25
 2e0:	20 81       	ld	r18, Z
 2e2:	2d 93       	st	X+, r18
 2e4:	01 96       	adiw	r24, 0x01	; 1
 2e6:	8e 15       	cp	r24, r14
 2e8:	9f 05       	cpc	r25, r15
 2ea:	04 f0       	brlt	.+0      	; 0x2ec <_ZN19BufferedInputStream4readEPhii+0x74>
 2ec:	1e 86       	std	Y+14, r1	; 0x0e
 2ee:	1b 86       	std	Y+11, r1	; 0x0b
 2f0:	1a 86       	std	Y+10, r1	; 0x0a
 2f2:	19 86       	std	Y+9, r1	; 0x09
 2f4:	18 86       	std	Y+8, r1	; 0x08
 2f6:	8a 81       	ldd	r24, Y+2	; 0x02
 2f8:	9b 81       	ldd	r25, Y+3	; 0x03
 2fa:	68 01       	movw	r12, r16
 2fc:	ce 18       	sub	r12, r14
 2fe:	df 08       	sbc	r13, r15
 300:	dc 01       	movw	r26, r24
 302:	ed 91       	ld	r30, X+
 304:	fc 91       	ld	r31, X
 306:	4e 0d       	add	r20, r14
 308:	5f 1d       	adc	r21, r15
 30a:	04 84       	ldd	r0, Z+12	; 0x0c
 30c:	f5 85       	ldd	r31, Z+13	; 0x0d
 30e:	e0 2d       	mov	r30, r0
 310:	96 01       	movw	r18, r12
 312:	09 95       	icall
 314:	97 fd       	sbrc	r25, 7
 316:	00 c0       	rjmp	.+0      	; 0x318 <_ZN19BufferedInputStream4readEPhii+0xa0>
 318:	8c 15       	cp	r24, r12
 31a:	9d 05       	cpc	r25, r13
 31c:	04 f4       	brge	.+0      	; 0x31e <_ZN19BufferedInputStream4readEPhii+0xa6>
 31e:	87 01       	movw	r16, r14
 320:	08 0f       	add	r16, r24
 322:	19 1f       	adc	r17, r25
 324:	00 c0       	rjmp	.+0      	; 0x326 <_ZN19BufferedInputStream4readEPhii+0xae>
 326:	60 e0       	ldi	r22, 0x00	; 0
 328:	70 e0       	ldi	r23, 0x00	; 0
 32a:	ce 01       	movw	r24, r28
 32c:	0e 94 00 00 	call	0	; 0x0 <_ZN19BufferedInputStream9availableEv>
 330:	00 c0       	rjmp	.+0      	; 0x332 <_ZN19BufferedInputStream4readEPhii+0xba>
 332:	87 01       	movw	r16, r14
 334:	c8 01       	movw	r24, r16
 336:	df 91       	pop	r29
 338:	cf 91       	pop	r28
 33a:	1f 91       	pop	r17
 33c:	0f 91       	pop	r16
 33e:	ff 90       	pop	r15
 340:	ef 90       	pop	r14
 342:	df 90       	pop	r13
 344:	cf 90       	pop	r12
 346:	08 95       	ret

00000348 <_ZTv0_n18_N19BufferedInputStream4readEPhii>:
 348:	dc 01       	movw	r26, r24
 34a:	ed 91       	ld	r30, X+
 34c:	fc 91       	ld	r31, X
 34e:	72 97       	sbiw	r30, 0x12	; 18
 350:	01 90       	ld	r0, Z+
 352:	f0 81       	ld	r31, Z
 354:	e0 2d       	mov	r30, r0
 356:	8e 0f       	add	r24, r30
 358:	9f 1f       	adc	r25, r31
 35a:	0c 94 00 00 	jmp	0	; 0x0 <_ZN19BufferedInputStream9availableEv>

0000035e <_ZTv0_n14_N19BufferedInputStream4readEv>:
 35e:	dc 01       	movw	r26, r24
 360:	ed 91       	ld	r30, X+
 362:	fc 91       	ld	r31, X
 364:	3e 97       	sbiw	r30, 0x0e	; 14
 366:	20 81       	ld	r18, Z
 368:	31 81       	ldd	r19, Z+1	; 0x01
 36a:	82 0f       	add	r24, r18
 36c:	93 1f       	adc	r25, r19
 36e:	0c 94 00 00 	jmp	0	; 0x0 <_ZN19BufferedInputStream9availableEv>

00000372 <_ZTv0_n10_N19BufferedInputStream4markEv>:
 372:	dc 01       	movw	r26, r24
 374:	ed 91       	ld	r30, X+
 376:	fc 91       	ld	r31, X
 378:	3a 97       	sbiw	r30, 0x0a	; 10
 37a:	20 81       	ld	r18, Z
 37c:	31 81       	ldd	r19, Z+1	; 0x01
 37e:	82 0f       	add	r24, r18
 380:	93 1f       	adc	r25, r19
 382:	0c 94 00 00 	jmp	0	; 0x0 <_ZN19BufferedInputStream9availableEv>

00000386 <_ZTv0_n22_N19BufferedInputStream4skipEj>:
 386:	dc 01       	movw	r26, r24
 388:	ed 91       	ld	r30, X+
 38a:	fc 91       	ld	r31, X
 38c:	76 97       	sbiw	r30, 0x16	; 22
 38e:	20 81       	ld	r18, Z
 390:	31 81       	ldd	r19, Z+1	; 0x01
 392:	82 0f       	add	r24, r18
 394:	93 1f       	adc	r25, r19
 396:	0c 94 00 00 	jmp	0	; 0x0 <_ZN19BufferedInputStream9availableEv>

0000039a <_ZTv0_n12_N19BufferedInputStream13markSupportedEv>:
 39a:	dc 01       	movw	r26, r24
 39c:	ed 91       	ld	r30, X+
 39e:	fc 91       	ld	r31, X
 3a0:	3c 97       	sbiw	r30, 0x0c	; 12
 3a2:	20 81       	ld	r18, Z
 3a4:	31 81       	ldd	r19, Z+1	; 0x01
 3a6:	82 0f       	add	r24, r18
 3a8:	93 1f       	adc	r25, r19
 3aa:	0c 94 00 00 	jmp	0	; 0x0 <_ZN19BufferedInputStream9availableEv>

000003ae <_ZTv0_n16_N19BufferedInputStream4readEPhi>:
 3ae:	dc 01       	movw	r26, r24
 3b0:	ed 91       	ld	r30, X+
 3b2:	fc 91       	ld	r31, X
 3b4:	70 97       	sbiw	r30, 0x10	; 16
 3b6:	20 81       	ld	r18, Z
 3b8:	31 81       	ldd	r19, Z+1	; 0x01
 3ba:	82 0f       	add	r24, r18
 3bc:	93 1f       	adc	r25, r19
 3be:	0c 94 00 00 	jmp	0	; 0x0 <_ZN19BufferedInputStream9availableEv>

000003c2 <_ZTv0_n20_N19BufferedInputStream5resetEv>:
 3c2:	dc 01       	movw	r26, r24
 3c4:	ed 91       	ld	r30, X+
 3c6:	fc 91       	ld	r31, X
 3c8:	74 97       	sbiw	r30, 0x14	; 20
 3ca:	20 81       	ld	r18, Z
 3cc:	31 81       	ldd	r19, Z+1	; 0x01
 3ce:	82 0f       	add	r24, r18
 3d0:	93 1f       	adc	r25, r19
 3d2:	0c 94 00 00 	jmp	0	; 0x0 <_ZN19BufferedInputStream9availableEv>

000003d6 <_ZTv0_n6_N19BufferedInputStream5closeEv>:
 3d6:	dc 01       	movw	r26, r24
 3d8:	ed 91       	ld	r30, X+
 3da:	fc 91       	ld	r31, X
 3dc:	36 97       	sbiw	r30, 0x06	; 6
 3de:	20 81       	ld	r18, Z
 3e0:	31 81       	ldd	r19, Z+1	; 0x01
 3e2:	82 0f       	add	r24, r18
 3e4:	93 1f       	adc	r25, r19
 3e6:	0c 94 00 00 	jmp	0	; 0x0 <_ZN19BufferedInputStream9availableEv>

000003ea <_ZTv0_n8_N19BufferedInputStream9availableEv>:
 3ea:	dc 01       	movw	r26, r24
 3ec:	ed 91       	ld	r30, X+
 3ee:	fc 91       	ld	r31, X
 3f0:	38 97       	sbiw	r30, 0x08	; 8
 3f2:	20 81       	ld	r18, Z
 3f4:	31 81       	ldd	r19, Z+1	; 0x01
 3f6:	82 0f       	add	r24, r18
 3f8:	93 1f       	adc	r25, r19
 3fa:	0c 94 00 00 	jmp	0	; 0x0 <_ZN19BufferedInputStream9availableEv>
